Archive member included to satisfy reference by file (symbol)

./gen/../tecsrust_uart_led_sample/target/armv7a-none-eabi/release/libitron.a(itron-45c5fd98eb955c4a.itron.9d87066d26af0b75-cgu.0.rcgu.o)
                              objs/kernel_cfg.o (tecs_rust_start_r_processor1_symmetric_uart_task)
./gen/../tecsrust_uart_led_sample/target/armv7a-none-eabi/release/libitron.a(itron-fbcb73bf0b635dd5.itron.68e737fdf62a80e5-cgu.0.rcgu.o)
                              ./gen/../tecsrust_uart_led_sample/target/armv7a-none-eabi/release/libitron.a(itron-45c5fd98eb955c4a.itron.9d87066d26af0b75-cgu.0.rcgu.o) (<itron::error::ErrorCode as core::fmt::Debug>::fmt)
./gen/../tecsrust_uart_led_sample/target/armv7a-none-eabi/release/libitron.a(core-d049573bc16596f9.core.5587a85061e7188a-cgu.0.rcgu.o)
                              ./gen/../tecsrust_uart_led_sample/target/armv7a-none-eabi/release/libitron.a(itron-45c5fd98eb955c4a.itron.9d87066d26af0b75-cgu.0.rcgu.o) (core::panicking::panic_bounds_check)
./gen/../tecsrust_uart_led_sample/target/armv7a-none-eabi/release/libitron.a(compiler_builtins-70f608aea3cde50d.compiler_builtins.5a681add74c93a61-cgu.162.rcgu.o)
                              ./gen/../tecsrust_uart_led_sample/target/armv7a-none-eabi/release/libitron.a(core-d049573bc16596f9.core.5587a85061e7188a-cgu.0.rcgu.o) (__aeabi_memset)
./gen/../tecsrust_uart_led_sample/target/armv7a-none-eabi/release/libitron.a(compiler_builtins-70f608aea3cde50d.compiler_builtins.5a681add74c93a61-cgu.174.rcgu.o)
                              ./gen/../tecsrust_uart_led_sample/target/armv7a-none-eabi/release/libitron.a(core-d049573bc16596f9.core.5587a85061e7188a-cgu.0.rcgu.o) (__aeabi_memcpy4)
./gen/../tecsrust_uart_led_sample/target/armv7a-none-eabi/release/libitron.a(compiler_builtins-70f608aea3cde50d.compiler_builtins.5a681add74c93a61-cgu.178.rcgu.o)
                              ./gen/../tecsrust_uart_led_sample/target/armv7a-none-eabi/release/libitron.a(core-d049573bc16596f9.core.5587a85061e7188a-cgu.0.rcgu.o) (__aeabi_dmul)
./gen/../tecsrust_uart_led_sample/target/armv7a-none-eabi/release/libitron.a(compiler_builtins-70f608aea3cde50d.compiler_builtins.5a681add74c93a61-cgu.180.rcgu.o)
                              ./gen/../tecsrust_uart_led_sample/target/armv7a-none-eabi/release/libitron.a(core-d049573bc16596f9.core.5587a85061e7188a-cgu.0.rcgu.o) (__aeabi_fcmplt)
./gen/../tecsrust_uart_led_sample/target/armv7a-none-eabi/release/libitron.a(compiler_builtins-70f608aea3cde50d.compiler_builtins.5a681add74c93a61-cgu.201.rcgu.o)
                              ./gen/../tecsrust_uart_led_sample/target/armv7a-none-eabi/release/libitron.a(core-d049573bc16596f9.core.5587a85061e7188a-cgu.0.rcgu.o) (__aeabi_memclr4)
./gen/../tecsrust_uart_led_sample/target/armv7a-none-eabi/release/libitron.a(compiler_builtins-70f608aea3cde50d.compiler_builtins.5a681add74c93a61-cgu.206.rcgu.o)
                              ./gen/../tecsrust_uart_led_sample/target/armv7a-none-eabi/release/libitron.a(core-d049573bc16596f9.core.5587a85061e7188a-cgu.0.rcgu.o) (__aeabi_fcmpge)
./gen/../tecsrust_uart_led_sample/target/armv7a-none-eabi/release/libitron.a(compiler_builtins-70f608aea3cde50d.compiler_builtins.5a681add74c93a61-cgu.210.rcgu.o)
                              ./gen/../tecsrust_uart_led_sample/target/armv7a-none-eabi/release/libitron.a(core-d049573bc16596f9.core.5587a85061e7188a-cgu.0.rcgu.o) (__aeabi_f2h)
./gen/../tecsrust_uart_led_sample/target/armv7a-none-eabi/release/libitron.a(compiler_builtins-70f608aea3cde50d.compiler_builtins.5a681add74c93a61-cgu.223.rcgu.o)
                              ./gen/../tecsrust_uart_led_sample/target/armv7a-none-eabi/release/libitron.a(core-d049573bc16596f9.core.5587a85061e7188a-cgu.0.rcgu.o) (__aeabi_memcpy)
./gen/../tecsrust_uart_led_sample/target/armv7a-none-eabi/release/libitron.a(compiler_builtins-70f608aea3cde50d.compiler_builtins.5a681add74c93a61-cgu.253.rcgu.o)
                              ./gen/../tecsrust_uart_led_sample/target/armv7a-none-eabi/release/libitron.a(core-d049573bc16596f9.core.5587a85061e7188a-cgu.0.rcgu.o) (__aeabi_memcpy8)
./gen/../tecsrust_uart_led_sample/target/armv7a-none-eabi/release/libitron.a(compiler_builtins-70f608aea3cde50d.compiler_builtins.5a681add74c93a61-cgu.261.rcgu.o)
                              ./gen/../tecsrust_uart_led_sample/target/armv7a-none-eabi/release/libitron.a(core-d049573bc16596f9.core.5587a85061e7188a-cgu.0.rcgu.o) (__aeabi_dcmplt)
./gen/../tecsrust_uart_led_sample/target/armv7a-none-eabi/release/libitron.a(compiler_builtins-70f608aea3cde50d.compiler_builtins.5a681add74c93a61-cgu.263.rcgu.o)
                              ./gen/../tecsrust_uart_led_sample/target/armv7a-none-eabi/release/libitron.a(core-d049573bc16596f9.core.5587a85061e7188a-cgu.0.rcgu.o) (__aeabi_ddiv)
./gen/../tecsrust_uart_led_sample/target/armv7a-none-eabi/release/libitron.a(compiler_builtins-70f608aea3cde50d.compiler_builtins.5a681add74c93a61-cgu.270.rcgu.o)
                              ./gen/../tecsrust_uart_led_sample/target/armv7a-none-eabi/release/libitron.a(core-d049573bc16596f9.core.5587a85061e7188a-cgu.0.rcgu.o) (__aeabi_ul2d)
./gen/../tecsrust_uart_led_sample/target/armv7a-none-eabi/release/libitron.a(compiler_builtins-70f608aea3cde50d.compiler_builtins.5a681add74c93a61-cgu.283.rcgu.o)
                              ./gen/../tecsrust_uart_led_sample/target/armv7a-none-eabi/release/libitron.a(core-d049573bc16596f9.core.5587a85061e7188a-cgu.0.rcgu.o) (__aeabi_fcmpeq)
./gen/../tecsrust_uart_led_sample/target/armv7a-none-eabi/release/libitron.a(compiler_builtins-70f608aea3cde50d.compiler_builtins.5a681add74c93a61-cgu.287.rcgu.o)
                              ./gen/../tecsrust_uart_led_sample/target/armv7a-none-eabi/release/libitron.a(core-d049573bc16596f9.core.5587a85061e7188a-cgu.0.rcgu.o) (__aeabi_dcmpeq)
./gen/../tecsrust_uart_led_sample/target/armv7a-none-eabi/release/libitron.a(compiler_builtins-70f608aea3cde50d.compiler_builtins.5a681add74c93a61-cgu.300.rcgu.o)
                              ./gen/../tecsrust_uart_led_sample/target/armv7a-none-eabi/release/libitron.a(core-d049573bc16596f9.core.5587a85061e7188a-cgu.0.rcgu.o) (__aeabi_h2f)
./gen/../tecsrust_uart_led_sample/target/armv7a-none-eabi/release/libitron.a(compiler_builtins-70f608aea3cde50d.compiler_builtins.5a681add74c93a61-cgu.310.rcgu.o)
                              ./gen/../tecsrust_uart_led_sample/target/armv7a-none-eabi/release/libitron.a(core-d049573bc16596f9.core.5587a85061e7188a-cgu.0.rcgu.o) (memcmp)
./gen/../tecsrust_uart_led_sample/target/armv7a-none-eabi/release/libitron.a(compiler_builtins-70f608aea3cde50d.compiler_builtins.5a681add74c93a61-cgu.355.rcgu.o)
                              ./gen/../tecsrust_uart_led_sample/target/armv7a-none-eabi/release/libitron.a(core-d049573bc16596f9.core.5587a85061e7188a-cgu.0.rcgu.o) (__aeabi_fdiv)
./gen/../tecsrust_uart_led_sample/target/armv7a-none-eabi/release/libitron.a(compiler_builtins-70f608aea3cde50d.compiler_builtins.5a681add74c93a61-cgu.361.rcgu.o)
                              ./gen/../tecsrust_uart_led_sample/target/armv7a-none-eabi/release/libitron.a(core-d049573bc16596f9.core.5587a85061e7188a-cgu.0.rcgu.o) (__aeabi_dcmpge)
./gen/../tecsrust_uart_led_sample/target/armv7a-none-eabi/release/libitron.a(compiler_builtins-70f608aea3cde50d.compiler_builtins.5a681add74c93a61-cgu.365.rcgu.o)
                              ./gen/../tecsrust_uart_led_sample/target/armv7a-none-eabi/release/libitron.a(core-d049573bc16596f9.core.5587a85061e7188a-cgu.0.rcgu.o) (__aeabi_ul2f)
./gen/../tecsrust_uart_led_sample/target/armv7a-none-eabi/release/libitron.a(compiler_builtins-70f608aea3cde50d.compiler_builtins.5a681add74c93a61-cgu.375.rcgu.o)
                              ./gen/../tecsrust_uart_led_sample/target/armv7a-none-eabi/release/libitron.a(core-d049573bc16596f9.core.5587a85061e7188a-cgu.0.rcgu.o) (__aeabi_memclr8)
./gen/../tecsrust_uart_led_sample/target/armv7a-none-eabi/release/libitron.a(compiler_builtins-70f608aea3cde50d.compiler_builtins.5a681add74c93a61-cgu.393.rcgu.o)
                              ./gen/../tecsrust_uart_led_sample/target/armv7a-none-eabi/release/libitron.a(core-d049573bc16596f9.core.5587a85061e7188a-cgu.0.rcgu.o) (__aeabi_fmul)
./gen/../tecsrust_uart_led_sample/target/armv7a-none-eabi/release/libitron.a(compiler_builtins-70f608aea3cde50d.compiler_builtins.5a681add74c93a61-cgu.395.rcgu.o)
                              ./gen/../tecsrust_uart_led_sample/target/armv7a-none-eabi/release/libitron.a(core-d049573bc16596f9.core.5587a85061e7188a-cgu.0.rcgu.o) (__aeabi_memclr)
./gen/../tecsrust_uart_led_sample/target/armv7a-none-eabi/release/libitron.a(compiler_builtins-70f608aea3cde50d.compiler_builtins.5a681add74c93a61-cgu.410.rcgu.o)
                              objs/tSysLog.o (__aeabi_uldivmod)
./gen/../tecsrust_uart_led_sample/target/armv7a-none-eabi/release/libitron.a(compiler_builtins-70f608aea3cde50d.compiler_builtins.5a681add74c93a61-cgu.411.rcgu.o)
                              objs/log_output.o (__aeabi_uidivmod)
./gen/../tecsrust_uart_led_sample/target/armv7a-none-eabi/release/libitron.a(63f8a0b8a638da8c-udivmodsi4.o)
                              ./gen/../tecsrust_uart_led_sample/target/armv7a-none-eabi/release/libitron.a(compiler_builtins-70f608aea3cde50d.compiler_builtins.5a681add74c93a61-cgu.411.rcgu.o) (__udivmodsi4)
./gen/../tecsrust_uart_led_sample/target/armv7a-none-eabi/release/libitron.a(63f8a0b8a638da8c-udivsi3.o)
                              ./gen/../tecsrust_uart_led_sample/target/armv7a-none-eabi/release/libitron.a(core-d049573bc16596f9.core.5587a85061e7188a-cgu.0.rcgu.o) (__aeabi_uidiv)
./gen/../tecsrust_uart_led_sample/target/armv7a-none-eabi/release/libitron.a(compiler_builtins-70f608aea3cde50d.compiler_builtins.5a681add74c93a61-cgu.000.rcgu.o)
                              ./gen/../tecsrust_uart_led_sample/target/armv7a-none-eabi/release/libitron.a(compiler_builtins-70f608aea3cde50d.compiler_builtins.5a681add74c93a61-cgu.355.rcgu.o) (compiler_builtins::float::div::__divsf3)
./gen/../tecsrust_uart_led_sample/target/armv7a-none-eabi/release/libitron.a(compiler_builtins-70f608aea3cde50d.compiler_builtins.5a681add74c93a61-cgu.004.rcgu.o)
                              ./gen/../tecsrust_uart_led_sample/target/armv7a-none-eabi/release/libitron.a(compiler_builtins-70f608aea3cde50d.compiler_builtins.5a681add74c93a61-cgu.393.rcgu.o) (compiler_builtins::float::mul::__mulsf3)
./gen/../tecsrust_uart_led_sample/target/armv7a-none-eabi/release/libitron.a(compiler_builtins-70f608aea3cde50d.compiler_builtins.5a681add74c93a61-cgu.009.rcgu.o)
                              ./gen/../tecsrust_uart_led_sample/target/armv7a-none-eabi/release/libitron.a(compiler_builtins-70f608aea3cde50d.compiler_builtins.5a681add74c93a61-cgu.174.rcgu.o) (compiler_builtins::mem::memcpy)
./gen/../tecsrust_uart_led_sample/target/armv7a-none-eabi/release/libitron.a(compiler_builtins-70f608aea3cde50d.compiler_builtins.5a681add74c93a61-cgu.019.rcgu.o)
                              ./gen/../tecsrust_uart_led_sample/target/armv7a-none-eabi/release/libitron.a(compiler_builtins-70f608aea3cde50d.compiler_builtins.5a681add74c93a61-cgu.000.rcgu.o) (compiler_builtins::int::big::<impl compiler_builtins::int::traits::HInt for u128>::zero_widen_mul)
./gen/../tecsrust_uart_led_sample/target/armv7a-none-eabi/release/libitron.a(compiler_builtins-70f608aea3cde50d.compiler_builtins.5a681add74c93a61-cgu.347.rcgu.o)
                              ./gen/../tecsrust_uart_led_sample/target/armv7a-none-eabi/release/libitron.a(compiler_builtins-70f608aea3cde50d.compiler_builtins.5a681add74c93a61-cgu.410.rcgu.o) (__udivmoddi4)
./gen/../tecsrust_uart_led_sample/target/armv7a-none-eabi/release/libitron.a(63f8a0b8a638da8c-aeabi_div0.o)
                              ./gen/../tecsrust_uart_led_sample/target/armv7a-none-eabi/release/libitron.a(63f8a0b8a638da8c-udivmodsi4.o) (__aeabi_idiv0)
./gen/../tecsrust_uart_led_sample/target/armv7a-none-eabi/release/libitron.a(compiler_builtins-70f608aea3cde50d.compiler_builtins.5a681add74c93a61-cgu.010.rcgu.o)
                              ./gen/../tecsrust_uart_led_sample/target/armv7a-none-eabi/release/libitron.a(compiler_builtins-70f608aea3cde50d.compiler_builtins.5a681add74c93a61-cgu.347.rcgu.o) (compiler_builtins::int::specialized_div_rem::u64_div_rem)
./libkernel.a(target_kernel_impl.o)
                              objs/start.o (hardware_init_hook)
./libkernel.a(chip_kernel_impl.o)
                              ./libkernel.a(target_kernel_impl.o) (_kernel_chip_initialize)
./libkernel.a(mpcore_kernel_impl.o)
                              ./libkernel.a(target_kernel_impl.o) (_kernel_mpcore_mprc_initialize)
./libkernel.a(gic_kernel_impl.o)
                              ./libkernel.a(mpcore_kernel_impl.o) (_kernel_gicc_initialize)
./libkernel.a(pl310.o)        ./libkernel.a(chip_kernel_impl.o) (_kernel_pl310_initialize)
./libkernel.a(mpcore_timer.o)
                              objs/kernel_cfg.o (_kernel_target_hrt_initialize)
./libkernel.a(core_kernel_impl.o)
                              ./libkernel.a(mpcore_kernel_impl.o) (_kernel_core_initialize)
./libkernel.a(arm.o)          ./libkernel.a(mpcore_kernel_impl.o) (arm_enable_icache)
./libkernel.a(startup.o)      ./libkernel.a(chip_kernel_impl.o) (_kernel_barrier_sync)
./libkernel.a(task.o)         objs/kernel_cfg.o (_kernel_initialize_task)
./libkernel.a(taskhook.o)     ./libkernel.a(task.o) (_kernel_mtxhook_release_all)
./libkernel.a(wait.o)         ./libkernel.a(task.o) (_kernel_wait_dequeue_wobj)
./libkernel.a(time_event.o)   ./libkernel.a(startup.o) (_kernel_initialize_tmevt)
./libkernel.a(task_sync.o)    objs/tLogTaskMain.o (dly_tsk)
./libkernel.a(semaphore.o)    objs/kernel_cfg.o (_kernel_initialize_semaphore)
./libkernel.a(dataqueue.o)    objs/kernel_cfg.o (_kernel_initialize_dataqueue)
./libkernel.a(mutex.o)        objs/kernel_cfg.o (_kernel_initialize_mutex)
./libkernel.a(spin_lock.o)    objs/kernel_cfg.o (_kernel_force_unlock_spin)
./libkernel.a(sys_manage.o)   ./gen/../tecsrust_uart_led_sample/target/armv7a-none-eabi/release/libitron.a(itron-fbcb73bf0b635dd5.itron.68e737fdf62a80e5-cgu.0.rcgu.o) (get_tid)
./libkernel.a(interrupt.o)    objs/tSerialPortMain.o (dis_int)
./libkernel.a(core_support.o)
                              ./libkernel.a(target_kernel_impl.o) (vector_table)
./libkernel.a(task_term.o)    ./libkernel.a(core_support.o) (ext_tsk)
./libkernel.a(gic_support.o)  ./libkernel.a(core_support.o) (_kernel_irc_begin_int)
/usr/lib/gcc/arm-none-eabi/10.3.1/../../../arm-none-eabi/lib/thumb/v7-a/nofp/libc.a(lib_a-memset.o)
                              ./libkernel.a(core_kernel_impl.o) (memset)

Discarded input sections

 .llvmbc        0x0000000000000000   0x146cc0 ./gen/../tecsrust_uart_led_sample/target/armv7a-none-eabi/release/libitron.a(core-d049573bc16596f9.core.5587a85061e7188a-cgu.0.rcgu.o)
 .llvmcmd       0x0000000000000000        0x0 ./gen/../tecsrust_uart_led_sample/target/armv7a-none-eabi/release/libitron.a(core-d049573bc16596f9.core.5587a85061e7188a-cgu.0.rcgu.o)
 .llvmbc        0x0000000000000000      0xb6c ./gen/../tecsrust_uart_led_sample/target/armv7a-none-eabi/release/libitron.a(compiler_builtins-70f608aea3cde50d.compiler_builtins.5a681add74c93a61-cgu.162.rcgu.o)
 .llvmcmd       0x0000000000000000        0x0 ./gen/../tecsrust_uart_led_sample/target/armv7a-none-eabi/release/libitron.a(compiler_builtins-70f608aea3cde50d.compiler_builtins.5a681add74c93a61-cgu.162.rcgu.o)
 .llvmbc        0x0000000000000000      0xb70 ./gen/../tecsrust_uart_led_sample/target/armv7a-none-eabi/release/libitron.a(compiler_builtins-70f608aea3cde50d.compiler_builtins.5a681add74c93a61-cgu.174.rcgu.o)
 .llvmcmd       0x0000000000000000        0x0 ./gen/../tecsrust_uart_led_sample/target/armv7a-none-eabi/release/libitron.a(compiler_builtins-70f608aea3cde50d.compiler_builtins.5a681add74c93a61-cgu.174.rcgu.o)
 .llvmbc        0x0000000000000000      0xb70 ./gen/../tecsrust_uart_led_sample/target/armv7a-none-eabi/release/libitron.a(compiler_builtins-70f608aea3cde50d.compiler_builtins.5a681add74c93a61-cgu.178.rcgu.o)
 .llvmcmd       0x0000000000000000        0x0 ./gen/../tecsrust_uart_led_sample/target/armv7a-none-eabi/release/libitron.a(compiler_builtins-70f608aea3cde50d.compiler_builtins.5a681add74c93a61-cgu.178.rcgu.o)
 .llvmbc        0x0000000000000000      0xb78 ./gen/../tecsrust_uart_led_sample/target/armv7a-none-eabi/release/libitron.a(compiler_builtins-70f608aea3cde50d.compiler_builtins.5a681add74c93a61-cgu.180.rcgu.o)
 .llvmcmd       0x0000000000000000        0x0 ./gen/../tecsrust_uart_led_sample/target/armv7a-none-eabi/release/libitron.a(compiler_builtins-70f608aea3cde50d.compiler_builtins.5a681add74c93a61-cgu.180.rcgu.o)
 .llvmbc        0x0000000000000000      0xb64 ./gen/../tecsrust_uart_led_sample/target/armv7a-none-eabi/release/libitron.a(compiler_builtins-70f608aea3cde50d.compiler_builtins.5a681add74c93a61-cgu.201.rcgu.o)
 .llvmcmd       0x0000000000000000        0x0 ./gen/../tecsrust_uart_led_sample/target/armv7a-none-eabi/release/libitron.a(compiler_builtins-70f608aea3cde50d.compiler_builtins.5a681add74c93a61-cgu.201.rcgu.o)
 .llvmbc        0x0000000000000000      0xb78 ./gen/../tecsrust_uart_led_sample/target/armv7a-none-eabi/release/libitron.a(compiler_builtins-70f608aea3cde50d.compiler_builtins.5a681add74c93a61-cgu.206.rcgu.o)
 .llvmcmd       0x0000000000000000        0x0 ./gen/../tecsrust_uart_led_sample/target/armv7a-none-eabi/release/libitron.a(compiler_builtins-70f608aea3cde50d.compiler_builtins.5a681add74c93a61-cgu.206.rcgu.o)
 .llvmbc        0x0000000000000000      0xc20 ./gen/../tecsrust_uart_led_sample/target/armv7a-none-eabi/release/libitron.a(compiler_builtins-70f608aea3cde50d.compiler_builtins.5a681add74c93a61-cgu.210.rcgu.o)
 .llvmcmd       0x0000000000000000        0x0 ./gen/../tecsrust_uart_led_sample/target/armv7a-none-eabi/release/libitron.a(compiler_builtins-70f608aea3cde50d.compiler_builtins.5a681add74c93a61-cgu.210.rcgu.o)
 .llvmbc        0x0000000000000000      0xb6c ./gen/../tecsrust_uart_led_sample/target/armv7a-none-eabi/release/libitron.a(compiler_builtins-70f608aea3cde50d.compiler_builtins.5a681add74c93a61-cgu.223.rcgu.o)
 .llvmcmd       0x0000000000000000        0x0 ./gen/../tecsrust_uart_led_sample/target/armv7a-none-eabi/release/libitron.a(compiler_builtins-70f608aea3cde50d.compiler_builtins.5a681add74c93a61-cgu.223.rcgu.o)
 .llvmbc        0x0000000000000000      0xb70 ./gen/../tecsrust_uart_led_sample/target/armv7a-none-eabi/release/libitron.a(compiler_builtins-70f608aea3cde50d.compiler_builtins.5a681add74c93a61-cgu.253.rcgu.o)
 .llvmcmd       0x0000000000000000        0x0 ./gen/../tecsrust_uart_led_sample/target/armv7a-none-eabi/release/libitron.a(compiler_builtins-70f608aea3cde50d.compiler_builtins.5a681add74c93a61-cgu.253.rcgu.o)
 .llvmbc        0x0000000000000000      0xb7c ./gen/../tecsrust_uart_led_sample/target/armv7a-none-eabi/release/libitron.a(compiler_builtins-70f608aea3cde50d.compiler_builtins.5a681add74c93a61-cgu.261.rcgu.o)
 .llvmcmd       0x0000000000000000        0x0 ./gen/../tecsrust_uart_led_sample/target/armv7a-none-eabi/release/libitron.a(compiler_builtins-70f608aea3cde50d.compiler_builtins.5a681add74c93a61-cgu.261.rcgu.o)
 .llvmbc        0x0000000000000000      0xb74 ./gen/../tecsrust_uart_led_sample/target/armv7a-none-eabi/release/libitron.a(compiler_builtins-70f608aea3cde50d.compiler_builtins.5a681add74c93a61-cgu.263.rcgu.o)
 .llvmcmd       0x0000000000000000        0x0 ./gen/../tecsrust_uart_led_sample/target/armv7a-none-eabi/release/libitron.a(compiler_builtins-70f608aea3cde50d.compiler_builtins.5a681add74c93a61-cgu.263.rcgu.o)
 .llvmbc        0x0000000000000000      0xb78 ./gen/../tecsrust_uart_led_sample/target/armv7a-none-eabi/release/libitron.a(compiler_builtins-70f608aea3cde50d.compiler_builtins.5a681add74c93a61-cgu.270.rcgu.o)
 .llvmcmd       0x0000000000000000        0x0 ./gen/../tecsrust_uart_led_sample/target/armv7a-none-eabi/release/libitron.a(compiler_builtins-70f608aea3cde50d.compiler_builtins.5a681add74c93a61-cgu.270.rcgu.o)
 .llvmbc        0x0000000000000000      0xb78 ./gen/../tecsrust_uart_led_sample/target/armv7a-none-eabi/release/libitron.a(compiler_builtins-70f608aea3cde50d.compiler_builtins.5a681add74c93a61-cgu.283.rcgu.o)
 .llvmcmd       0x0000000000000000        0x0 ./gen/../tecsrust_uart_led_sample/target/armv7a-none-eabi/release/libitron.a(compiler_builtins-70f608aea3cde50d.compiler_builtins.5a681add74c93a61-cgu.283.rcgu.o)
 .llvmbc        0x0000000000000000      0xb78 ./gen/../tecsrust_uart_led_sample/target/armv7a-none-eabi/release/libitron.a(compiler_builtins-70f608aea3cde50d.compiler_builtins.5a681add74c93a61-cgu.287.rcgu.o)
 .llvmcmd       0x0000000000000000        0x0 ./gen/../tecsrust_uart_led_sample/target/armv7a-none-eabi/release/libitron.a(compiler_builtins-70f608aea3cde50d.compiler_builtins.5a681add74c93a61-cgu.287.rcgu.o)
 .llvmbc        0x0000000000000000      0xc28 ./gen/../tecsrust_uart_led_sample/target/armv7a-none-eabi/release/libitron.a(compiler_builtins-70f608aea3cde50d.compiler_builtins.5a681add74c93a61-cgu.300.rcgu.o)
 .llvmcmd       0x0000000000000000        0x0 ./gen/../tecsrust_uart_led_sample/target/armv7a-none-eabi/release/libitron.a(compiler_builtins-70f608aea3cde50d.compiler_builtins.5a681add74c93a61-cgu.300.rcgu.o)
 .llvmbc        0x0000000000000000      0xb58 ./gen/../tecsrust_uart_led_sample/target/armv7a-none-eabi/release/libitron.a(compiler_builtins-70f608aea3cde50d.compiler_builtins.5a681add74c93a61-cgu.310.rcgu.o)
 .llvmcmd       0x0000000000000000        0x0 ./gen/../tecsrust_uart_led_sample/target/armv7a-none-eabi/release/libitron.a(compiler_builtins-70f608aea3cde50d.compiler_builtins.5a681add74c93a61-cgu.310.rcgu.o)
 .llvmbc        0x0000000000000000      0xb70 ./gen/../tecsrust_uart_led_sample/target/armv7a-none-eabi/release/libitron.a(compiler_builtins-70f608aea3cde50d.compiler_builtins.5a681add74c93a61-cgu.355.rcgu.o)
 .llvmcmd       0x0000000000000000        0x0 ./gen/../tecsrust_uart_led_sample/target/armv7a-none-eabi/release/libitron.a(compiler_builtins-70f608aea3cde50d.compiler_builtins.5a681add74c93a61-cgu.355.rcgu.o)
 .llvmbc        0x0000000000000000      0xb78 ./gen/../tecsrust_uart_led_sample/target/armv7a-none-eabi/release/libitron.a(compiler_builtins-70f608aea3cde50d.compiler_builtins.5a681add74c93a61-cgu.361.rcgu.o)
 .llvmcmd       0x0000000000000000        0x0 ./gen/../tecsrust_uart_led_sample/target/armv7a-none-eabi/release/libitron.a(compiler_builtins-70f608aea3cde50d.compiler_builtins.5a681add74c93a61-cgu.361.rcgu.o)
 .llvmbc        0x0000000000000000      0xb7c ./gen/../tecsrust_uart_led_sample/target/armv7a-none-eabi/release/libitron.a(compiler_builtins-70f608aea3cde50d.compiler_builtins.5a681add74c93a61-cgu.365.rcgu.o)
 .llvmcmd       0x0000000000000000        0x0 ./gen/../tecsrust_uart_led_sample/target/armv7a-none-eabi/release/libitron.a(compiler_builtins-70f608aea3cde50d.compiler_builtins.5a681add74c93a61-cgu.365.rcgu.o)
 .llvmbc        0x0000000000000000      0xb64 ./gen/../tecsrust_uart_led_sample/target/armv7a-none-eabi/release/libitron.a(compiler_builtins-70f608aea3cde50d.compiler_builtins.5a681add74c93a61-cgu.375.rcgu.o)
 .llvmcmd       0x0000000000000000        0x0 ./gen/../tecsrust_uart_led_sample/target/armv7a-none-eabi/release/libitron.a(compiler_builtins-70f608aea3cde50d.compiler_builtins.5a681add74c93a61-cgu.375.rcgu.o)
 .llvmbc        0x0000000000000000      0xb74 ./gen/../tecsrust_uart_led_sample/target/armv7a-none-eabi/release/libitron.a(compiler_builtins-70f608aea3cde50d.compiler_builtins.5a681add74c93a61-cgu.393.rcgu.o)
 .llvmcmd       0x0000000000000000        0x0 ./gen/../tecsrust_uart_led_sample/target/armv7a-none-eabi/release/libitron.a(compiler_builtins-70f608aea3cde50d.compiler_builtins.5a681add74c93a61-cgu.393.rcgu.o)
 .llvmbc        0x0000000000000000      0xb68 ./gen/../tecsrust_uart_led_sample/target/armv7a-none-eabi/release/libitron.a(compiler_builtins-70f608aea3cde50d.compiler_builtins.5a681add74c93a61-cgu.395.rcgu.o)
 .llvmcmd       0x0000000000000000        0x0 ./gen/../tecsrust_uart_led_sample/target/armv7a-none-eabi/release/libitron.a(compiler_builtins-70f608aea3cde50d.compiler_builtins.5a681add74c93a61-cgu.395.rcgu.o)
 .llvmbc        0x0000000000000000      0xce4 ./gen/../tecsrust_uart_led_sample/target/armv7a-none-eabi/release/libitron.a(compiler_builtins-70f608aea3cde50d.compiler_builtins.5a681add74c93a61-cgu.410.rcgu.o)
 .llvmcmd       0x0000000000000000        0x0 ./gen/../tecsrust_uart_led_sample/target/armv7a-none-eabi/release/libitron.a(compiler_builtins-70f608aea3cde50d.compiler_builtins.5a681add74c93a61-cgu.410.rcgu.o)
 .llvmbc        0x0000000000000000      0xca0 ./gen/../tecsrust_uart_led_sample/target/armv7a-none-eabi/release/libitron.a(compiler_builtins-70f608aea3cde50d.compiler_builtins.5a681add74c93a61-cgu.411.rcgu.o)
 .llvmcmd       0x0000000000000000        0x0 ./gen/../tecsrust_uart_led_sample/target/armv7a-none-eabi/release/libitron.a(compiler_builtins-70f608aea3cde50d.compiler_builtins.5a681add74c93a61-cgu.411.rcgu.o)
 .llvmbc        0x0000000000000000     0x8580 ./gen/../tecsrust_uart_led_sample/target/armv7a-none-eabi/release/libitron.a(compiler_builtins-70f608aea3cde50d.compiler_builtins.5a681add74c93a61-cgu.000.rcgu.o)
 .llvmcmd       0x0000000000000000        0x0 ./gen/../tecsrust_uart_led_sample/target/armv7a-none-eabi/release/libitron.a(compiler_builtins-70f608aea3cde50d.compiler_builtins.5a681add74c93a61-cgu.000.rcgu.o)
 .llvmbc        0x0000000000000000     0x5ee0 ./gen/../tecsrust_uart_led_sample/target/armv7a-none-eabi/release/libitron.a(compiler_builtins-70f608aea3cde50d.compiler_builtins.5a681add74c93a61-cgu.004.rcgu.o)
 .llvmcmd       0x0000000000000000        0x0 ./gen/../tecsrust_uart_led_sample/target/armv7a-none-eabi/release/libitron.a(compiler_builtins-70f608aea3cde50d.compiler_builtins.5a681add74c93a61-cgu.004.rcgu.o)
 .llvmbc        0x0000000000000000     0x4cc4 ./gen/../tecsrust_uart_led_sample/target/armv7a-none-eabi/release/libitron.a(compiler_builtins-70f608aea3cde50d.compiler_builtins.5a681add74c93a61-cgu.009.rcgu.o)
 .llvmcmd       0x0000000000000000        0x0 ./gen/../tecsrust_uart_led_sample/target/armv7a-none-eabi/release/libitron.a(compiler_builtins-70f608aea3cde50d.compiler_builtins.5a681add74c93a61-cgu.009.rcgu.o)
 .llvmbc        0x0000000000000000     0x3f0c ./gen/../tecsrust_uart_led_sample/target/armv7a-none-eabi/release/libitron.a(compiler_builtins-70f608aea3cde50d.compiler_builtins.5a681add74c93a61-cgu.019.rcgu.o)
 .llvmcmd       0x0000000000000000        0x0 ./gen/../tecsrust_uart_led_sample/target/armv7a-none-eabi/release/libitron.a(compiler_builtins-70f608aea3cde50d.compiler_builtins.5a681add74c93a61-cgu.019.rcgu.o)
 .llvmbc        0x0000000000000000      0xb84 ./gen/../tecsrust_uart_led_sample/target/armv7a-none-eabi/release/libitron.a(compiler_builtins-70f608aea3cde50d.compiler_builtins.5a681add74c93a61-cgu.347.rcgu.o)
 .llvmcmd       0x0000000000000000        0x0 ./gen/../tecsrust_uart_led_sample/target/armv7a-none-eabi/release/libitron.a(compiler_builtins-70f608aea3cde50d.compiler_builtins.5a681add74c93a61-cgu.347.rcgu.o)
 .llvmbc        0x0000000000000000     0x28b8 ./gen/../tecsrust_uart_led_sample/target/armv7a-none-eabi/release/libitron.a(compiler_builtins-70f608aea3cde50d.compiler_builtins.5a681add74c93a61-cgu.010.rcgu.o)
 .llvmcmd       0x0000000000000000        0x0 ./gen/../tecsrust_uart_led_sample/target/armv7a-none-eabi/release/libitron.a(compiler_builtins-70f608aea3cde50d.compiler_builtins.5a681add74c93a61-cgu.010.rcgu.o)

Memory Configuration

Name             Origin             Length             Attributes
RAM              0x0000000000100000 0x000000001ff00000 xrw
*default*        0x0000000000000000 0xffffffffffffffff

Linker script and memory map

                [!provide]                        PROVIDE (hardware_init_hook = 0x0)
                0x0000000000000000                PROVIDE (software_init_hook = 0x0)
                0x0000000000000000                PROVIDE (software_term_hook = 0x0)

.text           0x0000000000100000    0x32e8c
                0x0000000000100000                __start_text = .
 *(.vector)
 .vector        0x0000000000100000       0x3c ./libkernel.a(core_support.o)
                0x0000000000100000                vector_table
                0x0000000000100020                vector_ref_table
 *(.text)
 .text          0x000000000010003c      0x11c objs/start.o
                0x000000000010003c                start
 .text          0x0000000000100158      0x42c objs/log_output.o
                0x0000000000100260                syslog_printf
                0x00000000001004f8                syslog_print
                0x000000000010054c                syslog_lostmsg
 .text          0x0000000000100584      0x2a8 objs/vasyslog.o
                0x0000000000100584                tt_syslog
 .text          0x000000000010082c       0x50 objs/t_perror.o
                0x000000000010082c                tt_perror
 .text          0x000000000010087c       0x24 objs/strerror.o
                0x000000000010087c                itron_strerror
 .text          0x00000000001008a0        0x4 objs/tTask_rProcessor1Migratable_tecsgen.o
                0x00000000001008a0                tTask_CB_initialize
 .text          0x00000000001008a4        0x4 objs/tSemaphore_rProcessor1Migratable_tecsgen.o
                0x00000000001008a4                tSemaphore_CB_initialize
 .text          0x00000000001008a8        0x4 objs/tInterruptRequest_rProcessor1Migratable_tecsgen.o
                0x00000000001008a8                tInterruptRequest_CB_initialize
 .text          0x00000000001008ac        0x4 objs/tISR_rProcessor1Migratable_tecsgen.o
                0x00000000001008ac                tISR_CB_initialize
 .text          0x00000000001008b0        0x4 objs/tTerminateRoutine_rProcessor1Migratable_tecsgen.o
                0x00000000001008b0                tTerminateRoutine_CB_initialize
 .text          0x00000000001008b4       0x50 objs/tSerialPortMain_rProcessor1Migratable_tecsgen.o
                0x00000000001008b4                tSerialPortMain_eSerialPort_open_skel
                0x00000000001008bc                tSerialPortMain_eSerialPort_close_skel
                0x00000000001008c4                tSerialPortMain_eSerialPort_read_skel
                0x00000000001008cc                tSerialPortMain_eSerialPort_write_skel
                0x00000000001008d4                tSerialPortMain_eSerialPort_control_skel
                0x00000000001008dc                tSerialPortMain_eSerialPort_refer_skel
                0x00000000001008e4                tSerialPortMain_CB_initialize
 .text          0x0000000000100904        0x4 objs/tSerialAdapter_rProcessor1Migratable_tecsgen.o
                0x0000000000100904                tSerialAdapter_CB_initialize
 .text          0x0000000000100908       0x38 objs/tSysLog_rProcessor1Migratable_tecsgen.o
                0x0000000000100908                tSysLog_CB_initialize
 .text          0x0000000000100940        0x4 objs/tSysLogAdapter_rProcessor1Migratable_tecsgen.o
                0x0000000000100940                tSysLogAdapter_CB_initialize
 .text          0x0000000000100944        0x8 objs/tLogTaskMain_rProcessor1Migratable_tecsgen.o
                0x0000000000100944                tLogTaskMain_eLogTaskTerminate_main_skel
                0x0000000000100948                tLogTaskMain_CB_initialize
 .text          0x000000000010094c        0x4 objs/tPutLogZyboZ7_rProcessor1Migratable_tecsgen.o
                0x000000000010094c                tPutLogZyboZ7_CB_initialize
 .text          0x0000000000100950       0x20 objs/tXUartPs_rProcessor1Migratable_tecsgen.o
                0x0000000000100950                tXUartPs_eTerminate_main_skel
                0x0000000000100958                tXUartPs_CB_initialize
 .text          0x0000000000100970        0x4 objs/tSIOPortZyboZ7Main_rProcessor1Migratable_tecsgen.o
                0x0000000000100970                tSIOPortZyboZ7Main_CB_initialize
 .text          0x0000000000100974        0x4 objs/tTask.o
                0x0000000000100974                tTask_start
 .text          0x0000000000100978        0x0 objs/tInterruptRequest.o
 .text          0x0000000000100978        0xc objs/tISR.o
                0x0000000000100978                tISR_start
 .text          0x0000000000100984       0x10 objs/tTerminateRoutine.o
                0x0000000000100984                tTerminateRoutine_start
 .text          0x0000000000100994      0x9e8 objs/tSerialPortMain.o
                0x0000000000100abc                tSerialPortMain_eSerialPort_open
                0x0000000000100ba0                tSerialPortMain_eSerialPort_close
                0x0000000000100c78                tSerialPortMain_eSerialPort_write
                0x0000000000100d84                tSerialPortMain_eSerialPort_read
                0x0000000000100fb8                tSerialPortMain_eSerialPort_control
                0x0000000000101008                tSerialPortMain_eSerialPort_refer
                0x0000000000101060                tSerialPortMain_eiSIOCBR_readySend
                0x000000000010112c                tSerialPortMain_eiSIOCBR_readyReceive
                0x0000000000101318                tSerialPortMain_enSerialPortManage_getChar
 .text          0x000000000010137c      0x258 objs/tSerialAdapter.o
                0x000000000010137c                serial_opn_por
                0x00000000001013d8                serial_cls_por
                0x0000000000101434                serial_rea_dat
                0x00000000001014a0                serial_wri_dat
                0x000000000010150c                serial_ctl_por
                0x0000000000101570                serial_ref_por
 .text          0x00000000001015d4      0x2cc objs/tSysLog.o
                0x00000000001015d8                tSysLog_eSysLog_write
                0x00000000001016f0                tSysLog_eSysLog_read
                0x0000000000101790                tSysLog_eSysLog_mask
                0x00000000001017c0                tSysLog_eSysLog_refer
                0x000000000010180c                tSysLog_eSysLog_flush
 .text          0x00000000001018a0       0x14 objs/tSysLogAdapter.o
                0x00000000001018a0                syslog_wri_log
                0x00000000001018a4                syslog_rea_log
                0x00000000001018a8                syslog_msk_log
                0x00000000001018ac                syslog_ref_log
                0x00000000001018b0                syslog_fls_log
 .text          0x00000000001018b4      0x21c objs/tLogTaskMain.o
                0x00000000001018b4                target_fput_log
                0x00000000001018e4                tLogTaskMain_eLogTask_flush
                0x0000000000101990                tLogTaskMain_eLogTaskBody_main
                0x0000000000101a10                tLogTaskMain_eLogTaskTerminate_main
 .text          0x0000000000101ad0       0x74 objs/tPutLogZyboZ7.o
                0x0000000000101ad0                tPutLogZyboZ7_initialize
                0x0000000000101af4                tPutLogZyboZ7_ePutLog_putChar
 .text          0x0000000000101b44      0x1f4 objs/tXUartPs.o
                0x0000000000101b44                tXUartPs_eTerminate_main
                0x0000000000101b84                tXUartPs_eSIOPort_open
                0x0000000000101bec                tXUartPs_eSIOPort_close
                0x0000000000101c1c                tXUartPs_eSIOPort_putChar
                0x0000000000101c3c                tXUartPs_eSIOPort_getChar
                0x0000000000101c5c                tXUartPs_eSIOPort_enableCBR
                0x0000000000101c90                tXUartPs_eSIOPort_disableCBR
                0x0000000000101cc4                tXUartPs_eiISR_main
 .text          0x0000000000101d38       0x3c objs/init_tecs.o
                0x0000000000101d38                initialize_tecs
 .text          0x0000000000101d74       0x74 objs/kernel_cfg.o
                0x0000000000101d74                _kernel_inthdr_82
                0x0000000000101db8                _kernel_initialize_object
 .text          0x0000000000101de8        0x0 ./gen/../tecsrust_uart_led_sample/target/armv7a-none-eabi/release/libitron.a(itron-45c5fd98eb955c4a.itron.9d87066d26af0b75-cgu.0.rcgu.o)
 .text          0x0000000000101de8        0x0 ./gen/../tecsrust_uart_led_sample/target/armv7a-none-eabi/release/libitron.a(itron-fbcb73bf0b635dd5.itron.68e737fdf62a80e5-cgu.0.rcgu.o)
 .text          0x0000000000101de8        0x0 ./gen/../tecsrust_uart_led_sample/target/armv7a-none-eabi/release/libitron.a(core-d049573bc16596f9.core.5587a85061e7188a-cgu.0.rcgu.o)
 .text          0x0000000000101de8        0x0 ./gen/../tecsrust_uart_led_sample/target/armv7a-none-eabi/release/libitron.a(compiler_builtins-70f608aea3cde50d.compiler_builtins.5a681add74c93a61-cgu.162.rcgu.o)
 .text          0x0000000000101de8        0x0 ./gen/../tecsrust_uart_led_sample/target/armv7a-none-eabi/release/libitron.a(compiler_builtins-70f608aea3cde50d.compiler_builtins.5a681add74c93a61-cgu.174.rcgu.o)
 .text          0x0000000000101de8        0x0 ./gen/../tecsrust_uart_led_sample/target/armv7a-none-eabi/release/libitron.a(compiler_builtins-70f608aea3cde50d.compiler_builtins.5a681add74c93a61-cgu.178.rcgu.o)
 .text          0x0000000000101de8        0x0 ./gen/../tecsrust_uart_led_sample/target/armv7a-none-eabi/release/libitron.a(compiler_builtins-70f608aea3cde50d.compiler_builtins.5a681add74c93a61-cgu.180.rcgu.o)
 .text          0x0000000000101de8        0x0 ./gen/../tecsrust_uart_led_sample/target/armv7a-none-eabi/release/libitron.a(compiler_builtins-70f608aea3cde50d.compiler_builtins.5a681add74c93a61-cgu.201.rcgu.o)
 .text          0x0000000000101de8        0x0 ./gen/../tecsrust_uart_led_sample/target/armv7a-none-eabi/release/libitron.a(compiler_builtins-70f608aea3cde50d.compiler_builtins.5a681add74c93a61-cgu.206.rcgu.o)
 .text          0x0000000000101de8        0x0 ./gen/../tecsrust_uart_led_sample/target/armv7a-none-eabi/release/libitron.a(compiler_builtins-70f608aea3cde50d.compiler_builtins.5a681add74c93a61-cgu.210.rcgu.o)
 .text          0x0000000000101de8        0x0 ./gen/../tecsrust_uart_led_sample/target/armv7a-none-eabi/release/libitron.a(compiler_builtins-70f608aea3cde50d.compiler_builtins.5a681add74c93a61-cgu.223.rcgu.o)
 .text          0x0000000000101de8        0x0 ./gen/../tecsrust_uart_led_sample/target/armv7a-none-eabi/release/libitron.a(compiler_builtins-70f608aea3cde50d.compiler_builtins.5a681add74c93a61-cgu.253.rcgu.o)
 .text          0x0000000000101de8        0x0 ./gen/../tecsrust_uart_led_sample/target/armv7a-none-eabi/release/libitron.a(compiler_builtins-70f608aea3cde50d.compiler_builtins.5a681add74c93a61-cgu.261.rcgu.o)
 .text          0x0000000000101de8        0x0 ./gen/../tecsrust_uart_led_sample/target/armv7a-none-eabi/release/libitron.a(compiler_builtins-70f608aea3cde50d.compiler_builtins.5a681add74c93a61-cgu.263.rcgu.o)
 .text          0x0000000000101de8        0x0 ./gen/../tecsrust_uart_led_sample/target/armv7a-none-eabi/release/libitron.a(compiler_builtins-70f608aea3cde50d.compiler_builtins.5a681add74c93a61-cgu.270.rcgu.o)
 .text          0x0000000000101de8        0x0 ./gen/../tecsrust_uart_led_sample/target/armv7a-none-eabi/release/libitron.a(compiler_builtins-70f608aea3cde50d.compiler_builtins.5a681add74c93a61-cgu.283.rcgu.o)
 .text          0x0000000000101de8        0x0 ./gen/../tecsrust_uart_led_sample/target/armv7a-none-eabi/release/libitron.a(compiler_builtins-70f608aea3cde50d.compiler_builtins.5a681add74c93a61-cgu.287.rcgu.o)
 .text          0x0000000000101de8        0x0 ./gen/../tecsrust_uart_led_sample/target/armv7a-none-eabi/release/libitron.a(compiler_builtins-70f608aea3cde50d.compiler_builtins.5a681add74c93a61-cgu.300.rcgu.o)
 .text          0x0000000000101de8        0x0 ./gen/../tecsrust_uart_led_sample/target/armv7a-none-eabi/release/libitron.a(compiler_builtins-70f608aea3cde50d.compiler_builtins.5a681add74c93a61-cgu.310.rcgu.o)
 .text          0x0000000000101de8        0x0 ./gen/../tecsrust_uart_led_sample/target/armv7a-none-eabi/release/libitron.a(compiler_builtins-70f608aea3cde50d.compiler_builtins.5a681add74c93a61-cgu.355.rcgu.o)
 .text          0x0000000000101de8        0x0 ./gen/../tecsrust_uart_led_sample/target/armv7a-none-eabi/release/libitron.a(compiler_builtins-70f608aea3cde50d.compiler_builtins.5a681add74c93a61-cgu.361.rcgu.o)
 .text          0x0000000000101de8        0x0 ./gen/../tecsrust_uart_led_sample/target/armv7a-none-eabi/release/libitron.a(compiler_builtins-70f608aea3cde50d.compiler_builtins.5a681add74c93a61-cgu.365.rcgu.o)
 .text          0x0000000000101de8        0x0 ./gen/../tecsrust_uart_led_sample/target/armv7a-none-eabi/release/libitron.a(compiler_builtins-70f608aea3cde50d.compiler_builtins.5a681add74c93a61-cgu.375.rcgu.o)
 .text          0x0000000000101de8        0x0 ./gen/../tecsrust_uart_led_sample/target/armv7a-none-eabi/release/libitron.a(compiler_builtins-70f608aea3cde50d.compiler_builtins.5a681add74c93a61-cgu.393.rcgu.o)
 .text          0x0000000000101de8        0x0 ./gen/../tecsrust_uart_led_sample/target/armv7a-none-eabi/release/libitron.a(compiler_builtins-70f608aea3cde50d.compiler_builtins.5a681add74c93a61-cgu.395.rcgu.o)
 .text          0x0000000000101de8        0x0 ./gen/../tecsrust_uart_led_sample/target/armv7a-none-eabi/release/libitron.a(compiler_builtins-70f608aea3cde50d.compiler_builtins.5a681add74c93a61-cgu.410.rcgu.o)
 .text          0x0000000000101de8        0x0 ./gen/../tecsrust_uart_led_sample/target/armv7a-none-eabi/release/libitron.a(compiler_builtins-70f608aea3cde50d.compiler_builtins.5a681add74c93a61-cgu.411.rcgu.o)
 .text          0x0000000000101de8      0x1e0 ./gen/../tecsrust_uart_led_sample/target/armv7a-none-eabi/release/libitron.a(63f8a0b8a638da8c-udivmodsi4.o)
                0x0000000000101de8                __udivmodsi4
 .text          0x0000000000101fc8      0x1d0 ./gen/../tecsrust_uart_led_sample/target/armv7a-none-eabi/release/libitron.a(63f8a0b8a638da8c-udivsi3.o)
                0x0000000000101fc8                __udivsi3
                0x0000000000101fc8                __aeabi_uidiv
 .text          0x0000000000102198        0x0 ./gen/../tecsrust_uart_led_sample/target/armv7a-none-eabi/release/libitron.a(compiler_builtins-70f608aea3cde50d.compiler_builtins.5a681add74c93a61-cgu.000.rcgu.o)
 .text          0x0000000000102198        0x0 ./gen/../tecsrust_uart_led_sample/target/armv7a-none-eabi/release/libitron.a(compiler_builtins-70f608aea3cde50d.compiler_builtins.5a681add74c93a61-cgu.004.rcgu.o)
 .text          0x0000000000102198        0x0 ./gen/../tecsrust_uart_led_sample/target/armv7a-none-eabi/release/libitron.a(compiler_builtins-70f608aea3cde50d.compiler_builtins.5a681add74c93a61-cgu.009.rcgu.o)
 .text          0x0000000000102198        0x0 ./gen/../tecsrust_uart_led_sample/target/armv7a-none-eabi/release/libitron.a(compiler_builtins-70f608aea3cde50d.compiler_builtins.5a681add74c93a61-cgu.019.rcgu.o)
 .text          0x0000000000102198        0x0 ./gen/../tecsrust_uart_led_sample/target/armv7a-none-eabi/release/libitron.a(compiler_builtins-70f608aea3cde50d.compiler_builtins.5a681add74c93a61-cgu.347.rcgu.o)
 .text          0x0000000000102198        0x0 ./gen/../tecsrust_uart_led_sample/target/armv7a-none-eabi/release/libitron.a(63f8a0b8a638da8c-aeabi_div0.o)
 .text          0x0000000000102198        0x0 ./gen/../tecsrust_uart_led_sample/target/armv7a-none-eabi/release/libitron.a(compiler_builtins-70f608aea3cde50d.compiler_builtins.5a681add74c93a61-cgu.010.rcgu.o)
 .text          0x0000000000102198       0x80 ./libkernel.a(target_kernel_impl.o)
                0x0000000000102198                hardware_init_hook
                0x00000000001021a8                _kernel_target_mprc_initialize
                0x00000000001021cc                _kernel_target_initialize
                0x00000000001021e8                _kernel_target_exit
 .text          0x0000000000102218       0x34 ./libkernel.a(chip_kernel_impl.o)
                0x0000000000102218                _kernel_chip_initialize
                0x0000000000102248                _kernel_chip_terminate
 .text          0x000000000010224c       0x9c ./libkernel.a(mpcore_kernel_impl.o)
                0x000000000010224c                _kernel_mpcore_mprc_initialize
                0x0000000000102280                _kernel_mpcore_initialize
                0x00000000001022d4                _kernel_mpcore_terminate
 .text          0x00000000001022e8      0x340 ./libkernel.a(gic_kernel_impl.o)
                0x00000000001022e8                _kernel_gicc_initialize
                0x000000000010231c                _kernel_gicc_terminate
                0x0000000000102330                _kernel_gicd_initialize
                0x00000000001023c8                _kernel_gicd_terminate
                0x00000000001023dc                _kernel_initialize_interrupt
 .text          0x0000000000102628      0x12c ./libkernel.a(pl310.o)
                0x0000000000102628                _kernel_pl310_initialize
                0x000000000010269c                _kernel_pl310_disable
                0x00000000001026dc                _kernel_pl310_invalidate_all
                0x0000000000102718                _kernel_pl310_clean_and_invalidate_all
 .text          0x0000000000102754       0x90 ./libkernel.a(mpcore_timer.o)
                0x0000000000102754                _kernel_target_hrt_initialize
                0x000000000010279c                _kernel_target_hrt_terminate
                0x00000000001027d0                _kernel_target_hrt_handler
 .text          0x00000000001027e4      0x4f4 ./libkernel.a(core_kernel_impl.o)
                0x00000000001027e4                _kernel_arm_mmu_initialize
                0x00000000001029cc                _kernel_core_initialize
                0x0000000000102a2c                _kernel_core_terminate
                0x0000000000102a30                _kernel_xlog_sys
                0x0000000000102aec                _kernel_xlog_fsr
                0x0000000000102b6c                _kernel_default_int_handler
                0x0000000000102ba0                _kernel_default_exc_handler
 .text          0x0000000000102cd8      0x1b8 ./libkernel.a(arm.o)
                0x0000000000102cd8                arm_enable_icache
                0x0000000000102cf4                arm_disable_icache
                0x0000000000102d0c                armv7_invalidate_dcache
                0x0000000000102db0                arm_enable_dcache
                0x0000000000102dd0                armv7_clean_and_invalidate_dcache
                0x0000000000102e74                arm_disable_dcache
 .text          0x0000000000102e90      0x3a8 ./libkernel.a(startup.o)
                0x0000000000102f08                _kernel_barrier_sync
                0x0000000000102f7c                sta_ker
                0x0000000000103094                ext_ker
                0x00000000001030fc                _kernel_exit_kernel
                0x000000000010317c                _kernel_ext_ker_handler
 .text          0x0000000000103238      0x9c8 ./libkernel.a(task.o)
                0x0000000000103238                _kernel_search_schedtsk
                0x000000000010324c                _kernel_make_runnable
                0x0000000000103384                _kernel_initialize_task
                0x0000000000103498                _kernel_make_non_runnable
                0x00000000001035bc                _kernel_make_dormant
                0x00000000001035e8                _kernel_make_active
                0x0000000000103614                _kernel_change_priority
                0x00000000001038b0                _kernel_change_subprio
                0x00000000001039a0                _kernel_rotate_ready_queue
                0x0000000000103a84                _kernel_task_terminate
                0x0000000000103bb0                _kernel_migrate_self
                0x0000000000103bd8                _kernel_migrate_activate_self
 .text          0x0000000000103c00        0x0 ./libkernel.a(taskhook.o)
 .text          0x0000000000103c00      0x650 ./libkernel.a(wait.o)
                0x0000000000103c00                _kernel_wait_tmout
                0x0000000000103d50                _kernel_make_wait_tmout
                0x0000000000103e0c                _kernel_wait_dequeue_wobj
                0x0000000000103e28                _kernel_wait_complete
                0x0000000000103ecc                _kernel_wait_tmout_ok
                0x0000000000104008                _kernel_wobj_make_wait
                0x00000000001040b0                _kernel_wobj_make_wait_tmout
                0x000000000010413c                _kernel_init_wait_queue
 .text          0x0000000000104250      0xaf8 ./libkernel.a(time_event.o)
                0x0000000000104250                _kernel_initialize_tmevt
                0x00000000001042fc                _kernel_tmevt_up
                0x000000000010435c                _kernel_tmevt_down
                0x0000000000104400                _kernel_update_current_evttim
                0x0000000000104488                _kernel_set_hrt_event
                0x0000000000104658                _kernel_set_hrt_event_handler
                0x000000000010475c                _kernel_tmevtb_register
                0x00000000001047f4                _kernel_tmevtb_enqueue
                0x00000000001048a8                _kernel_tmevtb_enqueue_reltim
                0x000000000010497c                _kernel_tmevtb_dequeue
                0x0000000000104a84                _kernel_check_adjtim
                0x0000000000104b14                _kernel_tmevt_lefttim
                0x0000000000104b4c                _kernel_signal_time
 .text          0x0000000000104d48      0xb30 ./libkernel.a(task_sync.o)
                0x0000000000104d48                slp_tsk
                0x0000000000104e94                tslp_tsk
                0x0000000000104ff4                wup_tsk
                0x0000000000105160                can_wup
                0x0000000000105264                rel_wai
                0x000000000010542c                sus_tsk
                0x00000000001055b8                rsm_tsk
                0x0000000000105704                dly_tsk
 .text          0x0000000000105878      0x87c ./libkernel.a(semaphore.o)
                0x0000000000105878                _kernel_initialize_semaphore
                0x00000000001058d4                sig_sem
                0x0000000000105a7c                wai_sem
                0x0000000000105bdc                pol_sem
                0x0000000000105cd0                twai_sem
                0x0000000000105e6c                ini_sem
                0x0000000000105f94                ref_sem
 .text          0x00000000001060f4     0x1204 ./libkernel.a(dataqueue.o)
                0x00000000001060f4                _kernel_initialize_dataqueue
                0x0000000000106168                _kernel_enqueue_data
                0x00000000001061a0                _kernel_force_enqueue_data
                0x00000000001061e0                _kernel_dequeue_data
                0x000000000010621c                _kernel_send_data
                0x00000000001062e0                _kernel_force_send_data
                0x00000000001063a0                _kernel_receive_data
                0x0000000000106508                snd_dtq
                0x00000000001066a0                psnd_dtq
                0x00000000001067d4                tsnd_dtq
                0x00000000001069ac                fsnd_dtq
                0x0000000000106ae8                rcv_dtq
                0x0000000000106cc4                prcv_dtq
                0x0000000000106df8                trcv_dtq
                0x0000000000106fe8                ini_dtq
                0x000000000010711c                ref_dtq
 .text          0x00000000001072f8      0xd70 ./libkernel.a(mutex.o)
                0x00000000001072f8                _kernel_mutex_scan_ceilmtx
                0x0000000000107330                _kernel_mutex_check_ceilpri
                0x00000000001073b8                _kernel_initialize_mutex
                0x0000000000107450                _kernel_mutex_drop_priority
                0x00000000001074c8                _kernel_mutex_acquire
                0x0000000000107504                _kernel_mutex_release
                0x0000000000107650                _kernel_mutex_release_all
                0x0000000000107688                loc_mtx
                0x0000000000107874                ploc_mtx
                0x00000000001079f0                tloc_mtx
                0x0000000000107c14                unl_mtx
                0x0000000000107d60                ini_mtx
                0x0000000000107ee8                ref_mtx
 .text          0x0000000000108068      0x318 ./libkernel.a(spin_lock.o)
                0x0000000000108068                _kernel_initialize_spin_lock
                0x00000000001080b0                _kernel_force_unlock_spin
                0x00000000001080dc                loc_spn
                0x000000000010819c                try_spn
                0x0000000000108240                unl_spn
                0x00000000001082f0                ref_spn
 .text          0x0000000000108380      0xb50 ./libkernel.a(sys_manage.o)
                0x0000000000108380                rot_rdq
                0x00000000001084b4                mrot_rdq
                0x0000000000108604                get_tid
                0x000000000010866c                get_pid
                0x0000000000108694                get_lod
                0x00000000001087a0                mget_lod
                0x00000000001088c4                get_nth
                0x00000000001089fc                mget_nth
                0x0000000000108b4c                loc_cpu
                0x0000000000108b64                unl_cpu
                0x0000000000108b94                dis_dsp
                0x0000000000108c64                ena_dsp
                0x0000000000108dc8                sns_ctx
                0x0000000000108df8                sns_loc
                0x0000000000108e04                sns_dsp
                0x0000000000108e34                sns_dpn
                0x0000000000108e90                sns_ker
 .text          0x0000000000108ed0      0x668 ./libkernel.a(interrupt.o)
                0x0000000000108ed0                dis_int
                0x0000000000108fa4                ena_int
                0x0000000000109078                clr_int
                0x000000000010914c                ras_int
                0x0000000000109270                prb_int
                0x0000000000109328                chg_ipm
                0x00000000001094d0                get_ipm
 .text          0x0000000000109538      0x3dc ./libkernel.a(core_support.o)
                0x0000000000109538                _kernel_dispatch
                0x0000000000109564                _kernel_start_dispatch
                0x000000000010957c                _kernel_exit_and_dispatch
                0x00000000001095ac                _kernel_call_exit_kernel
                0x00000000001095bc                _kernel_dispatch_and_migrate
                0x00000000001095d8                _kernel_exit_and_migrate
                0x00000000001095e0                _kernel_start_r
                0x00000000001095f8                _kernel_irq_handler
                0x00000000001096e4                _kernel_undef_handler
                0x00000000001096f8                _kernel_svc_handler
                0x0000000000109708                _kernel_pabort_handler
                0x000000000010971c                _kernel_dabort_handler
                0x000000000010977c                _kernel_fiq_handler
                0x00000000001098e8                sil_dly_nse
 .text          0x0000000000109914      0x644 ./libkernel.a(task_term.o)
                0x0000000000109914                ext_tsk
                0x0000000000109a38                ras_ter
                0x0000000000109c00                dis_ter
                0x0000000000109cb8                ena_ter
                0x0000000000109dd0                sns_ter
                0x0000000000109e0c                ter_tsk
 .text          0x0000000000109f58       0x8c ./libkernel.a(gic_support.o)
                0x0000000000109f58                _kernel_irc_begin_int
                0x0000000000109f90                _kernel_irc_end_int
                0x0000000000109fa0                _kernel_irc_get_intpri
                0x0000000000109fb4                _kernel_irc_begin_exc
                0x0000000000109fc4                _kernel_irc_end_exc
 .text          0x0000000000109fe4       0xa4 /usr/lib/gcc/arm-none-eabi/10.3.1/../../../arm-none-eabi/lib/thumb/v7-a/nofp/libc.a(lib_a-memset.o)
                0x0000000000109fe4                memset
 *(.text.*)
 .text._ZN68_$LT$itron..error..Error$LT$Kind$GT$$u20$as$u20$core..fmt..Debug$GT$3fmt17hbf27c1f9f33347bfE
                0x000000000010a088        0x4 ./gen/../tecsrust_uart_led_sample/target/armv7a-none-eabi/release/libitron.a(itron-45c5fd98eb955c4a.itron.9d87066d26af0b75-cgu.0.rcgu.o)
 .text._RNvCsgYTF1aGAkck_7___rustc17rust_begin_unwind
                0x000000000010a08c        0x4 ./gen/../tecsrust_uart_led_sample/target/armv7a-none-eabi/release/libitron.a(itron-45c5fd98eb955c4a.itron.9d87066d26af0b75-cgu.0.rcgu.o)
                0x000000000010a08c                __rustc::rust_begin_unwind
 .text.tecs_rust_start_r_processor1_symmetric_uart_task
                0x000000000010a090      0x158 ./gen/../tecsrust_uart_led_sample/target/armv7a-none-eabi/release/libitron.a(itron-45c5fd98eb955c4a.itron.9d87066d26af0b75-cgu.0.rcgu.o)
                0x000000000010a090                tecs_rust_start_r_processor1_symmetric_uart_task
 .text.tecs_rust_start_r_processor2_symmetric_button_task
                0x000000000010a1e8      0x200 ./gen/../tecsrust_uart_led_sample/target/armv7a-none-eabi/release/libitron.a(itron-45c5fd98eb955c4a.itron.9d87066d26af0b75-cgu.0.rcgu.o)
                0x000000000010a1e8                tecs_rust_start_r_processor2_symmetric_button_task
 .text.tecs_rust_start_r_processor1_symmetric_uart_isr
                0x000000000010a3e8       0x54 ./gen/../tecsrust_uart_led_sample/target/armv7a-none-eabi/release/libitron.a(itron-45c5fd98eb955c4a.itron.9d87066d26af0b75-cgu.0.rcgu.o)
                0x000000000010a3e8                tecs_rust_start_r_processor1_symmetric_uart_isr
 .text.tecs_rust_start_r_processor1_symmetric_uart_ini
                0x000000000010a43c        0x4 ./gen/../tecsrust_uart_led_sample/target/armv7a-none-eabi/release/libitron.a(itron-45c5fd98eb955c4a.itron.9d87066d26af0b75-cgu.0.rcgu.o)
                0x000000000010a43c                tecs_rust_start_r_processor1_symmetric_uart_ini
 .text._ZN4core3fmt3num50_$LT$impl$u20$core..fmt..Debug$u20$for$u20$i32$GT$3fmt17h7a0e08473eadbc5bE
                0x000000000010a440       0x20 ./gen/../tecsrust_uart_led_sample/target/armv7a-none-eabi/release/libitron.a(itron-fbcb73bf0b635dd5.itron.68e737fdf62a80e5-cgu.0.rcgu.o)
 .text._ZN75_$LT$core..num..nonzero..NonZero$LT$T$GT$$u20$as$u20$core..fmt..Display$GT$3fmt17h850f84802fa3eaddE
                0x000000000010a460       0x20 ./gen/../tecsrust_uart_led_sample/target/armv7a-none-eabi/release/libitron.a(itron-fbcb73bf0b635dd5.itron.68e737fdf62a80e5-cgu.0.rcgu.o)
 .text._ZN60_$LT$itron..error..ErrorCode$u20$as$u20$core..fmt..Debug$GT$3fmt17hf3b2cd5bb64ff3e9E
                0x000000000010a480      0x2c4 ./gen/../tecsrust_uart_led_sample/target/armv7a-none-eabi/release/libitron.a(itron-fbcb73bf0b635dd5.itron.68e737fdf62a80e5-cgu.0.rcgu.o)
                0x000000000010a480                <itron::error::ErrorCode as core::fmt::Debug>::fmt
 .text._ZN67_$LT$itron..dataqueue..DataqueueRef$u20$as$u20$core..fmt..Debug$GT$3fmt17h5b31219d7835aa6dE
                0x000000000010a744       0x58 ./gen/../tecsrust_uart_led_sample/target/armv7a-none-eabi/release/libitron.a(itron-fbcb73bf0b635dd5.itron.68e737fdf62a80e5-cgu.0.rcgu.o)
                0x000000000010a744                <itron::dataqueue::DataqueueRef as core::fmt::Debug>::fmt
 .text._ZN69_$LT$itron..memorypool..MemoryPoolRef$u20$as$u20$core..fmt..Debug$GT$3fmt17h802347f6fdaf37b2E
                0x000000000010a79c       0x58 ./gen/../tecsrust_uart_led_sample/target/armv7a-none-eabi/release/libitron.a(itron-fbcb73bf0b635dd5.itron.68e737fdf62a80e5-cgu.0.rcgu.o)
                0x000000000010a79c                <itron::memorypool::MemoryPoolRef as core::fmt::Debug>::fmt
 .text._ZN59_$LT$itron..mutex..MutexRef$u20$as$u20$core..fmt..Debug$GT$3fmt17h6a8d309fd5365a8bE
                0x000000000010a7f4       0x58 ./gen/../tecsrust_uart_led_sample/target/armv7a-none-eabi/release/libitron.a(itron-fbcb73bf0b635dd5.itron.68e737fdf62a80e5-cgu.0.rcgu.o)
                0x000000000010a7f4                <itron::mutex::MutexRef as core::fmt::Debug>::fmt
 .text._ZN64_$LT$itron..processor..Processor$u20$as$u20$core..fmt..Debug$GT$3fmt17hc75d9d03a1c196fbE
                0x000000000010a84c       0x64 ./gen/../tecsrust_uart_led_sample/target/armv7a-none-eabi/release/libitron.a(itron-fbcb73bf0b635dd5.itron.68e737fdf62a80e5-cgu.0.rcgu.o)
                0x000000000010a84c                <itron::processor::Processor as core::fmt::Debug>::fmt
 .text._ZN67_$LT$itron..semaphore..SemaphoreRef$u20$as$u20$core..fmt..Debug$GT$3fmt17haf2e3079afc34cfaE
                0x000000000010a8b0       0x58 ./gen/../tecsrust_uart_led_sample/target/armv7a-none-eabi/release/libitron.a(itron-fbcb73bf0b635dd5.itron.68e737fdf62a80e5-cgu.0.rcgu.o)
                0x000000000010a8b0                <itron::semaphore::SemaphoreRef as core::fmt::Debug>::fmt
 .text._ZN57_$LT$itron..task..TaskRef$u20$as$u20$core..fmt..Debug$GT$3fmt17h29082a565a1f7a0fE
                0x000000000010a908       0x58 ./gen/../tecsrust_uart_led_sample/target/armv7a-none-eabi/release/libitron.a(itron-fbcb73bf0b635dd5.itron.68e737fdf62a80e5-cgu.0.rcgu.o)
                0x000000000010a908                <itron::task::TaskRef as core::fmt::Debug>::fmt
 .text._ZN5itron4task7current17he5bb96fe6f36c460E
                0x000000000010a960       0x4c ./gen/../tecsrust_uart_led_sample/target/armv7a-none-eabi/release/libitron.a(itron-fbcb73bf0b635dd5.itron.68e737fdf62a80e5-cgu.0.rcgu.o)
                0x000000000010a960                itron::task::current
 .text._ZN4core3num7dec2flt11decimal_seq10DecimalSeq4trim17h5efee5ea5ccf409eE
                0x000000000010a9ac       0x58 ./gen/../tecsrust_uart_led_sample/target/armv7a-none-eabi/release/libitron.a(core-d049573bc16596f9.core.5587a85061e7188a-cgu.0.rcgu.o)
                0x000000000010a9ac                core::num::dec2flt::decimal_seq::DecimalSeq::trim
 .text._ZN4core3num7dec2flt11decimal_seq10DecimalSeq5round17h25fcaa510171f10cE
                0x000000000010aa04       0xf0 ./gen/../tecsrust_uart_led_sample/target/armv7a-none-eabi/release/libitron.a(core-d049573bc16596f9.core.5587a85061e7188a-cgu.0.rcgu.o)
                0x000000000010aa04                core::num::dec2flt::decimal_seq::DecimalSeq::round
 .text._ZN4core3num7dec2flt11decimal_seq10DecimalSeq10left_shift17hc6cf7434fa18fb28E
                0x000000000010aaf4      0x310 ./gen/../tecsrust_uart_led_sample/target/armv7a-none-eabi/release/libitron.a(core-d049573bc16596f9.core.5587a85061e7188a-cgu.0.rcgu.o)
                0x000000000010aaf4                core::num::dec2flt::decimal_seq::DecimalSeq::left_shift
 .text._ZN4core3num7dec2flt11decimal_seq10DecimalSeq11right_shift17hb4403252d794ad85E
                0x000000000010ae04      0x2c8 ./gen/../tecsrust_uart_led_sample/target/armv7a-none-eabi/release/libitron.a(core-d049573bc16596f9.core.5587a85061e7188a-cgu.0.rcgu.o)
                0x000000000010ae04                core::num::dec2flt::decimal_seq::DecimalSeq::right_shift
 .text._ZN4core3num7dec2flt11decimal_seq17parse_decimal_seq17h720ae35c33f1ca0cE
                0x000000000010b0cc      0x4a0 ./gen/../tecsrust_uart_led_sample/target/armv7a-none-eabi/release/libitron.a(core-d049573bc16596f9.core.5587a85061e7188a-cgu.0.rcgu.o)
                0x000000000010b0cc                core::num::dec2flt::decimal_seq::parse_decimal_seq
 .text._ZN59_$LT$f32$u20$as$u20$core..num..dec2flt..float..RawFloat$GT$15pow10_fast_path17h6e48b725f9e4ea17E
                0x000000000010b56c       0x1c ./gen/../tecsrust_uart_led_sample/target/armv7a-none-eabi/release/libitron.a(core-d049573bc16596f9.core.5587a85061e7188a-cgu.0.rcgu.o)
                0x000000000010b56c                <f32 as core::num::dec2flt::float::RawFloat>::pow10_fast_path
 .text._ZN59_$LT$f64$u20$as$u20$core..num..dec2flt..float..RawFloat$GT$15pow10_fast_path17h11f46422e910817bE
                0x000000000010b588       0x20 ./gen/../tecsrust_uart_led_sample/target/armv7a-none-eabi/release/libitron.a(core-d049573bc16596f9.core.5587a85061e7188a-cgu.0.rcgu.o)
                0x000000000010b588                <f64 as core::num::dec2flt::float::RawFloat>::pow10_fast_path
 .text._ZN4core3num7dec2flt6lemire13compute_float17h16a9ae03feeaa31dE
                0x000000000010b5a8      0x28c ./gen/../tecsrust_uart_led_sample/target/armv7a-none-eabi/release/libitron.a(core-d049573bc16596f9.core.5587a85061e7188a-cgu.0.rcgu.o)
 .text._ZN4core3num7dec2flt6lemire13compute_float17h6afe090d7f4e8ea6E
                0x000000000010b834      0x314 ./gen/../tecsrust_uart_led_sample/target/armv7a-none-eabi/release/libitron.a(core-d049573bc16596f9.core.5587a85061e7188a-cgu.0.rcgu.o)
 .text._ZN4core3num7dec2flt6lemire13compute_float17ha99c48ca86bcebfaE
                0x000000000010bb48      0x320 ./gen/../tecsrust_uart_led_sample/target/armv7a-none-eabi/release/libitron.a(core-d049573bc16596f9.core.5587a85061e7188a-cgu.0.rcgu.o)
 .text._ZN4core3num7dec2flt6lemire22compute_product_approx17h46540bfe977aa735E
                0x000000000010be68       0xfc ./gen/../tecsrust_uart_led_sample/target/armv7a-none-eabi/release/libitron.a(core-d049573bc16596f9.core.5587a85061e7188a-cgu.0.rcgu.o)
                0x000000000010be68                core::num::dec2flt::lemire::compute_product_approx
 .text._ZN4core3num7dec2flt5parse12parse_number17hac599539be123f0aE
                0x000000000010bf64      0x680 ./gen/../tecsrust_uart_led_sample/target/armv7a-none-eabi/release/libitron.a(core-d049573bc16596f9.core.5587a85061e7188a-cgu.0.rcgu.o)
                0x000000000010bf64                core::num::dec2flt::parse::parse_number
 .text._ZN74_$LT$core..num..dec2flt..ParseFloatError$u20$as$u20$core..fmt..Display$GT$3fmt17he75ae9ab1989a457E
                0x000000000010c5e4       0x48 ./gen/../tecsrust_uart_led_sample/target/armv7a-none-eabi/release/libitron.a(core-d049573bc16596f9.core.5587a85061e7188a-cgu.0.rcgu.o)
                0x000000000010c5e4                <core::num::dec2flt::ParseFloatError as core::fmt::Display>::fmt
 .text._ZN4core3num9diy_float2Fp3mul17h224020beff8dcf6eE
                0x000000000010c62c       0x58 ./gen/../tecsrust_uart_led_sample/target/armv7a-none-eabi/release/libitron.a(core-d049573bc16596f9.core.5587a85061e7188a-cgu.0.rcgu.o)
                0x000000000010c62c                core::num::diy_float::Fp::mul
 .text._ZN4core3num9diy_float2Fp9normalize17h769495316c3164f0E
                0x000000000010c684       0x4c ./gen/../tecsrust_uart_led_sample/target/armv7a-none-eabi/release/libitron.a(core-d049573bc16596f9.core.5587a85061e7188a-cgu.0.rcgu.o)
                0x000000000010c684                core::num::diy_float::Fp::normalize
 .text._ZN4core3num9diy_float2Fp12normalize_to17h65a8e137fe2a9b34E
                0x000000000010c6d0       0xc8 ./gen/../tecsrust_uart_led_sample/target/armv7a-none-eabi/release/libitron.a(core-d049573bc16596f9.core.5587a85061e7188a-cgu.0.rcgu.o)
                0x000000000010c6d0                core::num::diy_float::Fp::normalize_to
 .text._ZN4core3num7flt2dec9estimator23estimate_scaling_factor17h5aed770e3586ed17E
                0x000000000010c798       0x40 ./gen/../tecsrust_uart_led_sample/target/armv7a-none-eabi/release/libitron.a(core-d049573bc16596f9.core.5587a85061e7188a-cgu.0.rcgu.o)
                0x000000000010c798                core::num::flt2dec::estimator::estimate_scaling_factor
 .text._ZN4core3num7flt2dec8strategy6dragon9mul_pow1017h8de41a198f06ceffE
                0x000000000010c7d8      0x268 ./gen/../tecsrust_uart_led_sample/target/armv7a-none-eabi/release/libitron.a(core-d049573bc16596f9.core.5587a85061e7188a-cgu.0.rcgu.o)
                0x000000000010c7d8                core::num::flt2dec::strategy::dragon::mul_pow10
 .text._ZN4core3num7flt2dec8strategy6dragon15format_shortest17hb5e0ae7b6971114eE
                0x000000000010ca40      0xd24 ./gen/../tecsrust_uart_led_sample/target/armv7a-none-eabi/release/libitron.a(core-d049573bc16596f9.core.5587a85061e7188a-cgu.0.rcgu.o)
                0x000000000010ca40                core::num::flt2dec::strategy::dragon::format_shortest
 .text._ZN4core3num7flt2dec8strategy6dragon12format_exact17h413b0182ae77793eE
                0x000000000010d764      0xb6c ./gen/../tecsrust_uart_led_sample/target/armv7a-none-eabi/release/libitron.a(core-d049573bc16596f9.core.5587a85061e7188a-cgu.0.rcgu.o)
                0x000000000010d764                core::num::flt2dec::strategy::dragon::format_exact
 .text._ZN4core3num7flt2dec8strategy5grisu12cached_power17h40510fc142d30e5bE
                0x000000000010e2d0       0x70 ./gen/../tecsrust_uart_led_sample/target/armv7a-none-eabi/release/libitron.a(core-d049573bc16596f9.core.5587a85061e7188a-cgu.0.rcgu.o)
                0x000000000010e2d0                core::num::flt2dec::strategy::grisu::cached_power
 .text._ZN4core3num7flt2dec8strategy5grisu19format_shortest_opt17ha7dc55675409a111E
                0x000000000010e340      0x9e4 ./gen/../tecsrust_uart_led_sample/target/armv7a-none-eabi/release/libitron.a(core-d049573bc16596f9.core.5587a85061e7188a-cgu.0.rcgu.o)
                0x000000000010e340                core::num::flt2dec::strategy::grisu::format_shortest_opt
 .text._ZN4core3num7flt2dec8strategy5grisu15format_shortest17hcc7bcdc55f306e7cE
                0x000000000010ed24       0x5c ./gen/../tecsrust_uart_led_sample/target/armv7a-none-eabi/release/libitron.a(core-d049573bc16596f9.core.5587a85061e7188a-cgu.0.rcgu.o)
                0x000000000010ed24                core::num::flt2dec::strategy::grisu::format_shortest
 .text._ZN4core3num7flt2dec8strategy5grisu16format_exact_opt17h10c7733a2f424f87E
                0x000000000010ed80      0x580 ./gen/../tecsrust_uart_led_sample/target/armv7a-none-eabi/release/libitron.a(core-d049573bc16596f9.core.5587a85061e7188a-cgu.0.rcgu.o)
                0x000000000010ed80                core::num::flt2dec::strategy::grisu::format_exact_opt
 .text._ZN4core3num7flt2dec8strategy5grisu16format_exact_opt14possibly_round17h324fa6da31e0b7a0E
                0x000000000010f300      0x234 ./gen/../tecsrust_uart_led_sample/target/armv7a-none-eabi/release/libitron.a(core-d049573bc16596f9.core.5587a85061e7188a-cgu.0.rcgu.o)
 .text._ZN4core3num7flt2dec8strategy5grisu12format_exact17h78d277690b9100bfE
                0x000000000010f534       0x6c ./gen/../tecsrust_uart_led_sample/target/armv7a-none-eabi/release/libitron.a(core-d049573bc16596f9.core.5587a85061e7188a-cgu.0.rcgu.o)
                0x000000000010f534                core::num::flt2dec::strategy::grisu::format_exact
 .text._ZN4core3num7flt2dec8round_up17hdfef968791b3b8f1E
                0x000000000010f5a0       0xb8 ./gen/../tecsrust_uart_led_sample/target/armv7a-none-eabi/release/libitron.a(core-d049573bc16596f9.core.5587a85061e7188a-cgu.0.rcgu.o)
                0x000000000010f5a0                core::num::flt2dec::round_up
 .text._ZN4core3num7flt2dec17digits_to_dec_str17h4ef03e8f4c666413E
                0x000000000010f658      0x17c ./gen/../tecsrust_uart_led_sample/target/armv7a-none-eabi/release/libitron.a(core-d049573bc16596f9.core.5587a85061e7188a-cgu.0.rcgu.o)
                0x000000000010f658                core::num::flt2dec::digits_to_dec_str
 .text._ZN4core3num7flt2dec17digits_to_exp_str17hc40222548b9d8bc0E
                0x000000000010f7d4      0x180 ./gen/../tecsrust_uart_led_sample/target/armv7a-none-eabi/release/libitron.a(core-d049573bc16596f9.core.5587a85061e7188a-cgu.0.rcgu.o)
                0x000000000010f7d4                core::num::flt2dec::digits_to_exp_str
 .text._ZN4core3num3fmt4Part5write17h5157de02cd0761b1E
                0x000000000010f954      0x18c ./gen/../tecsrust_uart_led_sample/target/armv7a-none-eabi/release/libitron.a(core-d049573bc16596f9.core.5587a85061e7188a-cgu.0.rcgu.o)
                0x000000000010f954                core::num::fmt::Part::write
 .text._ZN4core3num3fmt9Formatted3len17ha07e1e9353604e1bE
                0x000000000010fae0       0xa4 ./gen/../tecsrust_uart_led_sample/target/armv7a-none-eabi/release/libitron.a(core-d049573bc16596f9.core.5587a85061e7188a-cgu.0.rcgu.o)
                0x000000000010fae0                core::num::fmt::Formatted::len
 .text._ZN4core3num3fmt9Formatted5write17h99ed3f4f2997298bE
                0x000000000010fb84       0xac ./gen/../tecsrust_uart_led_sample/target/armv7a-none-eabi/release/libitron.a(core-d049573bc16596f9.core.5587a85061e7188a-cgu.0.rcgu.o)
                0x000000000010fb84                core::num::fmt::Formatted::write
 .text._ZN72_$LT$core..num..error..TryFromIntError$u20$as$u20$core..fmt..Display$GT$3fmt17hce3ba6a6f2a6094bE
                0x000000000010fc30       0x20 ./gen/../tecsrust_uart_led_sample/target/armv7a-none-eabi/release/libitron.a(core-d049573bc16596f9.core.5587a85061e7188a-cgu.0.rcgu.o)
                0x000000000010fc30                <core::num::error::TryFromIntError as core::fmt::Display>::fmt
 .text._ZN70_$LT$core..num..error..ParseIntError$u20$as$u20$core..fmt..Display$GT$3fmt17hbaea7be47c23092bE
                0x000000000010fc50       0x34 ./gen/../tecsrust_uart_led_sample/target/armv7a-none-eabi/release/libitron.a(core-d049573bc16596f9.core.5587a85061e7188a-cgu.0.rcgu.o)
                0x000000000010fc50                <core::num::error::ParseIntError as core::fmt::Display>::fmt
 .text.unlikely._ZN4core3num9int_log1030panic_for_nonpositive_argument17h1277070ab48dc16bE
                0x000000000010fc84       0x40 ./gen/../tecsrust_uart_led_sample/target/armv7a-none-eabi/release/libitron.a(core-d049573bc16596f9.core.5587a85061e7188a-cgu.0.rcgu.o)
                0x000000000010fc84                core::num::int_log10::panic_for_nonpositive_argument
 .text.unlikely._ZN4core3num8int_sqrt27panic_for_negative_argument17h646ece1cae3b97dbE
                0x000000000010fcc4       0x40 ./gen/../tecsrust_uart_led_sample/target/armv7a-none-eabi/release/libitron.a(core-d049573bc16596f9.core.5587a85061e7188a-cgu.0.rcgu.o)
                0x000000000010fcc4                core::num::int_sqrt::panic_for_negative_argument
 .text.unlikely._ZN4core3num14overflow_panic3add17hf194787efb41c60bE
                0x000000000010fd04       0x40 ./gen/../tecsrust_uart_led_sample/target/armv7a-none-eabi/release/libitron.a(core-d049573bc16596f9.core.5587a85061e7188a-cgu.0.rcgu.o)
                0x000000000010fd04                core::num::overflow_panic::add
 .text.unlikely._ZN4core3num14overflow_panic3sub17he2e76c1521f0700fE
                0x000000000010fd44       0x40 ./gen/../tecsrust_uart_led_sample/target/armv7a-none-eabi/release/libitron.a(core-d049573bc16596f9.core.5587a85061e7188a-cgu.0.rcgu.o)
                0x000000000010fd44                core::num::overflow_panic::sub
 .text.unlikely._ZN4core3num14overflow_panic3mul17h60bfb5e03c5b71e3E
                0x000000000010fd84       0x40 ./gen/../tecsrust_uart_led_sample/target/armv7a-none-eabi/release/libitron.a(core-d049573bc16596f9.core.5587a85061e7188a-cgu.0.rcgu.o)
                0x000000000010fd84                core::num::overflow_panic::mul
 .text.unlikely._ZN4core3num14overflow_panic3div17h31ae6e9c5fc383d9E
                0x000000000010fdc4       0x40 ./gen/../tecsrust_uart_led_sample/target/armv7a-none-eabi/release/libitron.a(core-d049573bc16596f9.core.5587a85061e7188a-cgu.0.rcgu.o)
                0x000000000010fdc4                core::num::overflow_panic::div
 .text.unlikely._ZN4core3num14overflow_panic3rem17h60333cfee06b13cdE
                0x000000000010fe04       0x40 ./gen/../tecsrust_uart_led_sample/target/armv7a-none-eabi/release/libitron.a(core-d049573bc16596f9.core.5587a85061e7188a-cgu.0.rcgu.o)
                0x000000000010fe04                core::num::overflow_panic::rem
 .text.unlikely._ZN4core3num14overflow_panic3neg17h94a197b7d7b20279E
                0x000000000010fe44       0x40 ./gen/../tecsrust_uart_led_sample/target/armv7a-none-eabi/release/libitron.a(core-d049573bc16596f9.core.5587a85061e7188a-cgu.0.rcgu.o)
                0x000000000010fe44                core::num::overflow_panic::neg
 .text.unlikely._ZN4core3num14overflow_panic3shr17h1944cb74e27c390cE
                0x000000000010fe84       0x40 ./gen/../tecsrust_uart_led_sample/target/armv7a-none-eabi/release/libitron.a(core-d049573bc16596f9.core.5587a85061e7188a-cgu.0.rcgu.o)
                0x000000000010fe84                core::num::overflow_panic::shr
 .text.unlikely._ZN4core3num14overflow_panic3shl17hc7ecc243b6763a66E
                0x000000000010fec4       0x40 ./gen/../tecsrust_uart_led_sample/target/armv7a-none-eabi/release/libitron.a(core-d049573bc16596f9.core.5587a85061e7188a-cgu.0.rcgu.o)
                0x000000000010fec4                core::num::overflow_panic::shl
 .text.unlikely._ZN4core3num22from_ascii_radix_panic17h345174f03d72ebe3E
                0x000000000010ff04        0xc ./gen/../tecsrust_uart_led_sample/target/armv7a-none-eabi/release/libitron.a(core-d049573bc16596f9.core.5587a85061e7188a-cgu.0.rcgu.o)
                0x000000000010ff04                core::num::from_ascii_radix_panic
 .text._ZN76_$LT$core..mem..transmutability..Assume$u20$as$u20$core..ops..arith..Sub$GT$3sub17h21ed15b6645713d8E
                0x000000000010ff10       0x48 ./gen/../tecsrust_uart_led_sample/target/armv7a-none-eabi/release/libitron.a(core-d049573bc16596f9.core.5587a85061e7188a-cgu.0.rcgu.o)
                0x000000000010ff10                <core::mem::transmutability::Assume as core::ops::arith::Sub>::sub
 .text._ZN68_$LT$core..ptr..alignment..Alignment$u20$as$u20$core..fmt..Debug$GT$3fmt17hd2f4df9dbd6e2f86E
                0x000000000010ff58       0x88 ./gen/../tecsrust_uart_led_sample/target/armv7a-none-eabi/release/libitron.a(core-d049573bc16596f9.core.5587a85061e7188a-cgu.0.rcgu.o)
                0x000000000010ff58                <core::ptr::alignment::Alignment as core::fmt::Debug>::fmt
 .text._ZN69_$LT$core..ffi..c_str..CStr$u20$as$u20$core..clone..CloneToUninit$GT$15clone_to_uninit17h80a4ef3d92070d94E
                0x000000000010ffe0       0x20 ./gen/../tecsrust_uart_led_sample/target/armv7a-none-eabi/release/libitron.a(core-d049573bc16596f9.core.5587a85061e7188a-cgu.0.rcgu.o)
                0x000000000010ffe0                <core::ffi::c_str::CStr as core::clone::CloneToUninit>::clone_to_uninit
 .text._ZN57_$LT$core..error..Request$u20$as$u20$core..fmt..Debug$GT$3fmt17h5f561f753496d82cE
                0x0000000000110000       0x54 ./gen/../tecsrust_uart_led_sample/target/armv7a-none-eabi/release/libitron.a(core-d049573bc16596f9.core.5587a85061e7188a-cgu.0.rcgu.o)
                0x0000000000110000                <core::error::Request as core::fmt::Debug>::fmt
 .text._ZN78_$LT$core..error..Source$u20$as$u20$core..iter..traits..iterator..Iterator$GT$4next17h4a1fc4a2554e7eceE
                0x0000000000110054       0x4c ./gen/../tecsrust_uart_led_sample/target/armv7a-none-eabi/release/libitron.a(core-d049573bc16596f9.core.5587a85061e7188a-cgu.0.rcgu.o)
                0x0000000000110054                <core::error::Source as core::iter::traits::iterator::Iterator>::next
 .text._ZN64_$LT$core..ops..range..RangeFull$u20$as$u20$core..fmt..Debug$GT$3fmt17h424403ffd1288619E
                0x00000000001100a0       0x24 ./gen/../tecsrust_uart_led_sample/target/armv7a-none-eabi/release/libitron.a(core-d049573bc16596f9.core.5587a85061e7188a-cgu.0.rcgu.o)
                0x00000000001100a0                <core::ops::range::RangeFull as core::fmt::Debug>::fmt
 .text._ZN71_$LT$core..ops..range..Range$LT$Idx$GT$$u20$as$u20$core..fmt..Debug$GT$3fmt17ha953e6102122b0f8E
                0x00000000001100c4      0x1c8 ./gen/../tecsrust_uart_led_sample/target/armv7a-none-eabi/release/libitron.a(core-d049573bc16596f9.core.5587a85061e7188a-cgu.0.rcgu.o)
 .text._ZN105_$LT$dyn$u20$core..any..Any$u2b$core..marker..Sync$u2b$core..marker..Send$u20$as$u20$core..fmt..Debug$GT$3fmt17habd8592b3ad60da5E
                0x000000000011028c       0x54 ./gen/../tecsrust_uart_led_sample/target/armv7a-none-eabi/release/libitron.a(core-d049573bc16596f9.core.5587a85061e7188a-cgu.0.rcgu.o)
                0x000000000011028c                <dyn core::any::Any+core::marker::Send as core::fmt::Debug>::fmt
                0x000000000011028c                <dyn core::any::Any as core::fmt::Debug>::fmt
                0x000000000011028c                <dyn core::any::Any+core::marker::Sync+core::marker::Send as core::fmt::Debug>::fmt
 .text._ZN54_$LT$core..any..TypeId$u20$as$u20$core..fmt..Debug$GT$3fmt17h85ceed27d8f181fdE
                0x00000000001102e0       0x78 ./gen/../tecsrust_uart_led_sample/target/armv7a-none-eabi/release/libitron.a(core-d049573bc16596f9.core.5587a85061e7188a-cgu.0.rcgu.o)
                0x00000000001102e0                <core::any::TypeId as core::fmt::Debug>::fmt
 .text._ZN73_$LT$core..ascii..ascii_char..AsciiChar$u20$as$u20$core..fmt..Display$GT$3fmt17h8431bf4e4f9d1f68E
                0x0000000000110358       0x20 ./gen/../tecsrust_uart_led_sample/target/armv7a-none-eabi/release/libitron.a(core-d049573bc16596f9.core.5587a85061e7188a-cgu.0.rcgu.o)
                0x0000000000110358                <core::ascii::ascii_char::AsciiChar as core::fmt::Display>::fmt
 .text._ZN71_$LT$core..ascii..ascii_char..AsciiChar$u20$as$u20$core..fmt..Debug$GT$3fmt17h177c64a4e196f32cE
                0x0000000000110378      0x1a8 ./gen/../tecsrust_uart_led_sample/target/armv7a-none-eabi/release/libitron.a(core-d049573bc16596f9.core.5587a85061e7188a-cgu.0.rcgu.o)
                0x0000000000110378                <core::ascii::ascii_char::AsciiChar as core::fmt::Debug>::fmt
 .text._ZN4core5ascii14escape_default17h981d8e307eaaa916E
                0x0000000000110520       0x98 ./gen/../tecsrust_uart_led_sample/target/armv7a-none-eabi/release/libitron.a(core-d049573bc16596f9.core.5587a85061e7188a-cgu.0.rcgu.o)
                0x0000000000110520                core::ascii::escape_default
 .text._ZN65_$LT$core..ascii..EscapeDefault$u20$as$u20$core..fmt..Display$GT$3fmt17he735515427ec3f2cE
                0x00000000001105b8       0x30 ./gen/../tecsrust_uart_led_sample/target/armv7a-none-eabi/release/libitron.a(core-d049573bc16596f9.core.5587a85061e7188a-cgu.0.rcgu.o)
                0x00000000001105b8                <core::ascii::EscapeDefault as core::fmt::Display>::fmt
 .text._ZN63_$LT$core..ascii..EscapeDefault$u20$as$u20$core..fmt..Debug$GT$3fmt17h46f02f61de5321cbE
                0x00000000001105e8       0x54 ./gen/../tecsrust_uart_led_sample/target/armv7a-none-eabi/release/libitron.a(core-d049573bc16596f9.core.5587a85061e7188a-cgu.0.rcgu.o)
                0x00000000001105e8                <core::ascii::EscapeDefault as core::fmt::Debug>::fmt
 .text._ZN56_$LT$core..bstr..ByteStr$u20$as$u20$core..fmt..Debug$GT$3fmt17h8b572b2661a1de36E
                0x000000000011063c      0x310 ./gen/../tecsrust_uart_led_sample/target/armv7a-none-eabi/release/libitron.a(core-d049573bc16596f9.core.5587a85061e7188a-cgu.0.rcgu.o)
                0x000000000011063c                <core::bstr::ByteStr as core::fmt::Debug>::fmt
 .text._ZN58_$LT$core..bstr..ByteStr$u20$as$u20$core..fmt..Display$GT$3fmt17he4ae28f23ce65a58E
                0x000000000011094c      0x340 ./gen/../tecsrust_uart_led_sample/target/armv7a-none-eabi/release/libitron.a(core-d049573bc16596f9.core.5587a85061e7188a-cgu.0.rcgu.o)
                0x000000000011094c                <core::bstr::ByteStr as core::fmt::Display>::fmt
 .text.unlikely._ZN4core4cell4lazy14panic_poisoned17h8eb5d443042c4736E
                0x0000000000110c8c       0x44 ./gen/../tecsrust_uart_led_sample/target/armv7a-none-eabi/release/libitron.a(core-d049573bc16596f9.core.5587a85061e7188a-cgu.0.rcgu.o)
                0x0000000000110c8c                core::cell::lazy::panic_poisoned
 .text._ZN60_$LT$core..cell..BorrowError$u20$as$u20$core..fmt..Debug$GT$3fmt17h56da770da5e11014E
                0x0000000000110cd0       0x24 ./gen/../tecsrust_uart_led_sample/target/armv7a-none-eabi/release/libitron.a(core-d049573bc16596f9.core.5587a85061e7188a-cgu.0.rcgu.o)
                0x0000000000110cd0                <core::cell::BorrowError as core::fmt::Debug>::fmt
 .text._ZN62_$LT$core..cell..BorrowError$u20$as$u20$core..fmt..Display$GT$3fmt17h649aaf4112417b69E
                0x0000000000110cf4       0x20 ./gen/../tecsrust_uart_led_sample/target/armv7a-none-eabi/release/libitron.a(core-d049573bc16596f9.core.5587a85061e7188a-cgu.0.rcgu.o)
                0x0000000000110cf4                <core::cell::BorrowError as core::fmt::Display>::fmt
 .text._ZN63_$LT$core..cell..BorrowMutError$u20$as$u20$core..fmt..Debug$GT$3fmt17h5dd54cc4ab093714E
                0x0000000000110d14       0x24 ./gen/../tecsrust_uart_led_sample/target/armv7a-none-eabi/release/libitron.a(core-d049573bc16596f9.core.5587a85061e7188a-cgu.0.rcgu.o)
                0x0000000000110d14                <core::cell::BorrowMutError as core::fmt::Debug>::fmt
 .text._ZN65_$LT$core..cell..BorrowMutError$u20$as$u20$core..fmt..Display$GT$3fmt17h2f7647931a1ef38bE
                0x0000000000110d38       0x20 ./gen/../tecsrust_uart_led_sample/target/armv7a-none-eabi/release/libitron.a(core-d049573bc16596f9.core.5587a85061e7188a-cgu.0.rcgu.o)
                0x0000000000110d38                <core::cell::BorrowMutError as core::fmt::Display>::fmt
 .text.unlikely._ZN4core4cell22panic_already_borrowed17h058b49ead05ac00bE
                0x0000000000110d58       0x54 ./gen/../tecsrust_uart_led_sample/target/armv7a-none-eabi/release/libitron.a(core-d049573bc16596f9.core.5587a85061e7188a-cgu.0.rcgu.o)
                0x0000000000110d58                core::cell::panic_already_borrowed
 .text.unlikely._ZN4core4cell30panic_already_mutably_borrowed17h9c448cf1bc13461aE
                0x0000000000110dac       0x54 ./gen/../tecsrust_uart_led_sample/target/armv7a-none-eabi/release/libitron.a(core-d049573bc16596f9.core.5587a85061e7188a-cgu.0.rcgu.o)
                0x0000000000110dac                core::cell::panic_already_mutably_borrowed
 .text._ZN74_$LT$core..char..convert..ParseCharError$u20$as$u20$core..fmt..Display$GT$3fmt17hcaa7912ed162bf56E
                0x0000000000110e00       0x48 ./gen/../tecsrust_uart_led_sample/target/armv7a-none-eabi/release/libitron.a(core-d049573bc16596f9.core.5587a85061e7188a-cgu.0.rcgu.o)
                0x0000000000110e00                <core::char::convert::ParseCharError as core::fmt::Display>::fmt
 .text._ZN76_$LT$core..char..convert..CharTryFromError$u20$as$u20$core..fmt..Display$GT$3fmt17h19f1ba4eab42fadcE
                0x0000000000110e48       0x20 ./gen/../tecsrust_uart_led_sample/target/armv7a-none-eabi/release/libitron.a(core-d049573bc16596f9.core.5587a85061e7188a-cgu.0.rcgu.o)
                0x0000000000110e48                <core::char::convert::CharTryFromError as core::fmt::Display>::fmt
 .text._ZN75_$LT$core..char..decode..DecodeUtf16Error$u20$as$u20$core..fmt..Display$GT$3fmt17hdcf3babdf2cfe76aE
                0x0000000000110e68       0x54 ./gen/../tecsrust_uart_led_sample/target/armv7a-none-eabi/release/libitron.a(core-d049573bc16596f9.core.5587a85061e7188a-cgu.0.rcgu.o)
                0x0000000000110e68                <core::char::decode::DecodeUtf16Error as core::fmt::Display>::fmt
 .text._ZN4core4char7methods22_$LT$impl$u20$char$GT$16escape_debug_ext17hd46ad63d40b7f951E
                0x0000000000110ebc      0x3c0 ./gen/../tecsrust_uart_led_sample/target/armv7a-none-eabi/release/libitron.a(core-d049573bc16596f9.core.5587a85061e7188a-cgu.0.rcgu.o)
 .text._ZN64_$LT$core..char..EscapeDefault$u20$as$u20$core..fmt..Display$GT$3fmt17h38aec28b84124e92E
                0x000000000011127c       0x30 ./gen/../tecsrust_uart_led_sample/target/armv7a-none-eabi/release/libitron.a(core-d049573bc16596f9.core.5587a85061e7188a-cgu.0.rcgu.o)
                0x000000000011127c                <core::char::EscapeUnicode as core::fmt::Display>::fmt
                0x000000000011127c                <core::char::EscapeDefault as core::fmt::Display>::fmt
 .text._ZN62_$LT$core..char..EscapeDebug$u20$as$u20$core..fmt..Display$GT$3fmt17hafc69afb2cba63d2E
                0x00000000001112ac       0x50 ./gen/../tecsrust_uart_led_sample/target/armv7a-none-eabi/release/libitron.a(core-d049573bc16596f9.core.5587a85061e7188a-cgu.0.rcgu.o)
                0x00000000001112ac                <core::char::EscapeDebug as core::fmt::Display>::fmt
 .text._ZN86_$LT$core..char..CaseMappingIter$u20$as$u20$core..iter..traits..iterator..Iterator$GT$4next17h387613f301dd4fd8E
                0x00000000001112fc       0x28 ./gen/../tecsrust_uart_led_sample/target/armv7a-none-eabi/release/libitron.a(core-d049573bc16596f9.core.5587a85061e7188a-cgu.0.rcgu.o)
                0x00000000001112fc                <core::char::CaseMappingIter as core::iter::traits::iterator::Iterator>::next
 .text._ZN86_$LT$core..char..CaseMappingIter$u20$as$u20$core..iter..traits..iterator..Iterator$GT$5count17h9c99394d14e09439E
                0x0000000000111324       0x14 ./gen/../tecsrust_uart_led_sample/target/armv7a-none-eabi/release/libitron.a(core-d049573bc16596f9.core.5587a85061e7188a-cgu.0.rcgu.o)
                0x0000000000111324                <core::char::CaseMappingIter as core::iter::traits::iterator::Iterator>::count
 .text._ZN86_$LT$core..char..CaseMappingIter$u20$as$u20$core..iter..traits..iterator..Iterator$GT$4last17h4812d7f7192ee524E
                0x0000000000111338       0x40 ./gen/../tecsrust_uart_led_sample/target/armv7a-none-eabi/release/libitron.a(core-d049573bc16596f9.core.5587a85061e7188a-cgu.0.rcgu.o)
                0x0000000000111338                <core::char::CaseMappingIter as core::iter::traits::iterator::Iterator>::last
 .text._ZN86_$LT$core..char..CaseMappingIter$u20$as$u20$core..iter..traits..iterator..Iterator$GT$10advance_by17h0f8a06432075b566E
                0x0000000000111378       0x28 ./gen/../tecsrust_uart_led_sample/target/armv7a-none-eabi/release/libitron.a(core-d049573bc16596f9.core.5587a85061e7188a-cgu.0.rcgu.o)
                0x0000000000111378                <core::char::CaseMappingIter as core::iter::traits::iterator::Iterator>::advance_by
 .text._ZN86_$LT$core..char..CaseMappingIter$u20$as$u20$core..iter..traits..iterator..Iterator$GT$24__iterator_get_unchecked17hee300516a572f4b8E
                0x00000000001113a0       0x1c ./gen/../tecsrust_uart_led_sample/target/armv7a-none-eabi/release/libitron.a(core-d049573bc16596f9.core.5587a85061e7188a-cgu.0.rcgu.o)
                0x00000000001113a0                <core::char::CaseMappingIter as core::iter::traits::iterator::Iterator>::__iterator_get_unchecked
 .text._ZN101_$LT$core..char..CaseMappingIter$u20$as$u20$core..iter..traits..double_ended..DoubleEndedIterator$GT$9next_back17h0013dfa0a23bb5c3E
                0x00000000001113bc       0x2c ./gen/../tecsrust_uart_led_sample/target/armv7a-none-eabi/release/libitron.a(core-d049573bc16596f9.core.5587a85061e7188a-cgu.0.rcgu.o)
                0x00000000001113bc                <core::char::CaseMappingIter as core::iter::traits::double_ended::DoubleEndedIterator>::next_back
 .text._ZN101_$LT$core..char..CaseMappingIter$u20$as$u20$core..iter..traits..double_ended..DoubleEndedIterator$GT$15advance_back_by17h0e7ec4b92a9eb744E
                0x00000000001113e8       0x28 ./gen/../tecsrust_uart_led_sample/target/armv7a-none-eabi/release/libitron.a(core-d049573bc16596f9.core.5587a85061e7188a-cgu.0.rcgu.o)
                0x00000000001113e8                <core::char::CaseMappingIter as core::iter::traits::double_ended::DoubleEndedIterator>::advance_back_by
 .text._ZN67_$LT$core..char..TryFromCharError$u20$as$u20$core..fmt..Display$GT$3fmt17hbf1b0a686f8a1a69E
                0x0000000000111410       0x20 ./gen/../tecsrust_uart_led_sample/target/armv7a-none-eabi/release/libitron.a(core-d049573bc16596f9.core.5587a85061e7188a-cgu.0.rcgu.o)
                0x0000000000111410                <core::char::TryFromCharError as core::fmt::Display>::fmt
 .text._ZN79_$LT$core..ffi..c_str..FromBytesUntilNulError$u20$as$u20$core..fmt..Display$GT$3fmt17h71f2c90ca2a80addE
                0x0000000000111430       0x24 ./gen/../tecsrust_uart_led_sample/target/armv7a-none-eabi/release/libitron.a(core-d049573bc16596f9.core.5587a85061e7188a-cgu.0.rcgu.o)
                0x0000000000111430                <core::ffi::c_str::FromBytesUntilNulError as core::fmt::Display>::fmt
 .text._ZN59_$LT$core..ffi..c_str..CStr$u20$as$u20$core..fmt..Debug$GT$3fmt17h36ba4289086816d4E
                0x0000000000111454       0x7c ./gen/../tecsrust_uart_led_sample/target/armv7a-none-eabi/release/libitron.a(core-d049573bc16596f9.core.5587a85061e7188a-cgu.0.rcgu.o)
                0x0000000000111454                <core::ffi::c_str::CStr as core::fmt::Debug>::fmt
 .text._ZN78_$LT$core..ffi..c_str..FromBytesWithNulError$u20$as$u20$core..fmt..Display$GT$3fmt17hd6785df6bd44c25dE
                0x00000000001114d0       0xc4 ./gen/../tecsrust_uart_led_sample/target/armv7a-none-eabi/release/libitron.a(core-d049573bc16596f9.core.5587a85061e7188a-cgu.0.rcgu.o)
                0x00000000001114d0                <core::ffi::c_str::FromBytesWithNulError as core::fmt::Display>::fmt
 .text._ZN4core3ffi5c_str4CStr20from_bytes_until_nul17h223b6a3545723cc2E
                0x0000000000111594      0x1b8 ./gen/../tecsrust_uart_led_sample/target/armv7a-none-eabi/release/libitron.a(core-d049573bc16596f9.core.5587a85061e7188a-cgu.0.rcgu.o)
                0x0000000000111594                core::ffi::c_str::CStr::from_bytes_until_nul
 .text._ZN4core3ffi5c_str4CStr19from_bytes_with_nul17h924bc5b5323bf05eE
                0x000000000011174c      0x1cc ./gen/../tecsrust_uart_led_sample/target/armv7a-none-eabi/release/libitron.a(core-d049573bc16596f9.core.5587a85061e7188a-cgu.0.rcgu.o)
                0x000000000011174c                core::ffi::c_str::CStr::from_bytes_with_nul
 .text._ZN4core3ffi5c_str4CStr6to_str17hc1faa40fb638a30eE
                0x0000000000111918       0x14 ./gen/../tecsrust_uart_led_sample/target/armv7a-none-eabi/release/libitron.a(core-d049573bc16596f9.core.5587a85061e7188a-cgu.0.rcgu.o)
                0x0000000000111918                core::ffi::c_str::CStr::to_str
 .text._ZN67_$LT$core..ffi..va_list..VaListImpl$u20$as$u20$core..fmt..Debug$GT$3fmt17hd26f911d47b97956E
                0x000000000011192c       0x54 ./gen/../tecsrust_uart_led_sample/target/armv7a-none-eabi/release/libitron.a(core-d049573bc16596f9.core.5587a85061e7188a-cgu.0.rcgu.o)
                0x000000000011192c                <core::ffi::va_list::VaListImpl as core::fmt::Debug>::fmt
 .text._ZN54_$LT$core..ffi..c_void$u20$as$u20$core..fmt..Debug$GT$3fmt17h3b27b77d454a7b00E
                0x0000000000111980       0x24 ./gen/../tecsrust_uart_led_sample/target/armv7a-none-eabi/release/libitron.a(core-d049573bc16596f9.core.5587a85061e7188a-cgu.0.rcgu.o)
                0x0000000000111980                <core::ffi::c_void as core::fmt::Debug>::fmt
 .text._ZN72_$LT$core..io..borrowed_buf..BorrowedBuf$u20$as$u20$core..fmt..Debug$GT$3fmt17h8c5373e369933a1eE
                0x00000000001119a4      0x114 ./gen/../tecsrust_uart_led_sample/target/armv7a-none-eabi/release/libitron.a(core-d049573bc16596f9.core.5587a85061e7188a-cgu.0.rcgu.o)
                0x00000000001119a4                <core::io::borrowed_buf::BorrowedBuf as core::fmt::Debug>::fmt
 .text._ZN86_$LT$core..net..display_buffer..DisplayBuffer$LT$_$GT$$u20$as$u20$core..fmt..Write$GT$9write_str17h297baed95332eae7E
                0x0000000000111ab8       0x48 ./gen/../tecsrust_uart_led_sample/target/armv7a-none-eabi/release/libitron.a(core-d049573bc16596f9.core.5587a85061e7188a-cgu.0.rcgu.o)
 .text._ZN86_$LT$core..net..display_buffer..DisplayBuffer$LT$_$GT$$u20$as$u20$core..fmt..Write$GT$9write_str17h839f220912462241E
                0x0000000000111b00       0x48 ./gen/../tecsrust_uart_led_sample/target/armv7a-none-eabi/release/libitron.a(core-d049573bc16596f9.core.5587a85061e7188a-cgu.0.rcgu.o)
 .text._ZN86_$LT$core..net..display_buffer..DisplayBuffer$LT$_$GT$$u20$as$u20$core..fmt..Write$GT$9write_str17h8badf8473d9a4002E
                0x0000000000111b48       0x48 ./gen/../tecsrust_uart_led_sample/target/armv7a-none-eabi/release/libitron.a(core-d049573bc16596f9.core.5587a85061e7188a-cgu.0.rcgu.o)
 .text._ZN86_$LT$core..net..display_buffer..DisplayBuffer$LT$_$GT$$u20$as$u20$core..fmt..Write$GT$9write_str17hd35c8bb425293b8bE
                0x0000000000111b90       0x48 ./gen/../tecsrust_uart_led_sample/target/armv7a-none-eabi/release/libitron.a(core-d049573bc16596f9.core.5587a85061e7188a-cgu.0.rcgu.o)
 .text._ZN65_$LT$core..net..ip_addr..IpAddr$u20$as$u20$core..fmt..Display$GT$3fmt17h3168c33a3915df90E
                0x0000000000111bd8       0x24 ./gen/../tecsrust_uart_led_sample/target/armv7a-none-eabi/release/libitron.a(core-d049573bc16596f9.core.5587a85061e7188a-cgu.0.rcgu.o)
                0x0000000000111bd8                <core::net::ip_addr::IpAddr as core::fmt::Display>::fmt
 .text._ZN63_$LT$core..net..ip_addr..IpAddr$u20$as$u20$core..fmt..Debug$GT$3fmt17hfda05f36d5a749a6E
                0x0000000000111bfc       0x24 ./gen/../tecsrust_uart_led_sample/target/armv7a-none-eabi/release/libitron.a(core-d049573bc16596f9.core.5587a85061e7188a-cgu.0.rcgu.o)
                0x0000000000111bfc                <core::net::ip_addr::IpAddr as core::fmt::Debug>::fmt
 .text._ZN67_$LT$core..net..ip_addr..Ipv4Addr$u20$as$u20$core..fmt..Display$GT$3fmt17h8a7f4864e9af7f6bE
                0x0000000000111c20      0x194 ./gen/../tecsrust_uart_led_sample/target/armv7a-none-eabi/release/libitron.a(core-d049573bc16596f9.core.5587a85061e7188a-cgu.0.rcgu.o)
                0x0000000000111c20                <core::net::ip_addr::Ipv4Addr as core::fmt::Display>::fmt
 .text._ZN65_$LT$core..net..ip_addr..Ipv4Addr$u20$as$u20$core..fmt..Debug$GT$3fmt17h6a51679a1ff6e7e2E
                0x0000000000111db4       0x10 ./gen/../tecsrust_uart_led_sample/target/armv7a-none-eabi/release/libitron.a(core-d049573bc16596f9.core.5587a85061e7188a-cgu.0.rcgu.o)
                0x0000000000111db4                <core::net::ip_addr::Ipv4Addr as core::fmt::Debug>::fmt
 .text._ZN67_$LT$core..net..ip_addr..Ipv6Addr$u20$as$u20$core..fmt..Display$GT$3fmt17ha09719cd9f4aecf6E
                0x0000000000111dc4      0x824 ./gen/../tecsrust_uart_led_sample/target/armv7a-none-eabi/release/libitron.a(core-d049573bc16596f9.core.5587a85061e7188a-cgu.0.rcgu.o)
                0x0000000000111dc4                <core::net::ip_addr::Ipv6Addr as core::fmt::Display>::fmt
 .text._ZN67_$LT$core..net..ip_addr..Ipv6Addr$u20$as$u20$core..fmt..Display$GT$3fmt12fmt_subslice17hba89c8432023046dE
                0x00000000001125e8      0x130 ./gen/../tecsrust_uart_led_sample/target/armv7a-none-eabi/release/libitron.a(core-d049573bc16596f9.core.5587a85061e7188a-cgu.0.rcgu.o)
 .text._ZN65_$LT$core..net..ip_addr..Ipv6Addr$u20$as$u20$core..fmt..Debug$GT$3fmt17hd7b6c05483d437dbE
                0x0000000000112718       0x10 ./gen/../tecsrust_uart_led_sample/target/armv7a-none-eabi/release/libitron.a(core-d049573bc16596f9.core.5587a85061e7188a-cgu.0.rcgu.o)
                0x0000000000112718                <core::net::ip_addr::Ipv6Addr as core::fmt::Debug>::fmt
 .text._ZN4core3net6parser6Parser11read_number28_$u7b$$u7b$closure$u7d$$u7d$17hcfdf77b7d41ca56bE
                0x0000000000112728      0x304 ./gen/../tecsrust_uart_led_sample/target/armv7a-none-eabi/release/libitron.a(core-d049573bc16596f9.core.5587a85061e7188a-cgu.0.rcgu.o)
 .text._ZN4core3net6parser6Parser14read_ipv4_addr17h3efba67ec1312042E
                0x0000000000112a2c      0x37c ./gen/../tecsrust_uart_led_sample/target/armv7a-none-eabi/release/libitron.a(core-d049573bc16596f9.core.5587a85061e7188a-cgu.0.rcgu.o)
 .text._ZN4core3net6parser6Parser14read_ipv6_addr17h54c8b5ef622aafb8E
                0x0000000000112da8      0x224 ./gen/../tecsrust_uart_led_sample/target/armv7a-none-eabi/release/libitron.a(core-d049573bc16596f9.core.5587a85061e7188a-cgu.0.rcgu.o)
 .text._ZN4core3net6parser6Parser14read_ipv6_addr11read_groups17h16f736446e4eaddeE
                0x0000000000112fcc      0x230 ./gen/../tecsrust_uart_led_sample/target/armv7a-none-eabi/release/libitron.a(core-d049573bc16596f9.core.5587a85061e7188a-cgu.0.rcgu.o)
 .text._ZN4core3net6parser6Parser19read_socket_addr_v617hb4d45e4b5ba1a4d4E
                0x00000000001131fc      0x278 ./gen/../tecsrust_uart_led_sample/target/armv7a-none-eabi/release/libitron.a(core-d049573bc16596f9.core.5587a85061e7188a-cgu.0.rcgu.o)
 .text._ZN4core3net6parser44_$LT$impl$u20$core..net..ip_addr..IpAddr$GT$11parse_ascii17hd7ed4f332f3caa79E
                0x0000000000113474      0x168 ./gen/../tecsrust_uart_led_sample/target/armv7a-none-eabi/release/libitron.a(core-d049573bc16596f9.core.5587a85061e7188a-cgu.0.rcgu.o)
                0x0000000000113474                core::net::parser::<impl core::net::ip_addr::IpAddr>::parse_ascii
 .text._ZN4core3net6parser83_$LT$impl$u20$core..str..traits..FromStr$u20$for$u20$core..net..ip_addr..IpAddr$GT$8from_str17h49e46cb50b46901eE
                0x00000000001135dc      0x168 ./gen/../tecsrust_uart_led_sample/target/armv7a-none-eabi/release/libitron.a(core-d049573bc16596f9.core.5587a85061e7188a-cgu.0.rcgu.o)
                0x00000000001135dc                core::net::parser::<impl core::str::traits::FromStr for core::net::ip_addr::IpAddr>::from_str
 .text._ZN4core3net6parser46_$LT$impl$u20$core..net..ip_addr..Ipv4Addr$GT$11parse_ascii17h8028e1785cb7be5fE
                0x0000000000113744       0x9c ./gen/../tecsrust_uart_led_sample/target/armv7a-none-eabi/release/libitron.a(core-d049573bc16596f9.core.5587a85061e7188a-cgu.0.rcgu.o)
                0x0000000000113744                core::net::parser::<impl core::net::ip_addr::Ipv4Addr>::parse_ascii
 .text._ZN4core3net6parser85_$LT$impl$u20$core..str..traits..FromStr$u20$for$u20$core..net..ip_addr..Ipv4Addr$GT$8from_str17hc3217d4e0e33b7d5E
                0x00000000001137e0       0x9c ./gen/../tecsrust_uart_led_sample/target/armv7a-none-eabi/release/libitron.a(core-d049573bc16596f9.core.5587a85061e7188a-cgu.0.rcgu.o)
                0x00000000001137e0                core::net::parser::<impl core::str::traits::FromStr for core::net::ip_addr::Ipv4Addr>::from_str
 .text._ZN4core3net6parser46_$LT$impl$u20$core..net..ip_addr..Ipv6Addr$GT$11parse_ascii17h767d275eb73823beE
                0x000000000011387c       0x8c ./gen/../tecsrust_uart_led_sample/target/armv7a-none-eabi/release/libitron.a(core-d049573bc16596f9.core.5587a85061e7188a-cgu.0.rcgu.o)
                0x000000000011387c                core::net::parser::<impl core::net::ip_addr::Ipv6Addr>::parse_ascii
 .text._ZN4core3net6parser85_$LT$impl$u20$core..str..traits..FromStr$u20$for$u20$core..net..ip_addr..Ipv6Addr$GT$8from_str17h685b7483d3d506d7E
                0x0000000000113908       0x8c ./gen/../tecsrust_uart_led_sample/target/armv7a-none-eabi/release/libitron.a(core-d049573bc16596f9.core.5587a85061e7188a-cgu.0.rcgu.o)
                0x0000000000113908                core::net::parser::<impl core::str::traits::FromStr for core::net::ip_addr::Ipv6Addr>::from_str
 .text._ZN4core3net6parser54_$LT$impl$u20$core..net..socket_addr..SocketAddrV4$GT$11parse_ascii17hc07de5cf09e25fb1E
                0x0000000000113994       0xfc ./gen/../tecsrust_uart_led_sample/target/armv7a-none-eabi/release/libitron.a(core-d049573bc16596f9.core.5587a85061e7188a-cgu.0.rcgu.o)
                0x0000000000113994                core::net::parser::<impl core::net::socket_addr::SocketAddrV4>::parse_ascii
 .text._ZN4core3net6parser93_$LT$impl$u20$core..str..traits..FromStr$u20$for$u20$core..net..socket_addr..SocketAddrV4$GT$8from_str17h5883a36bbe26488dE
                0x0000000000113a90       0xfc ./gen/../tecsrust_uart_led_sample/target/armv7a-none-eabi/release/libitron.a(core-d049573bc16596f9.core.5587a85061e7188a-cgu.0.rcgu.o)
                0x0000000000113a90                core::net::parser::<impl core::str::traits::FromStr for core::net::socket_addr::SocketAddrV4>::from_str
 .text._ZN4core3net6parser54_$LT$impl$u20$core..net..socket_addr..SocketAddrV6$GT$11parse_ascii17hbe6498756ef255a7E
                0x0000000000113b8c       0x7c ./gen/../tecsrust_uart_led_sample/target/armv7a-none-eabi/release/libitron.a(core-d049573bc16596f9.core.5587a85061e7188a-cgu.0.rcgu.o)
                0x0000000000113b8c                core::net::parser::<impl core::net::socket_addr::SocketAddrV6>::parse_ascii
 .text._ZN4core3net6parser93_$LT$impl$u20$core..str..traits..FromStr$u20$for$u20$core..net..socket_addr..SocketAddrV6$GT$8from_str17hf8a18b6a5bf3759eE
                0x0000000000113c08       0x7c ./gen/../tecsrust_uart_led_sample/target/armv7a-none-eabi/release/libitron.a(core-d049573bc16596f9.core.5587a85061e7188a-cgu.0.rcgu.o)
                0x0000000000113c08                core::net::parser::<impl core::str::traits::FromStr for core::net::socket_addr::SocketAddrV6>::from_str
 .text._ZN4core3net6parser52_$LT$impl$u20$core..net..socket_addr..SocketAddr$GT$11parse_ascii17h32c0686e61a62a97E
                0x0000000000113c84      0x18c ./gen/../tecsrust_uart_led_sample/target/armv7a-none-eabi/release/libitron.a(core-d049573bc16596f9.core.5587a85061e7188a-cgu.0.rcgu.o)
                0x0000000000113c84                core::net::parser::<impl core::net::socket_addr::SocketAddr>::parse_ascii
 .text._ZN4core3net6parser91_$LT$impl$u20$core..str..traits..FromStr$u20$for$u20$core..net..socket_addr..SocketAddr$GT$8from_str17he89fdbe831fc4256E
                0x0000000000113e10       0x10 ./gen/../tecsrust_uart_led_sample/target/armv7a-none-eabi/release/libitron.a(core-d049573bc16596f9.core.5587a85061e7188a-cgu.0.rcgu.o)
                0x0000000000113e10                core::net::parser::<impl core::str::traits::FromStr for core::net::socket_addr::SocketAddr>::from_str
 .text._ZN72_$LT$core..net..parser..AddrParseError$u20$as$u20$core..fmt..Display$GT$3fmt17hd7f7df04664d2864E
                0x0000000000113e20       0x38 ./gen/../tecsrust_uart_led_sample/target/armv7a-none-eabi/release/libitron.a(core-d049573bc16596f9.core.5587a85061e7188a-cgu.0.rcgu.o)
                0x0000000000113e20                <core::net::parser::AddrParseError as core::fmt::Display>::fmt
 .text._ZN73_$LT$core..net..socket_addr..SocketAddr$u20$as$u20$core..fmt..Display$GT$3fmt17hd0e981e04411525aE
                0x0000000000113e58       0x2c ./gen/../tecsrust_uart_led_sample/target/armv7a-none-eabi/release/libitron.a(core-d049573bc16596f9.core.5587a85061e7188a-cgu.0.rcgu.o)
                0x0000000000113e58                <core::net::socket_addr::SocketAddr as core::fmt::Display>::fmt
 .text._ZN71_$LT$core..net..socket_addr..SocketAddr$u20$as$u20$core..fmt..Debug$GT$3fmt17hd95cf7ae4353c951E
                0x0000000000113e84       0x2c ./gen/../tecsrust_uart_led_sample/target/armv7a-none-eabi/release/libitron.a(core-d049573bc16596f9.core.5587a85061e7188a-cgu.0.rcgu.o)
                0x0000000000113e84                <core::net::socket_addr::SocketAddr as core::fmt::Debug>::fmt
 .text._ZN75_$LT$core..net..socket_addr..SocketAddrV4$u20$as$u20$core..fmt..Display$GT$3fmt17hb358e369cb8dcc74E
                0x0000000000113eb0      0x16c ./gen/../tecsrust_uart_led_sample/target/armv7a-none-eabi/release/libitron.a(core-d049573bc16596f9.core.5587a85061e7188a-cgu.0.rcgu.o)
                0x0000000000113eb0                <core::net::socket_addr::SocketAddrV4 as core::fmt::Display>::fmt
 .text._ZN73_$LT$core..net..socket_addr..SocketAddrV4$u20$as$u20$core..fmt..Debug$GT$3fmt17h47d2c03dbc6abbf5E
                0x000000000011401c       0x10 ./gen/../tecsrust_uart_led_sample/target/armv7a-none-eabi/release/libitron.a(core-d049573bc16596f9.core.5587a85061e7188a-cgu.0.rcgu.o)
                0x000000000011401c                <core::net::socket_addr::SocketAddrV4 as core::fmt::Debug>::fmt
 .text._ZN75_$LT$core..net..socket_addr..SocketAddrV6$u20$as$u20$core..fmt..Display$GT$3fmt17hb242d5ced67c2003E
                0x000000000011402c      0x298 ./gen/../tecsrust_uart_led_sample/target/armv7a-none-eabi/release/libitron.a(core-d049573bc16596f9.core.5587a85061e7188a-cgu.0.rcgu.o)
                0x000000000011402c                <core::net::socket_addr::SocketAddrV6 as core::fmt::Display>::fmt
 .text._ZN73_$LT$core..net..socket_addr..SocketAddrV6$u20$as$u20$core..fmt..Debug$GT$3fmt17h008793ff64f0e572E
                0x00000000001142c4       0x10 ./gen/../tecsrust_uart_led_sample/target/armv7a-none-eabi/release/libitron.a(core-d049573bc16596f9.core.5587a85061e7188a-cgu.0.rcgu.o)
                0x00000000001142c4                <core::net::socket_addr::SocketAddrV6 as core::fmt::Debug>::fmt
 .text.unlikely._ZN4core6option13unwrap_failed17h39a76a4d9e444e97E
                0x00000000001142d4       0x1c ./gen/../tecsrust_uart_led_sample/target/armv7a-none-eabi/release/libitron.a(core-d049573bc16596f9.core.5587a85061e7188a-cgu.0.rcgu.o)
                0x00000000001142d4                core::option::unwrap_failed
 .text.unlikely._ZN4core6option13expect_failed17hf032828b69e8f9cdE
                0x00000000001142f0       0x58 ./gen/../tecsrust_uart_led_sample/target/armv7a-none-eabi/release/libitron.a(core-d049573bc16596f9.core.5587a85061e7188a-cgu.0.rcgu.o)
                0x00000000001142f0                core::option::expect_failed
 .text._ZN73_$LT$core..panic..panic_info..PanicInfo$u20$as$u20$core..fmt..Display$GT$3fmt17he8ae0930573845dbE
                0x0000000000114348       0xfc ./gen/../tecsrust_uart_led_sample/target/armv7a-none-eabi/release/libitron.a(core-d049573bc16596f9.core.5587a85061e7188a-cgu.0.rcgu.o)
                0x0000000000114348                <core::panic::panic_info::PanicInfo as core::fmt::Display>::fmt
 .text.unlikely._ZN4core9panicking9panic_fmt17h5145975cf535bc42E
                0x0000000000114444       0x20 ./gen/../tecsrust_uart_led_sample/target/armv7a-none-eabi/release/libitron.a(core-d049573bc16596f9.core.5587a85061e7188a-cgu.0.rcgu.o)
                0x0000000000114444                core::panicking::panic_fmt
 .text.unlikely._ZN4core9panicking18panic_nounwind_fmt17h7e174a309b689b0fE
                0x0000000000114464       0x38 ./gen/../tecsrust_uart_led_sample/target/armv7a-none-eabi/release/libitron.a(core-d049573bc16596f9.core.5587a85061e7188a-cgu.0.rcgu.o)
                0x0000000000114464                core::panicking::panic_nounwind_fmt
 .text.unlikely._ZN4core9panicking5panic17h04eb6169f90051c3E
                0x000000000011449c       0x44 ./gen/../tecsrust_uart_led_sample/target/armv7a-none-eabi/release/libitron.a(core-d049573bc16596f9.core.5587a85061e7188a-cgu.0.rcgu.o)
                0x000000000011449c                core::panicking::panic
 .text.unlikely._ZN4core9panicking14panic_nounwind17hb8efc6a66a7c1fb5E
                0x00000000001144e0       0x48 ./gen/../tecsrust_uart_led_sample/target/armv7a-none-eabi/release/libitron.a(core-d049573bc16596f9.core.5587a85061e7188a-cgu.0.rcgu.o)
                0x00000000001144e0                core::panicking::panic_nounwind
 .text.unlikely._ZN4core9panicking26panic_nounwind_nobacktrace17hcf6b6f7ce89f1dabE
                0x0000000000114528       0x48 ./gen/../tecsrust_uart_led_sample/target/armv7a-none-eabi/release/libitron.a(core-d049573bc16596f9.core.5587a85061e7188a-cgu.0.rcgu.o)
                0x0000000000114528                core::panicking::panic_nounwind_nobacktrace
 .text.unlikely._ZN4core9panicking14panic_explicit17he7bebe483a3bfe34E
                0x0000000000114570       0x58 ./gen/../tecsrust_uart_led_sample/target/armv7a-none-eabi/release/libitron.a(core-d049573bc16596f9.core.5587a85061e7188a-cgu.0.rcgu.o)
                0x0000000000114570                core::panicking::panic_explicit
 .text.unlikely._ZN4core9panicking18panic_bounds_check17he2f51b500041724aE
                0x00000000001145c8       0x64 ./gen/../tecsrust_uart_led_sample/target/armv7a-none-eabi/release/libitron.a(core-d049573bc16596f9.core.5587a85061e7188a-cgu.0.rcgu.o)
                0x00000000001145c8                core::panicking::panic_bounds_check
 .text.unlikely._ZN4core9panicking36panic_misaligned_pointer_dereference17hca8f56f08697e9a1E
                0x000000000011462c       0x6c ./gen/../tecsrust_uart_led_sample/target/armv7a-none-eabi/release/libitron.a(core-d049573bc16596f9.core.5587a85061e7188a-cgu.0.rcgu.o)
                0x000000000011462c                core::panicking::panic_misaligned_pointer_dereference
 .text.unlikely._ZN4core9panicking30panic_null_pointer_dereference17hd07e38dada2babd1E
                0x0000000000114698       0x40 ./gen/../tecsrust_uart_led_sample/target/armv7a-none-eabi/release/libitron.a(core-d049573bc16596f9.core.5587a85061e7188a-cgu.0.rcgu.o)
                0x0000000000114698                core::panicking::panic_null_pointer_dereference
 .text.unlikely._ZN4core9panicking19panic_cannot_unwind17h88003aad7d959a86E
                0x00000000001146d8       0x18 ./gen/../tecsrust_uart_led_sample/target/armv7a-none-eabi/release/libitron.a(core-d049573bc16596f9.core.5587a85061e7188a-cgu.0.rcgu.o)
                0x00000000001146d8                core::panicking::panic_cannot_unwind
 .text.unlikely._ZN4core9panicking16panic_in_cleanup17he6ef00938a5a6327E
                0x00000000001146f0       0x18 ./gen/../tecsrust_uart_led_sample/target/armv7a-none-eabi/release/libitron.a(core-d049573bc16596f9.core.5587a85061e7188a-cgu.0.rcgu.o)
                0x00000000001146f0                core::panicking::panic_in_cleanup
 .text.unlikely._ZN4core9panicking15const_panic_fmt17h6a5d3cae6d10461cE
                0x0000000000114708       0x7c ./gen/../tecsrust_uart_led_sample/target/armv7a-none-eabi/release/libitron.a(core-d049573bc16596f9.core.5587a85061e7188a-cgu.0.rcgu.o)
                0x0000000000114708                core::panicking::const_panic_fmt
 .text.unlikely._ZN4core9panicking13assert_failed17h2f1d8849fc674a9bE
                0x0000000000114784       0x30 ./gen/../tecsrust_uart_led_sample/target/armv7a-none-eabi/release/libitron.a(core-d049573bc16596f9.core.5587a85061e7188a-cgu.0.rcgu.o)
                0x0000000000114784                core::panicking::assert_failed
 .text.unlikely._ZN4core9panicking13assert_failed17h8a42116d81ae2397E
                0x00000000001147b4       0x30 ./gen/../tecsrust_uart_led_sample/target/armv7a-none-eabi/release/libitron.a(core-d049573bc16596f9.core.5587a85061e7188a-cgu.0.rcgu.o)
                0x00000000001147b4                core::panicking::assert_failed
 .text._ZN84_$LT$core..panicking..assert_matches_failed..Pattern$u20$as$u20$core..fmt..Debug$GT$3fmt17h3bf79b8a4bc8fc51E
                0x00000000001147e4       0x24 ./gen/../tecsrust_uart_led_sample/target/armv7a-none-eabi/release/libitron.a(core-d049573bc16596f9.core.5587a85061e7188a-cgu.0.rcgu.o)
                0x00000000001147e4                <core::panicking::assert_matches_failed::Pattern as core::fmt::Debug>::fmt
 .text.unlikely._ZN4core9panicking19assert_failed_inner17h1f0479933a2bc628E
                0x0000000000114808      0x120 ./gen/../tecsrust_uart_led_sample/target/armv7a-none-eabi/release/libitron.a(core-d049573bc16596f9.core.5587a85061e7188a-cgu.0.rcgu.o)
                0x0000000000114808                core::panicking::assert_failed_inner
 .text._ZN48_$LT$char$u20$as$u20$core..pat..RangePattern$GT$7sub_one17hc1333cb071cfc1b6E
                0x0000000000114928       0x58 ./gen/../tecsrust_uart_led_sample/target/armv7a-none-eabi/release/libitron.a(core-d049573bc16596f9.core.5587a85061e7188a-cgu.0.rcgu.o)
                0x0000000000114928                <char as core::pat::RangePattern>::sub_one
 .text.unlikely._ZN4core6result13unwrap_failed17h238a41f9432ebe61E
                0x0000000000114980       0x6c ./gen/../tecsrust_uart_led_sample/target/armv7a-none-eabi/release/libitron.a(core-d049573bc16596f9.core.5587a85061e7188a-cgu.0.rcgu.o)
                0x0000000000114980                core::result::unwrap_failed
 .text._ZN67_$LT$core..sync..atomic..AtomicBool$u20$as$u20$core..fmt..Debug$GT$3fmt17h36e87f0defe65ad8E
                0x00000000001149ec       0x48 ./gen/../tecsrust_uart_led_sample/target/armv7a-none-eabi/release/libitron.a(core-d049573bc16596f9.core.5587a85061e7188a-cgu.0.rcgu.o)
                0x00000000001149ec                <core::sync::atomic::AtomicBool as core::fmt::Debug>::fmt
 .text._ZN4core3fmt8builders10PadAdapter4wrap17h8cec362b75ec2f49E
                0x0000000000114a34       0x38 ./gen/../tecsrust_uart_led_sample/target/armv7a-none-eabi/release/libitron.a(core-d049573bc16596f9.core.5587a85061e7188a-cgu.0.rcgu.o)
                0x0000000000114a34                core::fmt::builders::PadAdapter::wrap
 .text._ZN68_$LT$core..fmt..builders..PadAdapter$u20$as$u20$core..fmt..Write$GT$9write_str17hc81ad4e78c0c990cE
                0x0000000000114a6c      0x270 ./gen/../tecsrust_uart_led_sample/target/armv7a-none-eabi/release/libitron.a(core-d049573bc16596f9.core.5587a85061e7188a-cgu.0.rcgu.o)
                0x0000000000114a6c                <core::fmt::builders::PadAdapter as core::fmt::Write>::write_str
 .text._ZN68_$LT$core..fmt..builders..PadAdapter$u20$as$u20$core..fmt..Write$GT$10write_char17h121f3a024053ccfbE
                0x0000000000114cdc       0x6c ./gen/../tecsrust_uart_led_sample/target/armv7a-none-eabi/release/libitron.a(core-d049573bc16596f9.core.5587a85061e7188a-cgu.0.rcgu.o)
                0x0000000000114cdc                <core::fmt::builders::PadAdapter as core::fmt::Write>::write_char
 .text._ZN4core3fmt8builders11DebugStruct5field17h118827344b19fbe7E
                0x0000000000114d48      0x1d0 ./gen/../tecsrust_uart_led_sample/target/armv7a-none-eabi/release/libitron.a(core-d049573bc16596f9.core.5587a85061e7188a-cgu.0.rcgu.o)
                0x0000000000114d48                core::fmt::builders::DebugStruct::field
 .text._ZN4core3fmt8builders11DebugStruct21finish_non_exhaustive17ha59f74934d70120cE
                0x0000000000114f18       0xd4 ./gen/../tecsrust_uart_led_sample/target/armv7a-none-eabi/release/libitron.a(core-d049573bc16596f9.core.5587a85061e7188a-cgu.0.rcgu.o)
                0x0000000000114f18                core::fmt::builders::DebugStruct::finish_non_exhaustive
 .text._ZN4core3fmt8builders11DebugStruct6finish17h62dcffc385683e70E
                0x0000000000114fec       0x84 ./gen/../tecsrust_uart_led_sample/target/armv7a-none-eabi/release/libitron.a(core-d049573bc16596f9.core.5587a85061e7188a-cgu.0.rcgu.o)
                0x0000000000114fec                core::fmt::builders::DebugStruct::finish
 .text._ZN4core3fmt8builders10DebugTuple5field17hd25f2ea26ee9220fE
                0x0000000000115070      0x184 ./gen/../tecsrust_uart_led_sample/target/armv7a-none-eabi/release/libitron.a(core-d049573bc16596f9.core.5587a85061e7188a-cgu.0.rcgu.o)
                0x0000000000115070                core::fmt::builders::DebugTuple::field
 .text._ZN4core3fmt8builders10DebugTuple21finish_non_exhaustive17hbea2c5cc6d18b83cE
                0x00000000001151f4       0xe8 ./gen/../tecsrust_uart_led_sample/target/armv7a-none-eabi/release/libitron.a(core-d049573bc16596f9.core.5587a85061e7188a-cgu.0.rcgu.o)
                0x00000000001151f4                core::fmt::builders::DebugTuple::finish_non_exhaustive
 .text._ZN4core3fmt8builders10DebugTuple6finish17h75fa298d273b9537E
                0x00000000001152dc       0xb8 ./gen/../tecsrust_uart_led_sample/target/armv7a-none-eabi/release/libitron.a(core-d049573bc16596f9.core.5587a85061e7188a-cgu.0.rcgu.o)
                0x00000000001152dc                core::fmt::builders::DebugTuple::finish
 .text._ZN4core3fmt8builders8DebugSet5entry17h6f9f49712cdf1c8aE
                0x0000000000115394      0x174 ./gen/../tecsrust_uart_led_sample/target/armv7a-none-eabi/release/libitron.a(core-d049573bc16596f9.core.5587a85061e7188a-cgu.0.rcgu.o)
                0x0000000000115394                core::fmt::builders::DebugSet::entry
                0x0000000000115394                core::fmt::builders::DebugList::entry
 .text._ZN4core3fmt8builders8DebugSet21finish_non_exhaustive17h056b5628e91579d3E
                0x0000000000115508       0xd4 ./gen/../tecsrust_uart_led_sample/target/armv7a-none-eabi/release/libitron.a(core-d049573bc16596f9.core.5587a85061e7188a-cgu.0.rcgu.o)
                0x0000000000115508                core::fmt::builders::DebugSet::finish_non_exhaustive
 .text._ZN4core3fmt8builders8DebugSet6finish17hb775269289642050E
                0x00000000001155dc       0x40 ./gen/../tecsrust_uart_led_sample/target/armv7a-none-eabi/release/libitron.a(core-d049573bc16596f9.core.5587a85061e7188a-cgu.0.rcgu.o)
                0x00000000001155dc                core::fmt::builders::DebugSet::finish
 .text._ZN4core3fmt8builders9DebugList21finish_non_exhaustive17h0964252c95243519E
                0x000000000011561c       0xe4 ./gen/../tecsrust_uart_led_sample/target/armv7a-none-eabi/release/libitron.a(core-d049573bc16596f9.core.5587a85061e7188a-cgu.0.rcgu.o)
                0x000000000011561c                core::fmt::builders::DebugList::finish_non_exhaustive
 .text._ZN4core3fmt8builders9DebugList6finish17h95901bb8c72ebeaaE
                0x0000000000115700       0x40 ./gen/../tecsrust_uart_led_sample/target/armv7a-none-eabi/release/libitron.a(core-d049573bc16596f9.core.5587a85061e7188a-cgu.0.rcgu.o)
                0x0000000000115700                core::fmt::builders::DebugList::finish
 .text._ZN4core3fmt8builders8DebugMap5entry17hb5fe3985090a797eE
                0x0000000000115740      0x134 ./gen/../tecsrust_uart_led_sample/target/armv7a-none-eabi/release/libitron.a(core-d049573bc16596f9.core.5587a85061e7188a-cgu.0.rcgu.o)
                0x0000000000115740                core::fmt::builders::DebugMap::entry
 .text._ZN4core3fmt8builders8DebugMap3key17he972b5db7c272a06E
                0x0000000000115874      0x204 ./gen/../tecsrust_uart_led_sample/target/armv7a-none-eabi/release/libitron.a(core-d049573bc16596f9.core.5587a85061e7188a-cgu.0.rcgu.o)
                0x0000000000115874                core::fmt::builders::DebugMap::key
 .text._ZN4core3fmt8builders8DebugMap5value17hc3fc83e3ff16426eE
                0x0000000000115a78      0x158 ./gen/../tecsrust_uart_led_sample/target/armv7a-none-eabi/release/libitron.a(core-d049573bc16596f9.core.5587a85061e7188a-cgu.0.rcgu.o)
                0x0000000000115a78                core::fmt::builders::DebugMap::value
 .text._ZN4core3fmt8builders8DebugMap21finish_non_exhaustive17h1d063c8fc17c4fa1E
                0x0000000000115bd0      0x118 ./gen/../tecsrust_uart_led_sample/target/armv7a-none-eabi/release/libitron.a(core-d049573bc16596f9.core.5587a85061e7188a-cgu.0.rcgu.o)
                0x0000000000115bd0                core::fmt::builders::DebugMap::finish_non_exhaustive
 .text._ZN4core3fmt8builders8DebugMap6finish17h87c976a15d36c1beE
                0x0000000000115ce8       0x8c ./gen/../tecsrust_uart_led_sample/target/armv7a-none-eabi/release/libitron.a(core-d049573bc16596f9.core.5587a85061e7188a-cgu.0.rcgu.o)
                0x0000000000115ce8                core::fmt::builders::DebugMap::finish
 .text._ZN4core3fmt5float29float_to_decimal_common_exact17h7d85dbe2887defb2E
                0x0000000000115d74      0x354 ./gen/../tecsrust_uart_led_sample/target/armv7a-none-eabi/release/libitron.a(core-d049573bc16596f9.core.5587a85061e7188a-cgu.0.rcgu.o)
 .text._ZN4core3fmt5float29float_to_decimal_common_exact17hb8ecc3a298064d1fE
                0x00000000001160c8      0x318 ./gen/../tecsrust_uart_led_sample/target/armv7a-none-eabi/release/libitron.a(core-d049573bc16596f9.core.5587a85061e7188a-cgu.0.rcgu.o)
 .text._ZN4core3fmt5float29float_to_decimal_common_exact17hc4ee8b5197ebb838E
                0x00000000001163e0      0x328 ./gen/../tecsrust_uart_led_sample/target/armv7a-none-eabi/release/libitron.a(core-d049573bc16596f9.core.5587a85061e7188a-cgu.0.rcgu.o)
 .text._ZN4core3fmt5float32float_to_decimal_common_shortest17h57f1a97492206944E
                0x0000000000116708      0x258 ./gen/../tecsrust_uart_led_sample/target/armv7a-none-eabi/release/libitron.a(core-d049573bc16596f9.core.5587a85061e7188a-cgu.0.rcgu.o)
 .text._ZN4core3fmt5float32float_to_decimal_common_shortest17hd1530ac16dbab458E
                0x0000000000116960      0x29c ./gen/../tecsrust_uart_led_sample/target/armv7a-none-eabi/release/libitron.a(core-d049573bc16596f9.core.5587a85061e7188a-cgu.0.rcgu.o)
 .text._ZN4core3fmt5float32float_to_decimal_common_shortest17hf774af481b6739e1E
                0x0000000000116bfc      0x268 ./gen/../tecsrust_uart_led_sample/target/armv7a-none-eabi/release/libitron.a(core-d049573bc16596f9.core.5587a85061e7188a-cgu.0.rcgu.o)
 .text._ZN4core3fmt5float33float_to_exponential_common_exact17h475946fbe25c96b4E
                0x0000000000116e64      0x350 ./gen/../tecsrust_uart_led_sample/target/armv7a-none-eabi/release/libitron.a(core-d049573bc16596f9.core.5587a85061e7188a-cgu.0.rcgu.o)
 .text._ZN4core3fmt5float33float_to_exponential_common_exact17h58c854a839c522b9E
                0x00000000001171b4      0x348 ./gen/../tecsrust_uart_led_sample/target/armv7a-none-eabi/release/libitron.a(core-d049573bc16596f9.core.5587a85061e7188a-cgu.0.rcgu.o)
 .text._ZN4core3fmt5float33float_to_exponential_common_exact17hf8c347a31f005498E
                0x00000000001174fc      0x394 ./gen/../tecsrust_uart_led_sample/target/armv7a-none-eabi/release/libitron.a(core-d049573bc16596f9.core.5587a85061e7188a-cgu.0.rcgu.o)
 .text._ZN4core3fmt5float36float_to_exponential_common_shortest17h110c73098256b07dE
                0x0000000000117890      0x300 ./gen/../tecsrust_uart_led_sample/target/armv7a-none-eabi/release/libitron.a(core-d049573bc16596f9.core.5587a85061e7188a-cgu.0.rcgu.o)
 .text._ZN4core3fmt5float36float_to_exponential_common_shortest17hc2048c8ca710d24cE
                0x0000000000117b90      0x35c ./gen/../tecsrust_uart_led_sample/target/armv7a-none-eabi/release/libitron.a(core-d049573bc16596f9.core.5587a85061e7188a-cgu.0.rcgu.o)
 .text._ZN4core3fmt5float36float_to_exponential_common_shortest17hded788cc3690643fE
                0x0000000000117eec      0x320 ./gen/../tecsrust_uart_led_sample/target/armv7a-none-eabi/release/libitron.a(core-d049573bc16596f9.core.5587a85061e7188a-cgu.0.rcgu.o)
 .text._ZN4core3fmt3num14parse_u64_into17hdae6f27d721cd177E
                0x000000000011820c      0x494 ./gen/../tecsrust_uart_led_sample/target/armv7a-none-eabi/release/libitron.a(core-d049573bc16596f9.core.5587a85061e7188a-cgu.0.rcgu.o)
 .text._ZN4core3fmt3num53_$LT$impl$u20$core..fmt..Display$u20$for$u20$u128$GT$3fmt17he162d142fdfbe23dE
                0x00000000001186a0       0x30 ./gen/../tecsrust_uart_led_sample/target/armv7a-none-eabi/release/libitron.a(core-d049573bc16596f9.core.5587a85061e7188a-cgu.0.rcgu.o)
                0x00000000001186a0                core::fmt::num::<impl core::fmt::Display for u128>::fmt
 .text._ZN4core3fmt3num53_$LT$impl$u20$core..fmt..Display$u20$for$u20$i128$GT$3fmt17h41041c0cb7d944acE
                0x00000000001186d0       0x54 ./gen/../tecsrust_uart_led_sample/target/armv7a-none-eabi/release/libitron.a(core-d049573bc16596f9.core.5587a85061e7188a-cgu.0.rcgu.o)
                0x00000000001186d0                core::fmt::num::<impl core::fmt::Display for i128>::fmt
 .text._ZN4core3fmt3num8fmt_u12817h3ce49e52aad09f7aE
                0x0000000000118724      0x2b0 ./gen/../tecsrust_uart_led_sample/target/armv7a-none-eabi/release/libitron.a(core-d049573bc16596f9.core.5587a85061e7188a-cgu.0.rcgu.o)
 .text._ZN4core3fmt5Write10write_char17h0deb656a130510dcE
                0x00000000001189d4       0xec ./gen/../tecsrust_uart_led_sample/target/armv7a-none-eabi/release/libitron.a(core-d049573bc16596f9.core.5587a85061e7188a-cgu.0.rcgu.o)
 .text._ZN4core3fmt5Write10write_char17h121006013e2c64bdE
                0x0000000000118ac0       0xec ./gen/../tecsrust_uart_led_sample/target/armv7a-none-eabi/release/libitron.a(core-d049573bc16596f9.core.5587a85061e7188a-cgu.0.rcgu.o)
 .text._ZN4core3fmt5Write10write_char17h20c6982f67c5a14cE
                0x0000000000118bac       0xec ./gen/../tecsrust_uart_led_sample/target/armv7a-none-eabi/release/libitron.a(core-d049573bc16596f9.core.5587a85061e7188a-cgu.0.rcgu.o)
 .text._ZN4core3fmt5Write10write_char17h884d76389de57237E
                0x0000000000118c98       0xec ./gen/../tecsrust_uart_led_sample/target/armv7a-none-eabi/release/libitron.a(core-d049573bc16596f9.core.5587a85061e7188a-cgu.0.rcgu.o)
 .text._ZN4core3fmt5Write9write_fmt17h07c1169efed3c695E
                0x0000000000118d84       0x1c ./gen/../tecsrust_uart_led_sample/target/armv7a-none-eabi/release/libitron.a(core-d049573bc16596f9.core.5587a85061e7188a-cgu.0.rcgu.o)
 .text._ZN4core3fmt5Write9write_fmt17h32196b9e35a8bbc2E
                0x0000000000118da0       0x1c ./gen/../tecsrust_uart_led_sample/target/armv7a-none-eabi/release/libitron.a(core-d049573bc16596f9.core.5587a85061e7188a-cgu.0.rcgu.o)
 .text._ZN4core3fmt5Write9write_fmt17h8420373094f7f4f3E
                0x0000000000118dbc       0x1c ./gen/../tecsrust_uart_led_sample/target/armv7a-none-eabi/release/libitron.a(core-d049573bc16596f9.core.5587a85061e7188a-cgu.0.rcgu.o)
 .text._ZN4core3fmt5Write9write_fmt17ha93132b80607745fE
                0x0000000000118dd8       0x1c ./gen/../tecsrust_uart_led_sample/target/armv7a-none-eabi/release/libitron.a(core-d049573bc16596f9.core.5587a85061e7188a-cgu.0.rcgu.o)
 .text._ZN4core3fmt5Write9write_fmt17he315d962ad1b87f3E
                0x0000000000118df4       0x1c ./gen/../tecsrust_uart_led_sample/target/armv7a-none-eabi/release/libitron.a(core-d049573bc16596f9.core.5587a85061e7188a-cgu.0.rcgu.o)
 .text._ZN4core3fmt17FormattingOptions8get_fill17ha364eba16e39e9f9E
                0x0000000000118e10       0x14 ./gen/../tecsrust_uart_led_sample/target/armv7a-none-eabi/release/libitron.a(core-d049573bc16596f9.core.5587a85061e7188a-cgu.0.rcgu.o)
                0x0000000000118e10                core::fmt::FormattingOptions::get_fill
 .text._ZN57_$LT$core..fmt..Arguments$u20$as$u20$core..fmt..Debug$GT$3fmt17hecd0089d3e424aecE
                0x0000000000118e24       0x18 ./gen/../tecsrust_uart_led_sample/target/armv7a-none-eabi/release/libitron.a(core-d049573bc16596f9.core.5587a85061e7188a-cgu.0.rcgu.o)
                0x0000000000118e24                <core::fmt::Arguments as core::fmt::Debug>::fmt
 .text._ZN59_$LT$core..fmt..Arguments$u20$as$u20$core..fmt..Display$GT$3fmt17hcd13995007f793f4E
                0x0000000000118e3c       0x18 ./gen/../tecsrust_uart_led_sample/target/armv7a-none-eabi/release/libitron.a(core-d049573bc16596f9.core.5587a85061e7188a-cgu.0.rcgu.o)
                0x0000000000118e3c                <core::fmt::Arguments as core::fmt::Display>::fmt
 .text._ZN4core3fmt5write17hb714253c1b9e952cE
                0x0000000000118e54      0x208 ./gen/../tecsrust_uart_led_sample/target/armv7a-none-eabi/release/libitron.a(core-d049573bc16596f9.core.5587a85061e7188a-cgu.0.rcgu.o)
                0x0000000000118e54                core::fmt::write
 .text._ZN4core3fmt9Formatter12pad_integral17hec47f37da301c049E
                0x000000000011905c      0x300 ./gen/../tecsrust_uart_led_sample/target/armv7a-none-eabi/release/libitron.a(core-d049573bc16596f9.core.5587a85061e7188a-cgu.0.rcgu.o)
                0x000000000011905c                core::fmt::Formatter::pad_integral
 .text._ZN4core3fmt9Formatter12pad_integral12write_prefix17hc4c0a7a0c94985adE
                0x000000000011935c       0x68 ./gen/../tecsrust_uart_led_sample/target/armv7a-none-eabi/release/libitron.a(core-d049573bc16596f9.core.5587a85061e7188a-cgu.0.rcgu.o)
 .text._ZN4core3fmt9Formatter3pad17h8e247c0c6f258b85E
                0x00000000001193c4      0x228 ./gen/../tecsrust_uart_led_sample/target/armv7a-none-eabi/release/libitron.a(core-d049573bc16596f9.core.5587a85061e7188a-cgu.0.rcgu.o)
                0x00000000001193c4                core::fmt::Formatter::pad
 .text._ZN4core3fmt9Formatter19pad_formatted_parts17ha476f236f4259153E
                0x00000000001195ec      0x26c ./gen/../tecsrust_uart_led_sample/target/armv7a-none-eabi/release/libitron.a(core-d049573bc16596f9.core.5587a85061e7188a-cgu.0.rcgu.o)
 .text._ZN4core3fmt9Formatter21write_formatted_parts17h76662c6af77af83aE
                0x0000000000119858      0x280 ./gen/../tecsrust_uart_led_sample/target/armv7a-none-eabi/release/libitron.a(core-d049573bc16596f9.core.5587a85061e7188a-cgu.0.rcgu.o)
 .text._ZN4core3fmt9Formatter9write_str17hdfb7ca2c4bb7964eE
                0x0000000000119ad8       0x18 ./gen/../tecsrust_uart_led_sample/target/armv7a-none-eabi/release/libitron.a(core-d049573bc16596f9.core.5587a85061e7188a-cgu.0.rcgu.o)
                0x0000000000119ad8                <core::fmt::Formatter as core::fmt::Write>::write_str
                0x0000000000119ad8                core::fmt::Formatter::write_str
 .text._ZN4core3fmt9Formatter4fill17hffaa17a0e6fadb77E
                0x0000000000119af0       0x14 ./gen/../tecsrust_uart_led_sample/target/armv7a-none-eabi/release/libitron.a(core-d049573bc16596f9.core.5587a85061e7188a-cgu.0.rcgu.o)
                0x0000000000119af0                core::fmt::Formatter::fill
 .text._ZN4core3fmt9Formatter12debug_struct17he204134461ecf684E
                0x0000000000119b04       0x3c ./gen/../tecsrust_uart_led_sample/target/armv7a-none-eabi/release/libitron.a(core-d049573bc16596f9.core.5587a85061e7188a-cgu.0.rcgu.o)
                0x0000000000119b04                core::fmt::Formatter::debug_struct
 .text._ZN4core3fmt9Formatter26debug_struct_field1_finish17hfc5577f397af5417E
                0x0000000000119b40       0xc8 ./gen/../tecsrust_uart_led_sample/target/armv7a-none-eabi/release/libitron.a(core-d049573bc16596f9.core.5587a85061e7188a-cgu.0.rcgu.o)
                0x0000000000119b40                core::fmt::Formatter::debug_struct_field1_finish
 .text._ZN4core3fmt9Formatter26debug_struct_field2_finish17h250937b50b7d91dbE
                0x0000000000119c08       0xdc ./gen/../tecsrust_uart_led_sample/target/armv7a-none-eabi/release/libitron.a(core-d049573bc16596f9.core.5587a85061e7188a-cgu.0.rcgu.o)
                0x0000000000119c08                core::fmt::Formatter::debug_struct_field2_finish
 .text._ZN4core3fmt9Formatter26debug_struct_field3_finish17h2e39e36ff7dea516E
                0x0000000000119ce4       0xf0 ./gen/../tecsrust_uart_led_sample/target/armv7a-none-eabi/release/libitron.a(core-d049573bc16596f9.core.5587a85061e7188a-cgu.0.rcgu.o)
                0x0000000000119ce4                core::fmt::Formatter::debug_struct_field3_finish
 .text._ZN4core3fmt9Formatter26debug_struct_field4_finish17hd85fc51ea53a6480E
                0x0000000000119dd4      0x104 ./gen/../tecsrust_uart_led_sample/target/armv7a-none-eabi/release/libitron.a(core-d049573bc16596f9.core.5587a85061e7188a-cgu.0.rcgu.o)
                0x0000000000119dd4                core::fmt::Formatter::debug_struct_field4_finish
 .text._ZN4core3fmt9Formatter26debug_struct_field5_finish17haacbff9cf3eec5ccE
                0x0000000000119ed8      0x118 ./gen/../tecsrust_uart_led_sample/target/armv7a-none-eabi/release/libitron.a(core-d049573bc16596f9.core.5587a85061e7188a-cgu.0.rcgu.o)
                0x0000000000119ed8                core::fmt::Formatter::debug_struct_field5_finish
 .text._ZN4core3fmt9Formatter26debug_struct_fields_finish17hbc4a9600e0d1f479E
                0x0000000000119ff0      0x114 ./gen/../tecsrust_uart_led_sample/target/armv7a-none-eabi/release/libitron.a(core-d049573bc16596f9.core.5587a85061e7188a-cgu.0.rcgu.o)
                0x0000000000119ff0                core::fmt::Formatter::debug_struct_fields_finish
 .text._ZN4core3fmt9Formatter11debug_tuple17h940ad0dd22d147c8E
                0x000000000011a104       0x44 ./gen/../tecsrust_uart_led_sample/target/armv7a-none-eabi/release/libitron.a(core-d049573bc16596f9.core.5587a85061e7188a-cgu.0.rcgu.o)
                0x000000000011a104                core::fmt::Formatter::debug_tuple
 .text._ZN4core3fmt9Formatter25debug_tuple_field1_finish17h3462a89b33c73d6eE
                0x000000000011a148      0x180 ./gen/../tecsrust_uart_led_sample/target/armv7a-none-eabi/release/libitron.a(core-d049573bc16596f9.core.5587a85061e7188a-cgu.0.rcgu.o)
                0x000000000011a148                core::fmt::Formatter::debug_tuple_field1_finish
 .text._ZN4core3fmt9Formatter25debug_tuple_field2_finish17hc4dc9b596154de93E
                0x000000000011a2c8      0x1fc ./gen/../tecsrust_uart_led_sample/target/armv7a-none-eabi/release/libitron.a(core-d049573bc16596f9.core.5587a85061e7188a-cgu.0.rcgu.o)
                0x000000000011a2c8                core::fmt::Formatter::debug_tuple_field2_finish
 .text._ZN4core3fmt9Formatter25debug_tuple_field3_finish17h164749d4d77ab572E
                0x000000000011a4c4      0x2b8 ./gen/../tecsrust_uart_led_sample/target/armv7a-none-eabi/release/libitron.a(core-d049573bc16596f9.core.5587a85061e7188a-cgu.0.rcgu.o)
                0x000000000011a4c4                core::fmt::Formatter::debug_tuple_field3_finish
 .text._ZN4core3fmt9Formatter25debug_tuple_field4_finish17h87085ebfbf56e53eE
                0x000000000011a77c      0x370 ./gen/../tecsrust_uart_led_sample/target/armv7a-none-eabi/release/libitron.a(core-d049573bc16596f9.core.5587a85061e7188a-cgu.0.rcgu.o)
                0x000000000011a77c                core::fmt::Formatter::debug_tuple_field4_finish
 .text._ZN4core3fmt9Formatter25debug_tuple_field5_finish17he4dec699aac9d2a9E
                0x000000000011aaec      0x428 ./gen/../tecsrust_uart_led_sample/target/armv7a-none-eabi/release/libitron.a(core-d049573bc16596f9.core.5587a85061e7188a-cgu.0.rcgu.o)
                0x000000000011aaec                core::fmt::Formatter::debug_tuple_field5_finish
 .text._ZN4core3fmt9Formatter25debug_tuple_fields_finish17hb3065dfeca0f69b2E
                0x000000000011af14      0x2c4 ./gen/../tecsrust_uart_led_sample/target/armv7a-none-eabi/release/libitron.a(core-d049573bc16596f9.core.5587a85061e7188a-cgu.0.rcgu.o)
                0x000000000011af14                core::fmt::Formatter::debug_tuple_fields_finish
 .text._ZN4core3fmt9Formatter10debug_list17h324a4227e38e4e1cE
                0x000000000011b1d8       0x3c ./gen/../tecsrust_uart_led_sample/target/armv7a-none-eabi/release/libitron.a(core-d049573bc16596f9.core.5587a85061e7188a-cgu.0.rcgu.o)
                0x000000000011b1d8                core::fmt::Formatter::debug_list
 .text._ZN4core3fmt9Formatter9debug_set17h8342974783863c44E
                0x000000000011b214       0x3c ./gen/../tecsrust_uart_led_sample/target/armv7a-none-eabi/release/libitron.a(core-d049573bc16596f9.core.5587a85061e7188a-cgu.0.rcgu.o)
                0x000000000011b214                core::fmt::Formatter::debug_set
 .text._ZN4core3fmt9Formatter9debug_map17hd46370b77cf960edE
                0x000000000011b250       0x44 ./gen/../tecsrust_uart_led_sample/target/armv7a-none-eabi/release/libitron.a(core-d049573bc16596f9.core.5587a85061e7188a-cgu.0.rcgu.o)
                0x000000000011b250                core::fmt::Formatter::debug_map
 .text._ZN57_$LT$core..fmt..Formatter$u20$as$u20$core..fmt..Write$GT$10write_char17ha022f916fb525171E
                0x000000000011b294       0x18 ./gen/../tecsrust_uart_led_sample/target/armv7a-none-eabi/release/libitron.a(core-d049573bc16596f9.core.5587a85061e7188a-cgu.0.rcgu.o)
                0x000000000011b294                <core::fmt::Formatter as core::fmt::Write>::write_char
 .text._ZN55_$LT$core..fmt..Error$u20$as$u20$core..fmt..Display$GT$3fmt17h603b7f267edd160dE
                0x000000000011b2ac       0x20 ./gen/../tecsrust_uart_led_sample/target/armv7a-none-eabi/release/libitron.a(core-d049573bc16596f9.core.5587a85061e7188a-cgu.0.rcgu.o)
                0x000000000011b2ac                <core::fmt::Error as core::fmt::Display>::fmt
 .text._ZN43_$LT$bool$u20$as$u20$core..fmt..Display$GT$3fmt17h37b2e11049775da3E
                0x000000000011b2cc       0x48 ./gen/../tecsrust_uart_led_sample/target/armv7a-none-eabi/release/libitron.a(core-d049573bc16596f9.core.5587a85061e7188a-cgu.0.rcgu.o)
                0x000000000011b2cc                <bool as core::fmt::Display>::fmt
 .text._ZN40_$LT$str$u20$as$u20$core..fmt..Debug$GT$3fmt17hbfa9400b4ed4d146E
                0x000000000011b314      0x3e0 ./gen/../tecsrust_uart_led_sample/target/armv7a-none-eabi/release/libitron.a(core-d049573bc16596f9.core.5587a85061e7188a-cgu.0.rcgu.o)
                0x000000000011b314                <str as core::fmt::Debug>::fmt
 .text._ZN42_$LT$str$u20$as$u20$core..fmt..Display$GT$3fmt17h1a2739d2b1badf3eE
                0x000000000011b6f4       0x20 ./gen/../tecsrust_uart_led_sample/target/armv7a-none-eabi/release/libitron.a(core-d049573bc16596f9.core.5587a85061e7188a-cgu.0.rcgu.o)
                0x000000000011b6f4                <str as core::fmt::Display>::fmt
 .text._ZN41_$LT$char$u20$as$u20$core..fmt..Debug$GT$3fmt17hf8537c7d284af8e9E
                0x000000000011b714       0xb4 ./gen/../tecsrust_uart_led_sample/target/armv7a-none-eabi/release/libitron.a(core-d049573bc16596f9.core.5587a85061e7188a-cgu.0.rcgu.o)
                0x000000000011b714                <char as core::fmt::Debug>::fmt
 .text._ZN43_$LT$char$u20$as$u20$core..fmt..Display$GT$3fmt17h759ac83f19cee971E
                0x000000000011b7c8       0xec ./gen/../tecsrust_uart_led_sample/target/armv7a-none-eabi/release/libitron.a(core-d049573bc16596f9.core.5587a85061e7188a-cgu.0.rcgu.o)
                0x000000000011b7c8                <char as core::fmt::Display>::fmt
 .text._ZN4core3fmt17pointer_fmt_inner17h83d31351164c23f2E
                0x000000000011b8b4       0xa4 ./gen/../tecsrust_uart_led_sample/target/armv7a-none-eabi/release/libitron.a(core-d049573bc16596f9.core.5587a85061e7188a-cgu.0.rcgu.o)
                0x000000000011b8b4                core::fmt::pointer_fmt_inner
 .text._ZN52_$LT$$BP$const$u20$T$u20$as$u20$core..fmt..Debug$GT$3fmt17h52f0d6dcd4868dc8E
                0x000000000011b958       0xa8 ./gen/../tecsrust_uart_led_sample/target/armv7a-none-eabi/release/libitron.a(core-d049573bc16596f9.core.5587a85061e7188a-cgu.0.rcgu.o)
 .text._ZN4core5slice6memchr14memchr_aligned17hf608187b782eb764E
                0x000000000011ba00       0xfc ./gen/../tecsrust_uart_led_sample/target/armv7a-none-eabi/release/libitron.a(core-d049573bc16596f9.core.5587a85061e7188a-cgu.0.rcgu.o)
                0x000000000011ba00                core::slice::memchr::memchr_aligned
 .text._ZN4core5slice6memchr7memrchr17h1b5e6bee0cdc7e3cE
                0x000000000011bafc      0x23c ./gen/../tecsrust_uart_led_sample/target/armv7a-none-eabi/release/libitron.a(core-d049573bc16596f9.core.5587a85061e7188a-cgu.0.rcgu.o)
                0x000000000011bafc                core::slice::memchr::memrchr
 .text._ZN4core5slice4sort6stable5drift11sqrt_approx17heb7d8e344c813c3bE
                0x000000000011bd38       0x2c ./gen/../tecsrust_uart_led_sample/target/armv7a-none-eabi/release/libitron.a(core-d049573bc16596f9.core.5587a85061e7188a-cgu.0.rcgu.o)
                0x000000000011bd38                core::slice::sort::stable::drift::sqrt_approx
 .text.unlikely._ZN4core5slice4sort6shared9smallsort22panic_on_ord_violation17h26f42ac12335c738E
                0x000000000011bd64       0x44 ./gen/../tecsrust_uart_led_sample/target/armv7a-none-eabi/release/libitron.a(core-d049573bc16596f9.core.5587a85061e7188a-cgu.0.rcgu.o)
                0x000000000011bd64                core::slice::sort::shared::smallsort::panic_on_ord_violation
 .text._ZN105_$LT$core..slice..ascii..EscapeAscii$u20$as$u20$core..iter..traits..double_ended..DoubleEndedIterator$GT$9next_back17h58b0f7ecc71c56abE
                0x000000000011bda8      0x208 ./gen/../tecsrust_uart_led_sample/target/armv7a-none-eabi/release/libitron.a(core-d049573bc16596f9.core.5587a85061e7188a-cgu.0.rcgu.o)
                0x000000000011bda8                <core::slice::ascii::EscapeAscii as core::iter::traits::double_ended::DoubleEndedIterator>::next_back
 .text._ZN70_$LT$core..slice..ascii..EscapeAscii$u20$as$u20$core..fmt..Display$GT$3fmt17h29e51c0221cfc6f4E
                0x000000000011bfb0      0x268 ./gen/../tecsrust_uart_led_sample/target/armv7a-none-eabi/release/libitron.a(core-d049573bc16596f9.core.5587a85061e7188a-cgu.0.rcgu.o)
                0x000000000011bfb0                <core::slice::ascii::EscapeAscii as core::fmt::Display>::fmt
 .text._ZN68_$LT$core..slice..ascii..EscapeAscii$u20$as$u20$core..fmt..Debug$GT$3fmt17hbb33b900076cece0E
                0x000000000011c218       0x54 ./gen/../tecsrust_uart_led_sample/target/armv7a-none-eabi/release/libitron.a(core-d049573bc16596f9.core.5587a85061e7188a-cgu.0.rcgu.o)
                0x000000000011c218                <core::slice::ascii::EscapeAscii as core::fmt::Debug>::fmt
 .text.unlikely._ZN4core5slice5index26slice_start_index_len_fail17h38c824b450734dfcE
                0x000000000011c26c        0xc ./gen/../tecsrust_uart_led_sample/target/armv7a-none-eabi/release/libitron.a(core-d049573bc16596f9.core.5587a85061e7188a-cgu.0.rcgu.o)
                0x000000000011c26c                core::slice::index::slice_start_index_len_fail
 .text.unlikely._ZN4core5slice5index24slice_end_index_len_fail17hf4eb2611058c09afE
                0x000000000011c278        0xc ./gen/../tecsrust_uart_led_sample/target/armv7a-none-eabi/release/libitron.a(core-d049573bc16596f9.core.5587a85061e7188a-cgu.0.rcgu.o)
                0x000000000011c278                core::slice::index::slice_end_index_len_fail
 .text.unlikely._ZN4core5slice5index22slice_index_order_fail17hb31f14bd82bfcb5bE
                0x000000000011c284        0xc ./gen/../tecsrust_uart_led_sample/target/armv7a-none-eabi/release/libitron.a(core-d049573bc16596f9.core.5587a85061e7188a-cgu.0.rcgu.o)
                0x000000000011c284                core::slice::index::slice_index_order_fail
 .text.unlikely._ZN4core5slice5index31slice_start_index_overflow_fail17h682402ba819c482dE
                0x000000000011c290       0x40 ./gen/../tecsrust_uart_led_sample/target/armv7a-none-eabi/release/libitron.a(core-d049573bc16596f9.core.5587a85061e7188a-cgu.0.rcgu.o)
                0x000000000011c290                core::slice::index::slice_start_index_overflow_fail
 .text.unlikely._ZN4core5slice5index29slice_end_index_overflow_fail17h6d8526257621818dE
                0x000000000011c2d0       0x40 ./gen/../tecsrust_uart_led_sample/target/armv7a-none-eabi/release/libitron.a(core-d049573bc16596f9.core.5587a85061e7188a-cgu.0.rcgu.o)
                0x000000000011c2d0                core::slice::index::slice_end_index_overflow_fail
 .text._ZN4core5slice5index10into_range17h838d5809396762d6E
                0x000000000011c310       0x74 ./gen/../tecsrust_uart_led_sample/target/armv7a-none-eabi/release/libitron.a(core-d049573bc16596f9.core.5587a85061e7188a-cgu.0.rcgu.o)
                0x000000000011c310                core::slice::index::into_range
 .text._ZN4core5slice5index16into_slice_range17h4e76af1b067ea36eE
                0x000000000011c384       0x78 ./gen/../tecsrust_uart_led_sample/target/armv7a-none-eabi/release/libitron.a(core-d049573bc16596f9.core.5587a85061e7188a-cgu.0.rcgu.o)
                0x000000000011c384                core::slice::index::into_slice_range
 .text.unlikely._ZN4core5slice29_$LT$impl$u20$$u5b$T$u5d$$GT$15copy_from_slice17len_mismatch_fail17hf3c6b69109ca94ceE
                0x000000000011c3fc       0x18 ./gen/../tecsrust_uart_led_sample/target/armv7a-none-eabi/release/libitron.a(core-d049573bc16596f9.core.5587a85061e7188a-cgu.0.rcgu.o)
                0x000000000011c3fc                core::slice::<impl [T]>::copy_from_slice::len_mismatch_fail
 .text._ZN4core5slice29_$LT$impl$u20$$u5b$T$u5d$$GT$16align_to_offsets3gcd17h9ccf75cedf78b32bE
                0x000000000011c414       0x38 ./gen/../tecsrust_uart_led_sample/target/armv7a-none-eabi/release/libitron.a(core-d049573bc16596f9.core.5587a85061e7188a-cgu.0.rcgu.o)
                0x000000000011c414                core::slice::<impl [T]>::align_to_offsets::gcd
 .text._ZN71_$LT$core..slice..GetDisjointMutError$u20$as$u20$core..fmt..Display$GT$3fmt17h67ba63dcac76d19cE
                0x000000000011c44c       0x48 ./gen/../tecsrust_uart_led_sample/target/armv7a-none-eabi/release/libitron.a(core-d049573bc16596f9.core.5587a85061e7188a-cgu.0.rcgu.o)
                0x000000000011c44c                <core::slice::GetDisjointMutError as core::fmt::Display>::fmt
 .text._ZN4core3str8converts9from_utf817h69ed1439eba52b92E
                0x000000000011c494      0x260 ./gen/../tecsrust_uart_led_sample/target/armv7a-none-eabi/release/libitron.a(core-d049573bc16596f9.core.5587a85061e7188a-cgu.0.rcgu.o)
                0x000000000011c494                core::str::converts::from_utf8
 .text._ZN4core3str8converts13from_utf8_mut17h4e3a295159d63a91E
                0x000000000011c6f4      0x260 ./gen/../tecsrust_uart_led_sample/target/armv7a-none-eabi/release/libitron.a(core-d049573bc16596f9.core.5587a85061e7188a-cgu.0.rcgu.o)
                0x000000000011c6f4                core::str::converts::from_utf8_mut
 .text._ZN4core3str5count14do_count_chars17h9cffd9e3dec45553E
                0x000000000011c954      0x240 ./gen/../tecsrust_uart_led_sample/target/armv7a-none-eabi/release/libitron.a(core-d049573bc16596f9.core.5587a85061e7188a-cgu.0.rcgu.o)
                0x000000000011c954                core::str::count::do_count_chars
 .text._ZN4core3str5count23char_count_general_case17h4d4c6ce16c4d1906E
                0x000000000011cb94       0x34 ./gen/../tecsrust_uart_led_sample/target/armv7a-none-eabi/release/libitron.a(core-d049573bc16596f9.core.5587a85061e7188a-cgu.0.rcgu.o)
                0x000000000011cb94                core::str::count::char_count_general_case
 .text._ZN66_$LT$core..str..error..Utf8Error$u20$as$u20$core..fmt..Display$GT$3fmt17h291d6cbe57b75336E
                0x000000000011cbc8       0xb8 ./gen/../tecsrust_uart_led_sample/target/armv7a-none-eabi/release/libitron.a(core-d049573bc16596f9.core.5587a85061e7188a-cgu.0.rcgu.o)
                0x000000000011cbc8                <core::str::error::Utf8Error as core::fmt::Display>::fmt
 .text._ZN71_$LT$core..str..error..ParseBoolError$u20$as$u20$core..fmt..Display$GT$3fmt17h8ff3dff7cf95e9f3E
                0x000000000011cc80       0x20 ./gen/../tecsrust_uart_led_sample/target/armv7a-none-eabi/release/libitron.a(core-d049573bc16596f9.core.5587a85061e7188a-cgu.0.rcgu.o)
                0x000000000011cc80                <core::str::error::ParseBoolError as core::fmt::Display>::fmt
 .text._ZN59_$LT$core..str..iter..Chars$u20$as$u20$core..fmt..Debug$GT$3fmt17hc296714f5aca8f63E
                0x000000000011cca0      0x720 ./gen/../tecsrust_uart_led_sample/target/armv7a-none-eabi/release/libitron.a(core-d049573bc16596f9.core.5587a85061e7188a-cgu.0.rcgu.o)
                0x000000000011cca0                <core::str::iter::Chars as core::fmt::Debug>::fmt
 .text._ZN65_$LT$core..str..iter..EncodeUtf16$u20$as$u20$core..fmt..Debug$GT$3fmt17h470f6ac5da350b32E
                0x000000000011d3c0       0x54 ./gen/../tecsrust_uart_led_sample/target/armv7a-none-eabi/release/libitron.a(core-d049573bc16596f9.core.5587a85061e7188a-cgu.0.rcgu.o)
                0x000000000011d3c0                <core::str::iter::EncodeUtf16 as core::fmt::Debug>::fmt
 .text.unlikely._ZN4core3str6traits23str_index_overflow_fail17h8bf11899d5e405f7E
                0x000000000011d414       0x40 ./gen/../tecsrust_uart_led_sample/target/armv7a-none-eabi/release/libitron.a(core-d049573bc16596f9.core.5587a85061e7188a-cgu.0.rcgu.o)
                0x000000000011d414                core::str::traits::str_index_overflow_fail
 .text._ZN4core3str7pattern11StrSearcher3new17h9540c37606476449E
                0x000000000011d454      0x4a4 ./gen/../tecsrust_uart_led_sample/target/armv7a-none-eabi/release/libitron.a(core-d049573bc16596f9.core.5587a85061e7188a-cgu.0.rcgu.o)
                0x000000000011d454                core::str::pattern::StrSearcher::new
 .text._ZN60_$LT$core..str..lossy..Debug$u20$as$u20$core..fmt..Debug$GT$3fmt17h8e77771fab7a2f70E
                0x000000000011d8f8      0x430 ./gen/../tecsrust_uart_led_sample/target/armv7a-none-eabi/release/libitron.a(core-d049573bc16596f9.core.5587a85061e7188a-cgu.0.rcgu.o)
                0x000000000011d8f8                <core::str::lossy::Debug as core::fmt::Debug>::fmt
 .text._ZN87_$LT$core..str..lossy..Utf8Chunks$u20$as$u20$core..iter..traits..iterator..Iterator$GT$4next17he7d6cc4011e7786bE
                0x000000000011dd28      0x1e0 ./gen/../tecsrust_uart_led_sample/target/armv7a-none-eabi/release/libitron.a(core-d049573bc16596f9.core.5587a85061e7188a-cgu.0.rcgu.o)
                0x000000000011dd28                <core::str::lossy::Utf8Chunks as core::iter::traits::iterator::Iterator>::next
 .text._ZN65_$LT$core..str..lossy..Utf8Chunks$u20$as$u20$core..fmt..Debug$GT$3fmt17h9c45e8ae8211e985E
                0x000000000011df08       0xe8 ./gen/../tecsrust_uart_led_sample/target/armv7a-none-eabi/release/libitron.a(core-d049573bc16596f9.core.5587a85061e7188a-cgu.0.rcgu.o)
                0x000000000011df08                <core::str::lossy::Utf8Chunks as core::fmt::Debug>::fmt
 .text.unlikely._ZN4core3str16slice_error_fail17h4d59bc1e755bbe4fE
                0x000000000011dff0       0x18 ./gen/../tecsrust_uart_led_sample/target/armv7a-none-eabi/release/libitron.a(core-d049573bc16596f9.core.5587a85061e7188a-cgu.0.rcgu.o)
                0x000000000011dff0                core::str::slice_error_fail
 .text.unlikely._ZN4core3str19slice_error_fail_ct17hb73804428b3ba7caE
                0x000000000011e008       0x40 ./gen/../tecsrust_uart_led_sample/target/armv7a-none-eabi/release/libitron.a(core-d049573bc16596f9.core.5587a85061e7188a-cgu.0.rcgu.o)
                0x000000000011e008                core::str::slice_error_fail_ct
 .text._ZN4core3str19slice_error_fail_rt17h7b2b73d8d28473e0E
                0x000000000011e048      0x3d4 ./gen/../tecsrust_uart_led_sample/target/armv7a-none-eabi/release/libitron.a(core-d049573bc16596f9.core.5587a85061e7188a-cgu.0.rcgu.o)
                0x000000000011e048                core::str::slice_error_fail_rt
 .text._ZN4core3str21_$LT$impl$u20$str$GT$9from_utf817h9c50c6b49793a8caE
                0x000000000011e41c       0x10 ./gen/../tecsrust_uart_led_sample/target/armv7a-none-eabi/release/libitron.a(core-d049573bc16596f9.core.5587a85061e7188a-cgu.0.rcgu.o)
                0x000000000011e41c                core::str::<impl str>::from_utf8
 .text._ZN4core3str21_$LT$impl$u20$str$GT$13from_utf8_mut17hf789198352a0c0d6E
                0x000000000011e42c       0x10 ./gen/../tecsrust_uart_led_sample/target/armv7a-none-eabi/release/libitron.a(core-d049573bc16596f9.core.5587a85061e7188a-cgu.0.rcgu.o)
                0x000000000011e42c                core::str::<impl str>::from_utf8_mut
 .text._ZN4core3str21_$LT$impl$u20$str$GT$18split_at_unchecked17h522070e8531a247cE
                0x000000000011e43c       0x20 ./gen/../tecsrust_uart_led_sample/target/armv7a-none-eabi/release/libitron.a(core-d049573bc16596f9.core.5587a85061e7188a-cgu.0.rcgu.o)
                0x000000000011e43c                core::str::<impl str>::split_at_unchecked
 .text._ZN4core3str21_$LT$impl$u20$str$GT$22split_at_mut_unchecked17h188b8cf0a61e80b3E
                0x000000000011e45c       0x20 ./gen/../tecsrust_uart_led_sample/target/armv7a-none-eabi/release/libitron.a(core-d049573bc16596f9.core.5587a85061e7188a-cgu.0.rcgu.o)
                0x000000000011e45c                core::str::<impl str>::split_at_mut_unchecked
 .text._ZN4core3str21_$LT$impl$u20$str$GT$12escape_debug17h4c843b37cf90aab8E
                0x000000000011e47c      0x13c ./gen/../tecsrust_uart_led_sample/target/armv7a-none-eabi/release/libitron.a(core-d049573bc16596f9.core.5587a85061e7188a-cgu.0.rcgu.o)
                0x000000000011e47c                core::str::<impl str>::escape_debug
 .text._ZN4core3str21_$LT$impl$u20$str$GT$12substr_range17ha623b8a5a8d1bca1E
                0x000000000011e5b8       0x30 ./gen/../tecsrust_uart_led_sample/target/armv7a-none-eabi/release/libitron.a(core-d049573bc16596f9.core.5587a85061e7188a-cgu.0.rcgu.o)
                0x000000000011e5b8                core::str::<impl str>::substr_range
 .text._ZN57_$LT$core..time..Duration$u20$as$u20$core..fmt..Debug$GT$3fmt17hcd9ec431bc2fce92E
                0x000000000011e5e8      0x160 ./gen/../tecsrust_uart_led_sample/target/armv7a-none-eabi/release/libitron.a(core-d049573bc16596f9.core.5587a85061e7188a-cgu.0.rcgu.o)
                0x000000000011e5e8                <core::time::Duration as core::fmt::Debug>::fmt
 .text._ZN57_$LT$core..time..Duration$u20$as$u20$core..fmt..Debug$GT$3fmt11fmt_decimal17h7fdaad1885d942cdE
                0x000000000011e748      0x730 ./gen/../tecsrust_uart_led_sample/target/armv7a-none-eabi/release/libitron.a(core-d049573bc16596f9.core.5587a85061e7188a-cgu.0.rcgu.o)
 .text._ZN57_$LT$core..time..Duration$u20$as$u20$core..fmt..Debug$GT$3fmt11fmt_decimal28_$u7b$$u7b$closure$u7d$$u7d$17hbee2c0b3604668e7E
                0x000000000011ee78      0x260 ./gen/../tecsrust_uart_led_sample/target/armv7a-none-eabi/release/libitron.a(core-d049573bc16596f9.core.5587a85061e7188a-cgu.0.rcgu.o)
 .text._ZN72_$LT$core..time..TryFromFloatSecsError$u20$as$u20$core..fmt..Display$GT$3fmt17hbbacbc01f2a2ba20E
                0x000000000011f0d8       0x48 ./gen/../tecsrust_uart_led_sample/target/armv7a-none-eabi/release/libitron.a(core-d049573bc16596f9.core.5587a85061e7188a-cgu.0.rcgu.o)
                0x000000000011f0d8                <core::time::TryFromFloatSecsError as core::fmt::Display>::fmt
 .text._ZN4core7unicode9printable5check17hc9e6c3ef98e586f8E
                0x000000000011f120      0x124 ./gen/../tecsrust_uart_led_sample/target/armv7a-none-eabi/release/libitron.a(core-d049573bc16596f9.core.5587a85061e7188a-cgu.0.rcgu.o)
 .text._ZN4core7unicode9printable12is_printable17he99174ef5bcc9597E
                0x000000000011f244      0x1c0 ./gen/../tecsrust_uart_led_sample/target/armv7a-none-eabi/release/libitron.a(core-d049573bc16596f9.core.5587a85061e7188a-cgu.0.rcgu.o)
                0x000000000011f244                core::unicode::printable::is_printable
 .text._ZN62_$LT$core..task..wake..Context$u20$as$u20$core..fmt..Debug$GT$3fmt17h2b9656f805ec1368E
                0x000000000011f404       0xdc ./gen/../tecsrust_uart_led_sample/target/armv7a-none-eabi/release/libitron.a(core-d049573bc16596f9.core.5587a85061e7188a-cgu.0.rcgu.o)
                0x000000000011f404                <core::task::wake::Context as core::fmt::Debug>::fmt
 .text._ZN60_$LT$core..task..wake..Waker$u20$as$u20$core..fmt..Debug$GT$3fmt17h961c0fb15e9f08e6E
                0x000000000011f4e0      0x104 ./gen/../tecsrust_uart_led_sample/target/armv7a-none-eabi/release/libitron.a(core-d049573bc16596f9.core.5587a85061e7188a-cgu.0.rcgu.o)
                0x000000000011f4e0                <core::task::wake::Waker as core::fmt::Debug>::fmt
 .text._ZN65_$LT$core..task..wake..LocalWaker$u20$as$u20$core..fmt..Debug$GT$3fmt17h9f8823dc3c851087E
                0x000000000011f5e4      0x104 ./gen/../tecsrust_uart_led_sample/target/armv7a-none-eabi/release/libitron.a(core-d049573bc16596f9.core.5587a85061e7188a-cgu.0.rcgu.o)
                0x000000000011f5e4                <core::task::wake::LocalWaker as core::fmt::Debug>::fmt
 .text._ZN4core5alloc6layout6Layout19is_size_align_valid17hf9c352be39c461d0E
                0x000000000011f6e8       0x34 ./gen/../tecsrust_uart_led_sample/target/armv7a-none-eabi/release/libitron.a(core-d049573bc16596f9.core.5587a85061e7188a-cgu.0.rcgu.o)
                0x000000000011f6e8                core::alloc::layout::Layout::is_size_align_valid
 .text._ZN71_$LT$core..alloc..layout..LayoutError$u20$as$u20$core..fmt..Display$GT$3fmt17hdfc7ce4964ee7964E
                0x000000000011f71c       0x24 ./gen/../tecsrust_uart_led_sample/target/armv7a-none-eabi/release/libitron.a(core-d049573bc16596f9.core.5587a85061e7188a-cgu.0.rcgu.o)
                0x000000000011f71c                <core::alloc::layout::LayoutError as core::fmt::Display>::fmt
 .text._ZN62_$LT$core..alloc..AllocError$u20$as$u20$core..fmt..Display$GT$3fmt17h096a3621f7a659a9E
                0x000000000011f740       0x24 ./gen/../tecsrust_uart_led_sample/target/armv7a-none-eabi/release/libitron.a(core-d049573bc16596f9.core.5587a85061e7188a-cgu.0.rcgu.o)
                0x000000000011f740                <core::alloc::AllocError as core::fmt::Display>::fmt
 .text.unlikely._ZN4core3f3221_$LT$impl$u20$f32$GT$5clamp8do_panic7runtime17hd78a99da53448aa4E
                0x000000000011f764       0x64 ./gen/../tecsrust_uart_led_sample/target/armv7a-none-eabi/release/libitron.a(core-d049573bc16596f9.core.5587a85061e7188a-cgu.0.rcgu.o)
                0x000000000011f764                core::f32::<impl f32>::clamp::do_panic::runtime
 .text.unlikely._ZN4core3f6421_$LT$impl$u20$f64$GT$5clamp8do_panic7runtime17h70e260bb90954182E
                0x000000000011f7c8       0x64 ./gen/../tecsrust_uart_led_sample/target/armv7a-none-eabi/release/libitron.a(core-d049573bc16596f9.core.5587a85061e7188a-cgu.0.rcgu.o)
                0x000000000011f7c8                core::f64::<impl f64>::clamp::do_panic::runtime
 .text._ZN49_$LT$u8$u20$as$u20$core..num..bignum..FullOps$GT$12full_div_rem17h2cc384f2d3e77a4fE
                0x000000000011f82c       0x3c ./gen/../tecsrust_uart_led_sample/target/armv7a-none-eabi/release/libitron.a(core-d049573bc16596f9.core.5587a85061e7188a-cgu.0.rcgu.o)
                0x000000000011f82c                <u8 as core::num::bignum::FullOps>::full_div_rem
 .text._ZN50_$LT$u16$u20$as$u20$core..num..bignum..FullOps$GT$12full_div_rem17h895795127941bc5fE
                0x000000000011f868       0x3c ./gen/../tecsrust_uart_led_sample/target/armv7a-none-eabi/release/libitron.a(core-d049573bc16596f9.core.5587a85061e7188a-cgu.0.rcgu.o)
                0x000000000011f868                <u16 as core::num::bignum::FullOps>::full_div_rem
 .text._ZN50_$LT$u32$u20$as$u20$core..num..bignum..FullOps$GT$12full_div_rem17h28797f3a608675a0E
                0x000000000011f8a4       0x3c ./gen/../tecsrust_uart_led_sample/target/armv7a-none-eabi/release/libitron.a(core-d049573bc16596f9.core.5587a85061e7188a-cgu.0.rcgu.o)
                0x000000000011f8a4                <u32 as core::num::bignum::FullOps>::full_div_rem
 .text._ZN4core3num6bignum8Big32x408from_u6417hdb3b6b903cdc3a74E
                0x000000000011f8e0       0x48 ./gen/../tecsrust_uart_led_sample/target/armv7a-none-eabi/release/libitron.a(core-d049573bc16596f9.core.5587a85061e7188a-cgu.0.rcgu.o)
                0x000000000011f8e0                core::num::bignum::Big32x40::from_u64
 .text._ZN4core3num6bignum8Big32x406digits17hc74a7300cf748785E
                0x000000000011f928       0x28 ./gen/../tecsrust_uart_led_sample/target/armv7a-none-eabi/release/libitron.a(core-d049573bc16596f9.core.5587a85061e7188a-cgu.0.rcgu.o)
                0x000000000011f928                core::num::bignum::Big32x40::digits
 .text._ZN4core3num6bignum8Big32x407get_bit17hae59a386b0269424E
                0x000000000011f950       0x3c ./gen/../tecsrust_uart_led_sample/target/armv7a-none-eabi/release/libitron.a(core-d049573bc16596f9.core.5587a85061e7188a-cgu.0.rcgu.o)
                0x000000000011f950                core::num::bignum::Big32x40::get_bit
 .text._ZN4core3num6bignum8Big32x407is_zero17h00d7531c94d29d9dE
                0x000000000011f98c       0x54 ./gen/../tecsrust_uart_led_sample/target/armv7a-none-eabi/release/libitron.a(core-d049573bc16596f9.core.5587a85061e7188a-cgu.0.rcgu.o)
                0x000000000011f98c                core::num::bignum::Big32x40::is_zero
 .text._ZN4core3num6bignum8Big32x4010bit_length17h970dea92bc07a054E
                0x000000000011f9e0       0x88 ./gen/../tecsrust_uart_led_sample/target/armv7a-none-eabi/release/libitron.a(core-d049573bc16596f9.core.5587a85061e7188a-cgu.0.rcgu.o)
                0x000000000011f9e0                core::num::bignum::Big32x40::bit_length
 .text._ZN4core3num6bignum8Big32x403add17hf98911729d873c67E
                0x000000000011fa68       0xbc ./gen/../tecsrust_uart_led_sample/target/armv7a-none-eabi/release/libitron.a(core-d049573bc16596f9.core.5587a85061e7188a-cgu.0.rcgu.o)
                0x000000000011fa68                core::num::bignum::Big32x40::add
 .text._ZN4core3num6bignum8Big32x409add_small17hae56cb6d24b5dd80E
                0x000000000011fb24      0x34c ./gen/../tecsrust_uart_led_sample/target/armv7a-none-eabi/release/libitron.a(core-d049573bc16596f9.core.5587a85061e7188a-cgu.0.rcgu.o)
                0x000000000011fb24                core::num::bignum::Big32x40::add_small
 .text._ZN4core3num6bignum8Big32x403sub17h8543d30192c621ccE
                0x000000000011fe70       0xa0 ./gen/../tecsrust_uart_led_sample/target/armv7a-none-eabi/release/libitron.a(core-d049573bc16596f9.core.5587a85061e7188a-cgu.0.rcgu.o)
                0x000000000011fe70                core::num::bignum::Big32x40::sub
 .text._ZN4core3num6bignum8Big32x409mul_small17h34ad2799e68baebeE
                0x000000000011ff10       0xa0 ./gen/../tecsrust_uart_led_sample/target/armv7a-none-eabi/release/libitron.a(core-d049573bc16596f9.core.5587a85061e7188a-cgu.0.rcgu.o)
                0x000000000011ff10                core::num::bignum::Big32x40::mul_small
 .text._ZN4core3num6bignum8Big32x408mul_pow217h15e29a86c60dd6baE
                0x000000000011ffb0      0x314 ./gen/../tecsrust_uart_led_sample/target/armv7a-none-eabi/release/libitron.a(core-d049573bc16596f9.core.5587a85061e7188a-cgu.0.rcgu.o)
                0x000000000011ffb0                core::num::bignum::Big32x40::mul_pow2
 .text._ZN4core3num6bignum8Big32x408mul_pow517h4477c92c4a717ba9E
                0x00000000001202c4      0x130 ./gen/../tecsrust_uart_led_sample/target/armv7a-none-eabi/release/libitron.a(core-d049573bc16596f9.core.5587a85061e7188a-cgu.0.rcgu.o)
                0x00000000001202c4                core::num::bignum::Big32x40::mul_pow5
 .text._ZN4core3num6bignum8Big32x4010mul_digits17hc6f1ffa637e3696eE
                0x00000000001203f4      0x2f0 ./gen/../tecsrust_uart_led_sample/target/armv7a-none-eabi/release/libitron.a(core-d049573bc16596f9.core.5587a85061e7188a-cgu.0.rcgu.o)
                0x00000000001203f4                core::num::bignum::Big32x40::mul_digits
 .text._ZN4core3num6bignum8Big32x4013div_rem_small17hddc1707b10a22fddE
                0x00000000001206e4       0x98 ./gen/../tecsrust_uart_led_sample/target/armv7a-none-eabi/release/libitron.a(core-d049573bc16596f9.core.5587a85061e7188a-cgu.0.rcgu.o)
                0x00000000001206e4                core::num::bignum::Big32x40::div_rem_small
 .text._ZN4core3num6bignum8Big32x407div_rem17h0bf0c17f8e59470eE
                0x000000000012077c      0x294 ./gen/../tecsrust_uart_led_sample/target/armv7a-none-eabi/release/libitron.a(core-d049573bc16596f9.core.5587a85061e7188a-cgu.0.rcgu.o)
                0x000000000012077c                core::num::bignum::Big32x40::div_rem
 .text._ZN68_$LT$core..num..bignum..Big32x40$u20$as$u20$core..cmp..PartialEq$GT$2eq17h2b3b2b69262323daE
                0x0000000000120a10       0x1c ./gen/../tecsrust_uart_led_sample/target/armv7a-none-eabi/release/libitron.a(core-d049573bc16596f9.core.5587a85061e7188a-cgu.0.rcgu.o)
                0x0000000000120a10                <core::num::bignum::Big32x40 as core::cmp::PartialEq>::eq
 .text._ZN69_$LT$core..num..bignum..Big32x40$u20$as$u20$core..cmp..PartialOrd$GT$11partial_cmp17hfaa047bbd7529c6dE
                0x0000000000120a2c       0x80 ./gen/../tecsrust_uart_led_sample/target/armv7a-none-eabi/release/libitron.a(core-d049573bc16596f9.core.5587a85061e7188a-cgu.0.rcgu.o)
                0x0000000000120a2c                <core::num::bignum::Big32x40 as core::cmp::PartialOrd>::partial_cmp
 .text._ZN62_$LT$core..num..bignum..Big32x40$u20$as$u20$core..cmp..Ord$GT$3cmp17h3a927d79b9dd52acE
                0x0000000000120aac       0x80 ./gen/../tecsrust_uart_led_sample/target/armv7a-none-eabi/release/libitron.a(core-d049573bc16596f9.core.5587a85061e7188a-cgu.0.rcgu.o)
                0x0000000000120aac                <core::num::bignum::Big32x40 as core::cmp::Ord>::cmp
 .text._ZN64_$LT$core..num..bignum..Big32x40$u20$as$u20$core..fmt..Debug$GT$3fmt17hc2049124d32db79eE
                0x0000000000120b2c      0x154 ./gen/../tecsrust_uart_led_sample/target/armv7a-none-eabi/release/libitron.a(core-d049573bc16596f9.core.5587a85061e7188a-cgu.0.rcgu.o)
                0x0000000000120b2c                <core::num::bignum::Big32x40 as core::fmt::Debug>::fmt
 .text._ZN4core3num6bignum5tests6Big8x38from_u6417hd68b6d9a5152475dE
                0x0000000000120c80       0x98 ./gen/../tecsrust_uart_led_sample/target/armv7a-none-eabi/release/libitron.a(core-d049573bc16596f9.core.5587a85061e7188a-cgu.0.rcgu.o)
                0x0000000000120c80                core::num::bignum::tests::Big8x3::from_u64
 .text._ZN4core3num6bignum5tests6Big8x36digits17he3519563a60c1407E
                0x0000000000120d18       0x2c ./gen/../tecsrust_uart_led_sample/target/armv7a-none-eabi/release/libitron.a(core-d049573bc16596f9.core.5587a85061e7188a-cgu.0.rcgu.o)
                0x0000000000120d18                core::num::bignum::tests::Big8x3::digits
 .text._ZN4core3num6bignum5tests6Big8x37get_bit17h3c0e105d94bd5b13E
                0x0000000000120d44       0x3c ./gen/../tecsrust_uart_led_sample/target/armv7a-none-eabi/release/libitron.a(core-d049573bc16596f9.core.5587a85061e7188a-cgu.0.rcgu.o)
                0x0000000000120d44                core::num::bignum::tests::Big8x3::get_bit
 .text._ZN4core3num6bignum5tests6Big8x37is_zero17h32e72f5d7dbb5adbE
                0x0000000000120d80       0x90 ./gen/../tecsrust_uart_led_sample/target/armv7a-none-eabi/release/libitron.a(core-d049573bc16596f9.core.5587a85061e7188a-cgu.0.rcgu.o)
                0x0000000000120d80                core::num::bignum::tests::Big8x3::is_zero
 .text._ZN4core3num6bignum5tests6Big8x310bit_length17h83652b24f2592b66E
                0x0000000000120e10       0xd4 ./gen/../tecsrust_uart_led_sample/target/armv7a-none-eabi/release/libitron.a(core-d049573bc16596f9.core.5587a85061e7188a-cgu.0.rcgu.o)
                0x0000000000120e10                core::num::bignum::tests::Big8x3::bit_length
 .text._ZN4core3num6bignum5tests6Big8x33add17h0ea9b7b009d144c0E
                0x0000000000120ee4       0xd4 ./gen/../tecsrust_uart_led_sample/target/armv7a-none-eabi/release/libitron.a(core-d049573bc16596f9.core.5587a85061e7188a-cgu.0.rcgu.o)
                0x0000000000120ee4                core::num::bignum::tests::Big8x3::add
 .text._ZN4core3num6bignum5tests6Big8x39add_small17hfb578bb3ef3121e5E
                0x0000000000120fb8       0x80 ./gen/../tecsrust_uart_led_sample/target/armv7a-none-eabi/release/libitron.a(core-d049573bc16596f9.core.5587a85061e7188a-cgu.0.rcgu.o)
                0x0000000000120fb8                core::num::bignum::tests::Big8x3::add_small
 .text._ZN4core3num6bignum5tests6Big8x33sub17he7cc307db19dcf38E
                0x0000000000121038       0xb4 ./gen/../tecsrust_uart_led_sample/target/armv7a-none-eabi/release/libitron.a(core-d049573bc16596f9.core.5587a85061e7188a-cgu.0.rcgu.o)
                0x0000000000121038                core::num::bignum::tests::Big8x3::sub
 .text._ZN4core3num6bignum5tests6Big8x39mul_small17h88500d5dffbe03a5E
                0x00000000001210ec       0xc8 ./gen/../tecsrust_uart_led_sample/target/armv7a-none-eabi/release/libitron.a(core-d049573bc16596f9.core.5587a85061e7188a-cgu.0.rcgu.o)
                0x00000000001210ec                core::num::bignum::tests::Big8x3::mul_small
 .text._ZN4core3num6bignum5tests6Big8x38mul_pow217h7241f869c32bebc8E
                0x00000000001211b4      0x164 ./gen/../tecsrust_uart_led_sample/target/armv7a-none-eabi/release/libitron.a(core-d049573bc16596f9.core.5587a85061e7188a-cgu.0.rcgu.o)
                0x00000000001211b4                core::num::bignum::tests::Big8x3::mul_pow2
 .text._ZN4core3num6bignum5tests6Big8x38mul_pow517hbf8d1887a577d4b9E
                0x0000000000121318      0x174 ./gen/../tecsrust_uart_led_sample/target/armv7a-none-eabi/release/libitron.a(core-d049573bc16596f9.core.5587a85061e7188a-cgu.0.rcgu.o)
                0x0000000000121318                core::num::bignum::tests::Big8x3::mul_pow5
 .text._ZN4core3num6bignum5tests6Big8x310mul_digits17hc92e3128bf16df9bE
                0x000000000012148c      0x404 ./gen/../tecsrust_uart_led_sample/target/armv7a-none-eabi/release/libitron.a(core-d049573bc16596f9.core.5587a85061e7188a-cgu.0.rcgu.o)
                0x000000000012148c                core::num::bignum::tests::Big8x3::mul_digits
 .text._ZN4core3num6bignum5tests6Big8x313div_rem_small17h3d76b4dc7e13bdf9E
                0x0000000000121890       0xdc ./gen/../tecsrust_uart_led_sample/target/armv7a-none-eabi/release/libitron.a(core-d049573bc16596f9.core.5587a85061e7188a-cgu.0.rcgu.o)
                0x0000000000121890                core::num::bignum::tests::Big8x3::div_rem_small
 .text._ZN4core3num6bignum5tests6Big8x37div_rem17hd07a45cafecfa95dE
                0x000000000012196c      0x30c ./gen/../tecsrust_uart_led_sample/target/armv7a-none-eabi/release/libitron.a(core-d049573bc16596f9.core.5587a85061e7188a-cgu.0.rcgu.o)
                0x000000000012196c                core::num::bignum::tests::Big8x3::div_rem
 .text._ZN73_$LT$core..num..bignum..tests..Big8x3$u20$as$u20$core..cmp..PartialEq$GT$2eq17h2a5bec94bf0063b9E
                0x0000000000121c78       0x24 ./gen/../tecsrust_uart_led_sample/target/armv7a-none-eabi/release/libitron.a(core-d049573bc16596f9.core.5587a85061e7188a-cgu.0.rcgu.o)
                0x0000000000121c78                <core::num::bignum::tests::Big8x3 as core::cmp::PartialEq>::eq
 .text._ZN74_$LT$core..num..bignum..tests..Big8x3$u20$as$u20$core..cmp..PartialOrd$GT$11partial_cmp17h48d5846d2573a5e1E
                0x0000000000121c9c       0xbc ./gen/../tecsrust_uart_led_sample/target/armv7a-none-eabi/release/libitron.a(core-d049573bc16596f9.core.5587a85061e7188a-cgu.0.rcgu.o)
                0x0000000000121c9c                <core::num::bignum::tests::Big8x3 as core::cmp::PartialOrd>::partial_cmp
 .text._ZN67_$LT$core..num..bignum..tests..Big8x3$u20$as$u20$core..cmp..Ord$GT$3cmp17h8a7502baf7f3c9a5E
                0x0000000000121d58       0xbc ./gen/../tecsrust_uart_led_sample/target/armv7a-none-eabi/release/libitron.a(core-d049573bc16596f9.core.5587a85061e7188a-cgu.0.rcgu.o)
                0x0000000000121d58                <core::num::bignum::tests::Big8x3 as core::cmp::Ord>::cmp
 .text._ZN69_$LT$core..num..bignum..tests..Big8x3$u20$as$u20$core..fmt..Debug$GT$3fmt17hf9300f71b8428542E
                0x0000000000121e14      0x13c ./gen/../tecsrust_uart_led_sample/target/armv7a-none-eabi/release/libitron.a(core-d049573bc16596f9.core.5587a85061e7188a-cgu.0.rcgu.o)
                0x0000000000121e14                <core::num::bignum::tests::Big8x3 as core::fmt::Debug>::fmt
 .text._ZN4core3num7dec2flt60_$LT$impl$u20$core..str..traits..FromStr$u20$for$u20$f16$GT$8from_str17h0d34f16cb03d4084E
                0x0000000000121f50      0x638 ./gen/../tecsrust_uart_led_sample/target/armv7a-none-eabi/release/libitron.a(core-d049573bc16596f9.core.5587a85061e7188a-cgu.0.rcgu.o)
                0x0000000000121f50                core::num::dec2flt::<impl core::str::traits::FromStr for f16>::from_str
 .text._ZN4core3num7dec2flt60_$LT$impl$u20$core..str..traits..FromStr$u20$for$u20$f32$GT$8from_str17haab41bb9ce3e1e69E
                0x0000000000122588      0x608 ./gen/../tecsrust_uart_led_sample/target/armv7a-none-eabi/release/libitron.a(core-d049573bc16596f9.core.5587a85061e7188a-cgu.0.rcgu.o)
                0x0000000000122588                core::num::dec2flt::<impl core::str::traits::FromStr for f32>::from_str
 .text._ZN4core3num7dec2flt60_$LT$impl$u20$core..str..traits..FromStr$u20$for$u20$f64$GT$8from_str17h9934b968a57533b4E
                0x0000000000122b90      0x668 ./gen/../tecsrust_uart_led_sample/target/armv7a-none-eabi/release/libitron.a(core-d049573bc16596f9.core.5587a85061e7188a-cgu.0.rcgu.o)
                0x0000000000122b90                core::num::dec2flt::<impl core::str::traits::FromStr for f64>::from_str
 .text._ZN73_$LT$core..num..nonzero..NonZero$LT$T$GT$$u20$as$u20$core..fmt..Debug$GT$3fmt17hfee7ea0a19225bacE
                0x00000000001231f8       0xc0 ./gen/../tecsrust_uart_led_sample/target/armv7a-none-eabi/release/libitron.a(core-d049573bc16596f9.core.5587a85061e7188a-cgu.0.rcgu.o)
 .text._ZN84_$LT$core..num..nonzero..NonZero$LT$u8$GT$$u20$as$u20$core..str..traits..FromStr$GT$8from_str17ha566d71859ee37bcE
                0x00000000001232b8      0x148 ./gen/../tecsrust_uart_led_sample/target/armv7a-none-eabi/release/libitron.a(core-d049573bc16596f9.core.5587a85061e7188a-cgu.0.rcgu.o)
                0x00000000001232b8                <core::num::nonzero::NonZero<u8> as core::str::traits::FromStr>::from_str
 .text._ZN85_$LT$core..num..nonzero..NonZero$LT$u16$GT$$u20$as$u20$core..str..traits..FromStr$GT$8from_str17h22aefbcb4cc26c68E
                0x0000000000123400      0x14c ./gen/../tecsrust_uart_led_sample/target/armv7a-none-eabi/release/libitron.a(core-d049573bc16596f9.core.5587a85061e7188a-cgu.0.rcgu.o)
                0x0000000000123400                <core::num::nonzero::NonZero<u16> as core::str::traits::FromStr>::from_str
 .text._ZN85_$LT$core..num..nonzero..NonZero$LT$u32$GT$$u20$as$u20$core..str..traits..FromStr$GT$8from_str17h957fe3dbd5a241bcE
                0x000000000012354c      0x150 ./gen/../tecsrust_uart_led_sample/target/armv7a-none-eabi/release/libitron.a(core-d049573bc16596f9.core.5587a85061e7188a-cgu.0.rcgu.o)
                0x000000000012354c                <core::num::nonzero::NonZero<u32> as core::str::traits::FromStr>::from_str
 .text._ZN85_$LT$core..num..nonzero..NonZero$LT$u64$GT$$u20$as$u20$core..str..traits..FromStr$GT$8from_str17hb05b038cb220d66cE
                0x000000000012369c      0x158 ./gen/../tecsrust_uart_led_sample/target/armv7a-none-eabi/release/libitron.a(core-d049573bc16596f9.core.5587a85061e7188a-cgu.0.rcgu.o)
                0x000000000012369c                <core::num::nonzero::NonZero<u64> as core::str::traits::FromStr>::from_str
 .text._ZN86_$LT$core..num..nonzero..NonZero$LT$u128$GT$$u20$as$u20$core..str..traits..FromStr$GT$8from_str17hce0b07860262ce09E
                0x00000000001237f4      0x1c8 ./gen/../tecsrust_uart_led_sample/target/armv7a-none-eabi/release/libitron.a(core-d049573bc16596f9.core.5587a85061e7188a-cgu.0.rcgu.o)
                0x00000000001237f4                <core::num::nonzero::NonZero<u128> as core::str::traits::FromStr>::from_str
 .text._ZN87_$LT$core..num..nonzero..NonZero$LT$usize$GT$$u20$as$u20$core..str..traits..FromStr$GT$8from_str17h1733288da9636848E
                0x00000000001239bc      0x130 ./gen/../tecsrust_uart_led_sample/target/armv7a-none-eabi/release/libitron.a(core-d049573bc16596f9.core.5587a85061e7188a-cgu.0.rcgu.o)
                0x00000000001239bc                <core::num::nonzero::NonZero<usize> as core::str::traits::FromStr>::from_str
 .text._ZN84_$LT$core..num..nonzero..NonZero$LT$i8$GT$$u20$as$u20$core..str..traits..FromStr$GT$8from_str17hebe21d8ddaff9330E
                0x0000000000123aec      0x238 ./gen/../tecsrust_uart_led_sample/target/armv7a-none-eabi/release/libitron.a(core-d049573bc16596f9.core.5587a85061e7188a-cgu.0.rcgu.o)
                0x0000000000123aec                <core::num::nonzero::NonZero<i8> as core::str::traits::FromStr>::from_str
 .text._ZN85_$LT$core..num..nonzero..NonZero$LT$i16$GT$$u20$as$u20$core..str..traits..FromStr$GT$8from_str17h5460cf01298f7943E
                0x0000000000123d24      0x230 ./gen/../tecsrust_uart_led_sample/target/armv7a-none-eabi/release/libitron.a(core-d049573bc16596f9.core.5587a85061e7188a-cgu.0.rcgu.o)
                0x0000000000123d24                <core::num::nonzero::NonZero<i16> as core::str::traits::FromStr>::from_str
 .text._ZN85_$LT$core..num..nonzero..NonZero$LT$i32$GT$$u20$as$u20$core..str..traits..FromStr$GT$8from_str17h82302f5d78c06a81E
                0x0000000000123f54      0x1e4 ./gen/../tecsrust_uart_led_sample/target/armv7a-none-eabi/release/libitron.a(core-d049573bc16596f9.core.5587a85061e7188a-cgu.0.rcgu.o)
                0x0000000000123f54                <core::num::nonzero::NonZero<isize> as core::str::traits::FromStr>::from_str
                0x0000000000123f54                <core::num::nonzero::NonZero<i32> as core::str::traits::FromStr>::from_str
 .text._ZN85_$LT$core..num..nonzero..NonZero$LT$i64$GT$$u20$as$u20$core..str..traits..FromStr$GT$8from_str17hf63377f21a3fb6baE
                0x0000000000124138      0x240 ./gen/../tecsrust_uart_led_sample/target/armv7a-none-eabi/release/libitron.a(core-d049573bc16596f9.core.5587a85061e7188a-cgu.0.rcgu.o)
                0x0000000000124138                <core::num::nonzero::NonZero<i64> as core::str::traits::FromStr>::from_str
 .text._ZN86_$LT$core..num..nonzero..NonZero$LT$i128$GT$$u20$as$u20$core..str..traits..FromStr$GT$8from_str17h404bcfcc368805b5E
                0x0000000000124378      0x334 ./gen/../tecsrust_uart_led_sample/target/armv7a-none-eabi/release/libitron.a(core-d049573bc16596f9.core.5587a85061e7188a-cgu.0.rcgu.o)
                0x0000000000124378                <core::num::nonzero::NonZero<i128> as core::str::traits::FromStr>::from_str
 .text._ZN72_$LT$core..num..niche_types..Nanoseconds$u20$as$u20$core..fmt..Debug$GT$3fmt17h6df87c1b0e86c542E
                0x00000000001246ac       0xc0 ./gen/../tecsrust_uart_led_sample/target/armv7a-none-eabi/release/libitron.a(core-d049573bc16596f9.core.5587a85061e7188a-cgu.0.rcgu.o)
                0x00000000001246ac                <core::num::niche_types::Nanoseconds as core::fmt::Debug>::fmt
 .text._ZN75_$LT$core..num..niche_types..NonZeroU8Inner$u20$as$u20$core..fmt..Debug$GT$3fmt17h9934d86d94d3ba9dE
                0x000000000012476c       0x14 ./gen/../tecsrust_uart_led_sample/target/armv7a-none-eabi/release/libitron.a(core-d049573bc16596f9.core.5587a85061e7188a-cgu.0.rcgu.o)
                0x000000000012476c                <core::num::niche_types::NonZeroU8Inner as core::fmt::Debug>::fmt
 .text._ZN76_$LT$core..num..niche_types..NonZeroU16Inner$u20$as$u20$core..fmt..Debug$GT$3fmt17h1e0f277c7c9985fdE
                0x0000000000124780       0xc8 ./gen/../tecsrust_uart_led_sample/target/armv7a-none-eabi/release/libitron.a(core-d049573bc16596f9.core.5587a85061e7188a-cgu.0.rcgu.o)
                0x0000000000124780                <core::num::niche_types::NonZeroU16Inner as core::fmt::Debug>::fmt
 .text._ZN76_$LT$core..num..niche_types..NonZeroU32Inner$u20$as$u20$core..fmt..Debug$GT$3fmt17h4208945a1918bf76E
                0x0000000000124848       0xc0 ./gen/../tecsrust_uart_led_sample/target/armv7a-none-eabi/release/libitron.a(core-d049573bc16596f9.core.5587a85061e7188a-cgu.0.rcgu.o)
                0x0000000000124848                <core::num::niche_types::NonZeroUsizeInner as core::fmt::Debug>::fmt
                0x0000000000124848                <core::num::niche_types::NonZeroU32Inner as core::fmt::Debug>::fmt
 .text._ZN76_$LT$core..num..niche_types..NonZeroU64Inner$u20$as$u20$core..fmt..Debug$GT$3fmt17hcec75d0956b73778E
                0x0000000000124908       0xe0 ./gen/../tecsrust_uart_led_sample/target/armv7a-none-eabi/release/libitron.a(core-d049573bc16596f9.core.5587a85061e7188a-cgu.0.rcgu.o)
                0x0000000000124908                <core::num::niche_types::NonZeroU64Inner as core::fmt::Debug>::fmt
 .text._ZN77_$LT$core..num..niche_types..NonZeroU128Inner$u20$as$u20$core..fmt..Debug$GT$3fmt17h5bc8c49a87650843E
                0x00000000001249e8      0x154 ./gen/../tecsrust_uart_led_sample/target/armv7a-none-eabi/release/libitron.a(core-d049573bc16596f9.core.5587a85061e7188a-cgu.0.rcgu.o)
                0x00000000001249e8                <core::num::niche_types::NonZeroU128Inner as core::fmt::Debug>::fmt
 .text._ZN75_$LT$core..num..niche_types..NonZeroI8Inner$u20$as$u20$core..fmt..Debug$GT$3fmt17hc1ad68564dffd6e0E
                0x0000000000124b3c       0x14 ./gen/../tecsrust_uart_led_sample/target/armv7a-none-eabi/release/libitron.a(core-d049573bc16596f9.core.5587a85061e7188a-cgu.0.rcgu.o)
                0x0000000000124b3c                <core::num::niche_types::NonZeroI8Inner as core::fmt::Debug>::fmt
 .text._ZN76_$LT$core..num..niche_types..NonZeroI16Inner$u20$as$u20$core..fmt..Debug$GT$3fmt17h1bae456063d3b38aE
                0x0000000000124b50       0xc8 ./gen/../tecsrust_uart_led_sample/target/armv7a-none-eabi/release/libitron.a(core-d049573bc16596f9.core.5587a85061e7188a-cgu.0.rcgu.o)
                0x0000000000124b50                <core::num::niche_types::NonZeroI16Inner as core::fmt::Debug>::fmt
 .text._ZN76_$LT$core..num..niche_types..NonZeroI32Inner$u20$as$u20$core..fmt..Debug$GT$3fmt17h22fbf48f72b85284E
                0x0000000000124c18       0xc0 ./gen/../tecsrust_uart_led_sample/target/armv7a-none-eabi/release/libitron.a(core-d049573bc16596f9.core.5587a85061e7188a-cgu.0.rcgu.o)
                0x0000000000124c18                <core::num::niche_types::NonZeroIsizeInner as core::fmt::Debug>::fmt
                0x0000000000124c18                <core::num::niche_types::NonZeroI32Inner as core::fmt::Debug>::fmt
 .text._ZN76_$LT$core..num..niche_types..NonZeroI64Inner$u20$as$u20$core..fmt..Debug$GT$3fmt17h8bb2c468a465aac2E
                0x0000000000124cd8       0xe0 ./gen/../tecsrust_uart_led_sample/target/armv7a-none-eabi/release/libitron.a(core-d049573bc16596f9.core.5587a85061e7188a-cgu.0.rcgu.o)
                0x0000000000124cd8                <core::num::niche_types::NonZeroI64Inner as core::fmt::Debug>::fmt
 .text._ZN77_$LT$core..num..niche_types..NonZeroI128Inner$u20$as$u20$core..fmt..Debug$GT$3fmt17h7658577fe72d6a93E
                0x0000000000124db8      0x170 ./gen/../tecsrust_uart_led_sample/target/armv7a-none-eabi/release/libitron.a(core-d049573bc16596f9.core.5587a85061e7188a-cgu.0.rcgu.o)
                0x0000000000124db8                <core::num::niche_types::NonZeroI128Inner as core::fmt::Debug>::fmt
 .text._ZN75_$LT$core..num..niche_types..UsizeNoHighBit$u20$as$u20$core..fmt..Debug$GT$3fmt17h77e5bca56126e0b7E
                0x0000000000124f28       0xc0 ./gen/../tecsrust_uart_led_sample/target/armv7a-none-eabi/release/libitron.a(core-d049573bc16596f9.core.5587a85061e7188a-cgu.0.rcgu.o)
                0x0000000000124f28                <core::num::niche_types::UsizeNoHighBit as core::fmt::Debug>::fmt
 .text._ZN74_$LT$core..num..niche_types..U32NotAllOnes$u20$as$u20$core..fmt..Debug$GT$3fmt17hdae2b85bd7a76fa0E
                0x0000000000124fe8       0xc0 ./gen/../tecsrust_uart_led_sample/target/armv7a-none-eabi/release/libitron.a(core-d049573bc16596f9.core.5587a85061e7188a-cgu.0.rcgu.o)
                0x0000000000124fe8                <core::num::niche_types::U32NotAllOnes as core::fmt::Debug>::fmt
 .text._ZN74_$LT$core..num..niche_types..I32NotAllOnes$u20$as$u20$core..fmt..Debug$GT$3fmt17ha30c204f41712d0cE
                0x00000000001250a8       0xc0 ./gen/../tecsrust_uart_led_sample/target/armv7a-none-eabi/release/libitron.a(core-d049573bc16596f9.core.5587a85061e7188a-cgu.0.rcgu.o)
                0x00000000001250a8                <core::num::niche_types::I32NotAllOnes as core::fmt::Debug>::fmt
 .text._ZN74_$LT$core..num..niche_types..U64NotAllOnes$u20$as$u20$core..fmt..Debug$GT$3fmt17h9aae2314a6753889E
                0x0000000000125168       0xe0 ./gen/../tecsrust_uart_led_sample/target/armv7a-none-eabi/release/libitron.a(core-d049573bc16596f9.core.5587a85061e7188a-cgu.0.rcgu.o)
                0x0000000000125168                <core::num::niche_types::U64NotAllOnes as core::fmt::Debug>::fmt
 .text._ZN74_$LT$core..num..niche_types..I64NotAllOnes$u20$as$u20$core..fmt..Debug$GT$3fmt17hcd11c67aaecfa5cdE
                0x0000000000125248       0xe0 ./gen/../tecsrust_uart_led_sample/target/armv7a-none-eabi/release/libitron.a(core-d049573bc16596f9.core.5587a85061e7188a-cgu.0.rcgu.o)
                0x0000000000125248                <core::num::niche_types::I64NotAllOnes as core::fmt::Debug>::fmt
 .text.unlikely._ZN4core3num22from_ascii_radix_panic8do_panic7runtime17h20bf34c324abd015E
                0x0000000000125328       0x54 ./gen/../tecsrust_uart_led_sample/target/armv7a-none-eabi/release/libitron.a(core-d049573bc16596f9.core.5587a85061e7188a-cgu.0.rcgu.o)
                0x0000000000125328                core::num::from_ascii_radix_panic::do_panic::runtime
 .text.unlikely._ZN4core10intrinsics3mir11PtrMetadata19panic_cold_explicit17h38f2b2d764b9fcc9E
                0x000000000012537c        0xc ./gen/../tecsrust_uart_led_sample/target/armv7a-none-eabi/release/libitron.a(core-d049573bc16596f9.core.5587a85061e7188a-cgu.0.rcgu.o)
                0x000000000012537c                core::intrinsics::mir::__debuginfo::panic_cold_explicit
                0x000000000012537c                core::intrinsics::mir::CastPtrToPtr::panic_cold_explicit
                0x000000000012537c                core::intrinsics::mir::UnwindUnreachable::panic_cold_explicit
                0x000000000012537c                core::intrinsics::mir::ReturnTo::panic_cold_explicit
                0x000000000012537c                core::intrinsics::mir::UnwindResume::panic_cold_explicit
                0x000000000012537c                core::intrinsics::mir::Retag::panic_cold_explicit
                0x000000000012537c                core::intrinsics::mir::Unreachable::panic_cold_explicit
                0x000000000012537c                core::intrinsics::mir::Offset::panic_cold_explicit
                0x000000000012537c                core::intrinsics::mir::CastTransmute::panic_cold_explicit
                0x000000000012537c                core::intrinsics::mir::Checked::panic_cold_explicit
                0x000000000012537c                core::intrinsics::mir::Static::panic_cold_explicit
                0x000000000012537c                core::intrinsics::mir::TailCall::panic_cold_explicit
                0x000000000012537c                core::intrinsics::mir::Drop::panic_cold_explicit
                0x000000000012537c                core::intrinsics::mir::Variant::panic_cold_explicit
                0x000000000012537c                core::intrinsics::mir::CopyForDeref::panic_cold_explicit
                0x000000000012537c                core::intrinsics::mir::Discriminant::panic_cold_explicit
                0x000000000012537c                core::intrinsics::mir::Call::panic_cold_explicit
                0x000000000012537c                core::intrinsics::mir::UnwindCleanup::panic_cold_explicit
                0x000000000012537c                core::intrinsics::mir::UnwindTerminate::panic_cold_explicit
                0x000000000012537c                core::intrinsics::mir::Assume::panic_cold_explicit
                0x000000000012537c                core::intrinsics::mir::UnwindContinue::panic_cold_explicit
                0x000000000012537c                core::intrinsics::mir::SetDiscriminant::panic_cold_explicit
                0x000000000012537c                core::intrinsics::mir::StorageLive::panic_cold_explicit
                0x000000000012537c                core::intrinsics::mir::StaticMut::panic_cold_explicit
                0x000000000012537c                core::intrinsics::mir::Deinit::panic_cold_explicit
                0x000000000012537c                core::intrinsics::mir::PtrMetadata::panic_cold_explicit
                0x000000000012537c                core::intrinsics::mir::Return::panic_cold_explicit
                0x000000000012537c                core::intrinsics::mir::Len::panic_cold_explicit
                0x000000000012537c                core::intrinsics::mir::Goto::panic_cold_explicit
                0x000000000012537c                core::intrinsics::mir::StorageDead::panic_cold_explicit
                0x000000000012537c                core::intrinsics::mir::Field::panic_cold_explicit
                0x000000000012537c                core::intrinsics::mir::Move::panic_cold_explicit
                0x000000000012537c                core::intrinsics::mir::__internal_make_place::panic_cold_explicit
 .text._ZN85_$LT$core..marker..variance..PhantomCovariantLifetime$u20$as$u20$core..fmt..Debug$GT$3fmt17h092ab231f6840623E
                0x0000000000125388       0x24 ./gen/../tecsrust_uart_led_sample/target/armv7a-none-eabi/release/libitron.a(core-d049573bc16596f9.core.5587a85061e7188a-cgu.0.rcgu.o)
                0x0000000000125388                <core::marker::variance::PhantomCovariantLifetime as core::fmt::Debug>::fmt
 .text._ZN89_$LT$core..marker..variance..PhantomContravariantLifetime$u20$as$u20$core..fmt..Debug$GT$3fmt17hc36f606a10431dddE
                0x00000000001253ac       0x24 ./gen/../tecsrust_uart_led_sample/target/armv7a-none-eabi/release/libitron.a(core-d049573bc16596f9.core.5587a85061e7188a-cgu.0.rcgu.o)
                0x00000000001253ac                <core::marker::variance::PhantomContravariantLifetime as core::fmt::Debug>::fmt
 .text._ZN85_$LT$core..marker..variance..PhantomInvariantLifetime$u20$as$u20$core..fmt..Debug$GT$3fmt17h310726426d633410E
                0x00000000001253d0       0x24 ./gen/../tecsrust_uart_led_sample/target/armv7a-none-eabi/release/libitron.a(core-d049573bc16596f9.core.5587a85061e7188a-cgu.0.rcgu.o)
                0x00000000001253d0                <core::marker::variance::PhantomInvariantLifetime as core::fmt::Debug>::fmt
 .text.unlikely._ZN4core4char7methods15encode_utf8_raw8do_panic7runtime17h8d77bbd109129b2bE
                0x00000000001253f4       0x80 ./gen/../tecsrust_uart_led_sample/target/armv7a-none-eabi/release/libitron.a(core-d049573bc16596f9.core.5587a85061e7188a-cgu.0.rcgu.o)
                0x00000000001253f4                core::char::methods::encode_utf8_raw::do_panic::runtime
 .text.unlikely._ZN4core4char7methods16encode_utf16_raw8do_panic7runtime17h780c16f034ec0cfdE
                0x0000000000125474       0x80 ./gen/../tecsrust_uart_led_sample/target/armv7a-none-eabi/release/libitron.a(core-d049573bc16596f9.core.5587a85061e7188a-cgu.0.rcgu.o)
                0x0000000000125474                core::char::methods::encode_utf16_raw::do_panic::runtime
 .text._ZN82_$LT$core..char..ToLowercase$u20$as$u20$core..iter..traits..iterator..Iterator$GT$4next17hb1b5d710b70686acE
                0x00000000001254f4       0x28 ./gen/../tecsrust_uart_led_sample/target/armv7a-none-eabi/release/libitron.a(core-d049573bc16596f9.core.5587a85061e7188a-cgu.0.rcgu.o)
                0x00000000001254f4                <core::char::ToUppercase as core::iter::traits::iterator::Iterator>::next
                0x00000000001254f4                <core::char::ToLowercase as core::iter::traits::iterator::Iterator>::next
 .text._ZN82_$LT$core..char..ToLowercase$u20$as$u20$core..iter..traits..iterator..Iterator$GT$5count17h491b5e4cf6ec5bd0E
                0x000000000012551c       0x14 ./gen/../tecsrust_uart_led_sample/target/armv7a-none-eabi/release/libitron.a(core-d049573bc16596f9.core.5587a85061e7188a-cgu.0.rcgu.o)
                0x000000000012551c                <core::char::ToLowercase as core::iter::traits::iterator::Iterator>::count
                0x000000000012551c                <core::char::ToUppercase as core::iter::traits::iterator::Iterator>::count
 .text._ZN82_$LT$core..char..ToLowercase$u20$as$u20$core..iter..traits..iterator..Iterator$GT$4last17h2be1d7bd83ecbf83E
                0x0000000000125530       0x40 ./gen/../tecsrust_uart_led_sample/target/armv7a-none-eabi/release/libitron.a(core-d049573bc16596f9.core.5587a85061e7188a-cgu.0.rcgu.o)
                0x0000000000125530                <core::char::ToUppercase as core::iter::traits::iterator::Iterator>::last
                0x0000000000125530                <core::char::ToLowercase as core::iter::traits::iterator::Iterator>::last
 .text._ZN82_$LT$core..char..ToLowercase$u20$as$u20$core..iter..traits..iterator..Iterator$GT$10advance_by17h472a89f7f4a2644dE
                0x0000000000125570       0x28 ./gen/../tecsrust_uart_led_sample/target/armv7a-none-eabi/release/libitron.a(core-d049573bc16596f9.core.5587a85061e7188a-cgu.0.rcgu.o)
                0x0000000000125570                <core::char::ToLowercase as core::iter::traits::iterator::Iterator>::advance_by
                0x0000000000125570                <core::char::ToUppercase as core::iter::traits::iterator::Iterator>::advance_by
 .text._ZN82_$LT$core..char..ToLowercase$u20$as$u20$core..iter..traits..iterator..Iterator$GT$24__iterator_get_unchecked17h3837a4656c9589c7E
                0x0000000000125598       0x1c ./gen/../tecsrust_uart_led_sample/target/armv7a-none-eabi/release/libitron.a(core-d049573bc16596f9.core.5587a85061e7188a-cgu.0.rcgu.o)
                0x0000000000125598                <core::char::ToUppercase as core::iter::traits::iterator::Iterator>::__iterator_get_unchecked
                0x0000000000125598                <core::char::ToLowercase as core::iter::traits::iterator::Iterator>::__iterator_get_unchecked
 .text._ZN97_$LT$core..char..ToLowercase$u20$as$u20$core..iter..traits..double_ended..DoubleEndedIterator$GT$9next_back17h3de266f316e266adE
                0x00000000001255b4       0x2c ./gen/../tecsrust_uart_led_sample/target/armv7a-none-eabi/release/libitron.a(core-d049573bc16596f9.core.5587a85061e7188a-cgu.0.rcgu.o)
                0x00000000001255b4                <core::char::ToLowercase as core::iter::traits::double_ended::DoubleEndedIterator>::next_back
                0x00000000001255b4                <core::char::ToUppercase as core::iter::traits::double_ended::DoubleEndedIterator>::next_back
 .text._ZN97_$LT$core..char..ToLowercase$u20$as$u20$core..iter..traits..double_ended..DoubleEndedIterator$GT$15advance_back_by17h5316befd367a240aE
                0x00000000001255e0       0x28 ./gen/../tecsrust_uart_led_sample/target/armv7a-none-eabi/release/libitron.a(core-d049573bc16596f9.core.5587a85061e7188a-cgu.0.rcgu.o)
                0x00000000001255e0                <core::char::ToLowercase as core::iter::traits::double_ended::DoubleEndedIterator>::advance_back_by
                0x00000000001255e0                <core::char::ToUppercase as core::iter::traits::double_ended::DoubleEndedIterator>::advance_back_by
 .text._ZN62_$LT$core..char..ToLowercase$u20$as$u20$core..fmt..Display$GT$3fmt17hba63d2a00808b5c9E
                0x0000000000125608       0xdc ./gen/../tecsrust_uart_led_sample/target/armv7a-none-eabi/release/libitron.a(core-d049573bc16596f9.core.5587a85061e7188a-cgu.0.rcgu.o)
                0x0000000000125608                <core::char::ToLowercase as core::fmt::Display>::fmt
                0x0000000000125608                <core::char::ToUppercase as core::fmt::Display>::fmt
 .text._ZN77_$LT$core..net..ip_addr..Ipv4Addr$u20$as$u20$core..ops..bit..BitAndAssign$GT$13bitand_assign17h4b36b47131fa5cc4E
                0x00000000001256e4       0x3c ./gen/../tecsrust_uart_led_sample/target/armv7a-none-eabi/release/libitron.a(core-d049573bc16596f9.core.5587a85061e7188a-cgu.0.rcgu.o)
                0x00000000001256e4                <core::net::ip_addr::Ipv4Addr as core::ops::bit::BitAndAssign>::bitand_assign
 .text._ZN117_$LT$core..net..ip_addr..Ipv4Addr$u20$as$u20$core..ops..bit..BitAndAssign$LT$$RF$core..net..ip_addr..Ipv4Addr$GT$$GT$13bitand_assign17h0229d9be4c328c70E
                0x0000000000125720       0x4c ./gen/../tecsrust_uart_led_sample/target/armv7a-none-eabi/release/libitron.a(core-d049573bc16596f9.core.5587a85061e7188a-cgu.0.rcgu.o)
                0x0000000000125720                <core::net::ip_addr::Ipv4Addr as core::ops::bit::BitAndAssign<&core::net::ip_addr::Ipv4Addr>>::bitand_assign
 .text._ZN76_$LT$core..net..ip_addr..Ipv4Addr$u20$as$u20$core..ops..bit..BitOrAssign$GT$12bitor_assign17h5dbcc27e1bc263c6E
                0x000000000012576c       0x3c ./gen/../tecsrust_uart_led_sample/target/armv7a-none-eabi/release/libitron.a(core-d049573bc16596f9.core.5587a85061e7188a-cgu.0.rcgu.o)
                0x000000000012576c                <core::net::ip_addr::Ipv4Addr as core::ops::bit::BitOrAssign>::bitor_assign
 .text._ZN116_$LT$core..net..ip_addr..Ipv4Addr$u20$as$u20$core..ops..bit..BitOrAssign$LT$$RF$core..net..ip_addr..Ipv4Addr$GT$$GT$12bitor_assign17h44764761fe65c596E
                0x00000000001257a8       0x4c ./gen/../tecsrust_uart_led_sample/target/armv7a-none-eabi/release/libitron.a(core-d049573bc16596f9.core.5587a85061e7188a-cgu.0.rcgu.o)
                0x00000000001257a8                <core::net::ip_addr::Ipv4Addr as core::ops::bit::BitOrAssign<&core::net::ip_addr::Ipv4Addr>>::bitor_assign
 .text._ZN77_$LT$core..net..ip_addr..Ipv6Addr$u20$as$u20$core..ops..bit..BitAndAssign$GT$13bitand_assign17hdf1001071943e21cE
                0x00000000001257f4      0x14c ./gen/../tecsrust_uart_led_sample/target/armv7a-none-eabi/release/libitron.a(core-d049573bc16596f9.core.5587a85061e7188a-cgu.0.rcgu.o)
                0x00000000001257f4                <core::net::ip_addr::Ipv6Addr as core::ops::bit::BitAndAssign>::bitand_assign
 .text._ZN117_$LT$core..net..ip_addr..Ipv6Addr$u20$as$u20$core..ops..bit..BitAndAssign$LT$$RF$core..net..ip_addr..Ipv6Addr$GT$$GT$13bitand_assign17hecc377bff21d2c6fE
                0x0000000000125940      0x14c ./gen/../tecsrust_uart_led_sample/target/armv7a-none-eabi/release/libitron.a(core-d049573bc16596f9.core.5587a85061e7188a-cgu.0.rcgu.o)
                0x0000000000125940                <core::net::ip_addr::Ipv6Addr as core::ops::bit::BitAndAssign<&core::net::ip_addr::Ipv6Addr>>::bitand_assign
 .text._ZN76_$LT$core..net..ip_addr..Ipv6Addr$u20$as$u20$core..ops..bit..BitOrAssign$GT$12bitor_assign17h8802b9526f9e1ec3E
                0x0000000000125a8c      0x14c ./gen/../tecsrust_uart_led_sample/target/armv7a-none-eabi/release/libitron.a(core-d049573bc16596f9.core.5587a85061e7188a-cgu.0.rcgu.o)
                0x0000000000125a8c                <core::net::ip_addr::Ipv6Addr as core::ops::bit::BitOrAssign>::bitor_assign
 .text._ZN116_$LT$core..net..ip_addr..Ipv6Addr$u20$as$u20$core..ops..bit..BitOrAssign$LT$$RF$core..net..ip_addr..Ipv6Addr$GT$$GT$12bitor_assign17h15c5b2f4ea6a9f87E
                0x0000000000125bd8      0x14c ./gen/../tecsrust_uart_led_sample/target/armv7a-none-eabi/release/libitron.a(core-d049573bc16596f9.core.5587a85061e7188a-cgu.0.rcgu.o)
                0x0000000000125bd8                <core::net::ip_addr::Ipv6Addr as core::ops::bit::BitOrAssign<&core::net::ip_addr::Ipv6Addr>>::bitor_assign
 .text.unlikely._ZN4core9panicking11panic_const24panic_const_add_overflow17h518b917df10cd0eaE
                0x0000000000125d24       0x40 ./gen/../tecsrust_uart_led_sample/target/armv7a-none-eabi/release/libitron.a(core-d049573bc16596f9.core.5587a85061e7188a-cgu.0.rcgu.o)
                0x0000000000125d24                core::panicking::panic_const::panic_const_add_overflow
 .text.unlikely._ZN4core9panicking11panic_const24panic_const_sub_overflow17h60c8487e53d0d3c1E
                0x0000000000125d64       0x40 ./gen/../tecsrust_uart_led_sample/target/armv7a-none-eabi/release/libitron.a(core-d049573bc16596f9.core.5587a85061e7188a-cgu.0.rcgu.o)
                0x0000000000125d64                core::panicking::panic_const::panic_const_sub_overflow
 .text.unlikely._ZN4core9panicking11panic_const24panic_const_mul_overflow17h1a47d5361b03bf6eE
                0x0000000000125da4       0x40 ./gen/../tecsrust_uart_led_sample/target/armv7a-none-eabi/release/libitron.a(core-d049573bc16596f9.core.5587a85061e7188a-cgu.0.rcgu.o)
                0x0000000000125da4                core::panicking::panic_const::panic_const_mul_overflow
 .text.unlikely._ZN4core9panicking11panic_const24panic_const_div_overflow17heddbfb5e687a03bcE
                0x0000000000125de4       0x40 ./gen/../tecsrust_uart_led_sample/target/armv7a-none-eabi/release/libitron.a(core-d049573bc16596f9.core.5587a85061e7188a-cgu.0.rcgu.o)
                0x0000000000125de4                core::panicking::panic_const::panic_const_div_overflow
 .text.unlikely._ZN4core9panicking11panic_const24panic_const_rem_overflow17h3335d23af842c741E
                0x0000000000125e24       0x40 ./gen/../tecsrust_uart_led_sample/target/armv7a-none-eabi/release/libitron.a(core-d049573bc16596f9.core.5587a85061e7188a-cgu.0.rcgu.o)
                0x0000000000125e24                core::panicking::panic_const::panic_const_rem_overflow
 .text.unlikely._ZN4core9panicking11panic_const24panic_const_neg_overflow17hd6798e66c62ddff6E
                0x0000000000125e64       0x40 ./gen/../tecsrust_uart_led_sample/target/armv7a-none-eabi/release/libitron.a(core-d049573bc16596f9.core.5587a85061e7188a-cgu.0.rcgu.o)
                0x0000000000125e64                core::panicking::panic_const::panic_const_neg_overflow
 .text.unlikely._ZN4core9panicking11panic_const24panic_const_shr_overflow17hc596d1ddf3d71019E
                0x0000000000125ea4       0x40 ./gen/../tecsrust_uart_led_sample/target/armv7a-none-eabi/release/libitron.a(core-d049573bc16596f9.core.5587a85061e7188a-cgu.0.rcgu.o)
                0x0000000000125ea4                core::panicking::panic_const::panic_const_shr_overflow
 .text.unlikely._ZN4core9panicking11panic_const24panic_const_shl_overflow17hab60c2de69792ef8E
                0x0000000000125ee4       0x40 ./gen/../tecsrust_uart_led_sample/target/armv7a-none-eabi/release/libitron.a(core-d049573bc16596f9.core.5587a85061e7188a-cgu.0.rcgu.o)
                0x0000000000125ee4                core::panicking::panic_const::panic_const_shl_overflow
 .text.unlikely._ZN4core9panicking11panic_const23panic_const_div_by_zero17h841ebc415392a309E
                0x0000000000125f24       0x40 ./gen/../tecsrust_uart_led_sample/target/armv7a-none-eabi/release/libitron.a(core-d049573bc16596f9.core.5587a85061e7188a-cgu.0.rcgu.o)
                0x0000000000125f24                core::panicking::panic_const::panic_const_div_by_zero
 .text.unlikely._ZN4core9panicking11panic_const23panic_const_rem_by_zero17h84c76eadc69bd9a6E
                0x0000000000125f64       0x40 ./gen/../tecsrust_uart_led_sample/target/armv7a-none-eabi/release/libitron.a(core-d049573bc16596f9.core.5587a85061e7188a-cgu.0.rcgu.o)
                0x0000000000125f64                core::panicking::panic_const::panic_const_rem_by_zero
 .text.unlikely._ZN4core9panicking11panic_const29panic_const_coroutine_resumed17hc1fec1f49fb82aacE
                0x0000000000125fa4       0x40 ./gen/../tecsrust_uart_led_sample/target/armv7a-none-eabi/release/libitron.a(core-d049573bc16596f9.core.5587a85061e7188a-cgu.0.rcgu.o)
                0x0000000000125fa4                core::panicking::panic_const::panic_const_coroutine_resumed
 .text.unlikely._ZN4core9panicking11panic_const28panic_const_async_fn_resumed17h4c52fb4e1fc04b7eE
                0x0000000000125fe4       0x40 ./gen/../tecsrust_uart_led_sample/target/armv7a-none-eabi/release/libitron.a(core-d049573bc16596f9.core.5587a85061e7188a-cgu.0.rcgu.o)
                0x0000000000125fe4                core::panicking::panic_const::panic_const_async_fn_resumed
 .text.unlikely._ZN4core9panicking11panic_const32panic_const_async_gen_fn_resumed17hf6dc0ef665815d93E
                0x0000000000126024       0x40 ./gen/../tecsrust_uart_led_sample/target/armv7a-none-eabi/release/libitron.a(core-d049573bc16596f9.core.5587a85061e7188a-cgu.0.rcgu.o)
                0x0000000000126024                core::panicking::panic_const::panic_const_async_gen_fn_resumed
 .text.unlikely._ZN4core9panicking11panic_const23panic_const_gen_fn_none17h9943346b0c293476E
                0x0000000000126064       0x40 ./gen/../tecsrust_uart_led_sample/target/armv7a-none-eabi/release/libitron.a(core-d049573bc16596f9.core.5587a85061e7188a-cgu.0.rcgu.o)
                0x0000000000126064                core::panicking::panic_const::panic_const_gen_fn_none
 .text.unlikely._ZN4core9panicking11panic_const35panic_const_coroutine_resumed_panic17ha931fedc2d097cbcE
                0x00000000001260a4       0x40 ./gen/../tecsrust_uart_led_sample/target/armv7a-none-eabi/release/libitron.a(core-d049573bc16596f9.core.5587a85061e7188a-cgu.0.rcgu.o)
                0x00000000001260a4                core::panicking::panic_const::panic_const_coroutine_resumed_panic
 .text.unlikely._ZN4core9panicking11panic_const34panic_const_async_fn_resumed_panic17he3287dd12fe7b10fE
                0x00000000001260e4       0x40 ./gen/../tecsrust_uart_led_sample/target/armv7a-none-eabi/release/libitron.a(core-d049573bc16596f9.core.5587a85061e7188a-cgu.0.rcgu.o)
                0x00000000001260e4                core::panicking::panic_const::panic_const_async_fn_resumed_panic
 .text.unlikely._ZN4core9panicking11panic_const38panic_const_async_gen_fn_resumed_panic17hd2dc1333c03262feE
                0x0000000000126124       0x40 ./gen/../tecsrust_uart_led_sample/target/armv7a-none-eabi/release/libitron.a(core-d049573bc16596f9.core.5587a85061e7188a-cgu.0.rcgu.o)
                0x0000000000126124                core::panicking::panic_const::panic_const_async_gen_fn_resumed_panic
 .text.unlikely._ZN4core9panicking11panic_const29panic_const_gen_fn_none_panic17h5c1c229e3a40efecE
                0x0000000000126164       0x40 ./gen/../tecsrust_uart_led_sample/target/armv7a-none-eabi/release/libitron.a(core-d049573bc16596f9.core.5587a85061e7188a-cgu.0.rcgu.o)
                0x0000000000126164                core::panicking::panic_const::panic_const_gen_fn_none_panic
 .text.unlikely._ZN4core9panicking11panic_const34panic_const_coroutine_resumed_drop17h80f9fb05c90896faE
                0x00000000001261a4       0x40 ./gen/../tecsrust_uart_led_sample/target/armv7a-none-eabi/release/libitron.a(core-d049573bc16596f9.core.5587a85061e7188a-cgu.0.rcgu.o)
                0x00000000001261a4                core::panicking::panic_const::panic_const_coroutine_resumed_drop
 .text.unlikely._ZN4core9panicking11panic_const33panic_const_async_fn_resumed_drop17h372a153677563730E
                0x00000000001261e4       0x40 ./gen/../tecsrust_uart_led_sample/target/armv7a-none-eabi/release/libitron.a(core-d049573bc16596f9.core.5587a85061e7188a-cgu.0.rcgu.o)
                0x00000000001261e4                core::panicking::panic_const::panic_const_async_fn_resumed_drop
 .text.unlikely._ZN4core9panicking11panic_const37panic_const_async_gen_fn_resumed_drop17hf44454f4c0322d5eE
                0x0000000000126224       0x40 ./gen/../tecsrust_uart_led_sample/target/armv7a-none-eabi/release/libitron.a(core-d049573bc16596f9.core.5587a85061e7188a-cgu.0.rcgu.o)
                0x0000000000126224                core::panicking::panic_const::panic_const_async_gen_fn_resumed_drop
 .text.unlikely._ZN4core9panicking11panic_const28panic_const_gen_fn_none_drop17h79a2beef01222142E
                0x0000000000126264       0x40 ./gen/../tecsrust_uart_led_sample/target/armv7a-none-eabi/release/libitron.a(core-d049573bc16596f9.core.5587a85061e7188a-cgu.0.rcgu.o)
                0x0000000000126264                core::panicking::panic_const::panic_const_gen_fn_none_drop
 .text._ZN46_$LT$i8$u20$as$u20$core..pat..RangePattern$GT$7sub_one17h9c88d58a08cd9976E
                0x00000000001262a4       0x50 ./gen/../tecsrust_uart_led_sample/target/armv7a-none-eabi/release/libitron.a(core-d049573bc16596f9.core.5587a85061e7188a-cgu.0.rcgu.o)
                0x00000000001262a4                <i8 as core::pat::RangePattern>::sub_one
 .text._ZN47_$LT$i16$u20$as$u20$core..pat..RangePattern$GT$7sub_one17h0bea40a7c0a1898dE
                0x00000000001262f4       0x50 ./gen/../tecsrust_uart_led_sample/target/armv7a-none-eabi/release/libitron.a(core-d049573bc16596f9.core.5587a85061e7188a-cgu.0.rcgu.o)
                0x00000000001262f4                <i16 as core::pat::RangePattern>::sub_one
 .text._ZN47_$LT$i32$u20$as$u20$core..pat..RangePattern$GT$7sub_one17hee0294d19fcfed5eE
                0x0000000000126344       0x4c ./gen/../tecsrust_uart_led_sample/target/armv7a-none-eabi/release/libitron.a(core-d049573bc16596f9.core.5587a85061e7188a-cgu.0.rcgu.o)
                0x0000000000126344                <i32 as core::pat::RangePattern>::sub_one
                0x0000000000126344                <isize as core::pat::RangePattern>::sub_one
 .text._ZN47_$LT$i64$u20$as$u20$core..pat..RangePattern$GT$7sub_one17h7a71a5a054a38f79E
                0x0000000000126390       0x58 ./gen/../tecsrust_uart_led_sample/target/armv7a-none-eabi/release/libitron.a(core-d049573bc16596f9.core.5587a85061e7188a-cgu.0.rcgu.o)
                0x0000000000126390                <i64 as core::pat::RangePattern>::sub_one
 .text._ZN48_$LT$i128$u20$as$u20$core..pat..RangePattern$GT$7sub_one17hacd854531e93c0c5E
                0x00000000001263e8       0x74 ./gen/../tecsrust_uart_led_sample/target/armv7a-none-eabi/release/libitron.a(core-d049573bc16596f9.core.5587a85061e7188a-cgu.0.rcgu.o)
                0x00000000001263e8                <i128 as core::pat::RangePattern>::sub_one
 .text._ZN46_$LT$u8$u20$as$u20$core..pat..RangePattern$GT$7sub_one17h15e864f0213c9b05E
                0x000000000012645c       0x48 ./gen/../tecsrust_uart_led_sample/target/armv7a-none-eabi/release/libitron.a(core-d049573bc16596f9.core.5587a85061e7188a-cgu.0.rcgu.o)
                0x000000000012645c                <u8 as core::pat::RangePattern>::sub_one
 .text._ZN47_$LT$u16$u20$as$u20$core..pat..RangePattern$GT$7sub_one17h4335f9c9d4df86f6E
                0x00000000001264a4       0x4c ./gen/../tecsrust_uart_led_sample/target/armv7a-none-eabi/release/libitron.a(core-d049573bc16596f9.core.5587a85061e7188a-cgu.0.rcgu.o)
                0x00000000001264a4                <u16 as core::pat::RangePattern>::sub_one
 .text._ZN47_$LT$u32$u20$as$u20$core..pat..RangePattern$GT$7sub_one17h3378d20c1f54e79cE
                0x00000000001264f0       0x48 ./gen/../tecsrust_uart_led_sample/target/armv7a-none-eabi/release/libitron.a(core-d049573bc16596f9.core.5587a85061e7188a-cgu.0.rcgu.o)
                0x00000000001264f0                <usize as core::pat::RangePattern>::sub_one
                0x00000000001264f0                <u32 as core::pat::RangePattern>::sub_one
 .text._ZN47_$LT$u64$u20$as$u20$core..pat..RangePattern$GT$7sub_one17h6e6e0a2318d9e1f3E
                0x0000000000126538       0x54 ./gen/../tecsrust_uart_led_sample/target/armv7a-none-eabi/release/libitron.a(core-d049573bc16596f9.core.5587a85061e7188a-cgu.0.rcgu.o)
                0x0000000000126538                <u64 as core::pat::RangePattern>::sub_one
 .text._ZN48_$LT$u128$u20$as$u20$core..pat..RangePattern$GT$7sub_one17h49e0f9c674b47932E
                0x000000000012658c       0x74 ./gen/../tecsrust_uart_led_sample/target/armv7a-none-eabi/release/libitron.a(core-d049573bc16596f9.core.5587a85061e7188a-cgu.0.rcgu.o)
                0x000000000012658c                <u128 as core::pat::RangePattern>::sub_one
 .text._ZN65_$LT$core..sync..atomic..AtomicI8$u20$as$u20$core..fmt..Debug$GT$3fmt17h98530b86a99569a1E
                0x0000000000126600       0x14 ./gen/../tecsrust_uart_led_sample/target/armv7a-none-eabi/release/libitron.a(core-d049573bc16596f9.core.5587a85061e7188a-cgu.0.rcgu.o)
                0x0000000000126600                <core::sync::atomic::AtomicI8 as core::fmt::Debug>::fmt
 .text._ZN65_$LT$core..sync..atomic..AtomicU8$u20$as$u20$core..fmt..Debug$GT$3fmt17h78ea702c9c6bc9f6E
                0x0000000000126614       0x14 ./gen/../tecsrust_uart_led_sample/target/armv7a-none-eabi/release/libitron.a(core-d049573bc16596f9.core.5587a85061e7188a-cgu.0.rcgu.o)
                0x0000000000126614                <core::sync::atomic::AtomicU8 as core::fmt::Debug>::fmt
 .text._ZN66_$LT$core..sync..atomic..AtomicI16$u20$as$u20$core..fmt..Debug$GT$3fmt17h5390cba2b0e4e3dcE
                0x0000000000126628       0xc8 ./gen/../tecsrust_uart_led_sample/target/armv7a-none-eabi/release/libitron.a(core-d049573bc16596f9.core.5587a85061e7188a-cgu.0.rcgu.o)
                0x0000000000126628                <core::sync::atomic::AtomicI16 as core::fmt::Debug>::fmt
 .text._ZN66_$LT$core..sync..atomic..AtomicU16$u20$as$u20$core..fmt..Debug$GT$3fmt17h2705d1d8027c0f42E
                0x00000000001266f0       0xc8 ./gen/../tecsrust_uart_led_sample/target/armv7a-none-eabi/release/libitron.a(core-d049573bc16596f9.core.5587a85061e7188a-cgu.0.rcgu.o)
                0x00000000001266f0                <core::sync::atomic::AtomicU16 as core::fmt::Debug>::fmt
 .text._ZN66_$LT$core..sync..atomic..AtomicI32$u20$as$u20$core..fmt..Debug$GT$3fmt17h00f7ed8238e72b79E
                0x00000000001267b8       0xc0 ./gen/../tecsrust_uart_led_sample/target/armv7a-none-eabi/release/libitron.a(core-d049573bc16596f9.core.5587a85061e7188a-cgu.0.rcgu.o)
                0x00000000001267b8                <core::sync::atomic::AtomicIsize as core::fmt::Debug>::fmt
                0x00000000001267b8                <core::sync::atomic::AtomicI32 as core::fmt::Debug>::fmt
 .text._ZN66_$LT$core..sync..atomic..AtomicU32$u20$as$u20$core..fmt..Debug$GT$3fmt17hf9fe3a6abac6a243E
                0x0000000000126878       0xc0 ./gen/../tecsrust_uart_led_sample/target/armv7a-none-eabi/release/libitron.a(core-d049573bc16596f9.core.5587a85061e7188a-cgu.0.rcgu.o)
                0x0000000000126878                <core::sync::atomic::AtomicUsize as core::fmt::Debug>::fmt
                0x0000000000126878                <core::sync::atomic::AtomicU32 as core::fmt::Debug>::fmt
 .text._ZN66_$LT$core..sync..atomic..AtomicI64$u20$as$u20$core..fmt..Debug$GT$3fmt17h553003e062ab2aeaE
                0x0000000000126938       0xec ./gen/../tecsrust_uart_led_sample/target/armv7a-none-eabi/release/libitron.a(core-d049573bc16596f9.core.5587a85061e7188a-cgu.0.rcgu.o)
                0x0000000000126938                <core::sync::atomic::AtomicI64 as core::fmt::Debug>::fmt
 .text._ZN66_$LT$core..sync..atomic..AtomicU64$u20$as$u20$core..fmt..Debug$GT$3fmt17h4837e1a6089e1848E
                0x0000000000126a24       0xec ./gen/../tecsrust_uart_led_sample/target/armv7a-none-eabi/release/libitron.a(core-d049573bc16596f9.core.5587a85061e7188a-cgu.0.rcgu.o)
                0x0000000000126a24                <core::sync::atomic::AtomicU64 as core::fmt::Debug>::fmt
 .text._ZN55_$LT$f32$u20$as$u20$core..fmt..float..GeneralFormat$GT$44already_rounded_value_should_use_exponential17hb22121c88fcaa0beE
                0x0000000000126b10       0x68 ./gen/../tecsrust_uart_led_sample/target/armv7a-none-eabi/release/libitron.a(core-d049573bc16596f9.core.5587a85061e7188a-cgu.0.rcgu.o)
                0x0000000000126b10                <f32 as core::fmt::float::GeneralFormat>::already_rounded_value_should_use_exponential
 .text._ZN55_$LT$f64$u20$as$u20$core..fmt..float..GeneralFormat$GT$44already_rounded_value_should_use_exponential17h8b724b9904cc9c26E
                0x0000000000126b78       0x88 ./gen/../tecsrust_uart_led_sample/target/armv7a-none-eabi/release/libitron.a(core-d049573bc16596f9.core.5587a85061e7188a-cgu.0.rcgu.o)
                0x0000000000126b78                <f64 as core::fmt::float::GeneralFormat>::already_rounded_value_should_use_exponential
 .text._ZN4core3fmt5float50_$LT$impl$u20$core..fmt..Debug$u20$for$u20$f32$GT$3fmt17h36f6f70bc5e41684E
                0x0000000000126c00       0xb8 ./gen/../tecsrust_uart_led_sample/target/armv7a-none-eabi/release/libitron.a(core-d049573bc16596f9.core.5587a85061e7188a-cgu.0.rcgu.o)
                0x0000000000126c00                core::fmt::float::<impl core::fmt::Debug for f32>::fmt
 .text._ZN4core3fmt5float52_$LT$impl$u20$core..fmt..Display$u20$for$u20$f32$GT$3fmt17h80810e25a018a288E
                0x0000000000126cb8       0x44 ./gen/../tecsrust_uart_led_sample/target/armv7a-none-eabi/release/libitron.a(core-d049573bc16596f9.core.5587a85061e7188a-cgu.0.rcgu.o)
                0x0000000000126cb8                core::fmt::float::<impl core::fmt::Display for f32>::fmt
 .text._ZN4core3fmt5float53_$LT$impl$u20$core..fmt..LowerExp$u20$for$u20$f32$GT$3fmt17h820dff1b1d643fd6E
                0x0000000000126cfc       0x54 ./gen/../tecsrust_uart_led_sample/target/armv7a-none-eabi/release/libitron.a(core-d049573bc16596f9.core.5587a85061e7188a-cgu.0.rcgu.o)
                0x0000000000126cfc                core::fmt::float::<impl core::fmt::LowerExp for f32>::fmt
 .text._ZN4core3fmt5float53_$LT$impl$u20$core..fmt..UpperExp$u20$for$u20$f32$GT$3fmt17hdf25f1d7057efea1E
                0x0000000000126d50       0x54 ./gen/../tecsrust_uart_led_sample/target/armv7a-none-eabi/release/libitron.a(core-d049573bc16596f9.core.5587a85061e7188a-cgu.0.rcgu.o)
                0x0000000000126d50                core::fmt::float::<impl core::fmt::UpperExp for f32>::fmt
 .text._ZN4core3fmt5float50_$LT$impl$u20$core..fmt..Debug$u20$for$u20$f64$GT$3fmt17h12b316315661d7a7E
                0x0000000000126da4      0x10c ./gen/../tecsrust_uart_led_sample/target/armv7a-none-eabi/release/libitron.a(core-d049573bc16596f9.core.5587a85061e7188a-cgu.0.rcgu.o)
                0x0000000000126da4                core::fmt::float::<impl core::fmt::Debug for f64>::fmt
 .text._ZN4core3fmt5float52_$LT$impl$u20$core..fmt..Display$u20$for$u20$f64$GT$3fmt17h1658c390055e8683E
                0x0000000000126eb0       0x64 ./gen/../tecsrust_uart_led_sample/target/armv7a-none-eabi/release/libitron.a(core-d049573bc16596f9.core.5587a85061e7188a-cgu.0.rcgu.o)
                0x0000000000126eb0                core::fmt::float::<impl core::fmt::Display for f64>::fmt
 .text._ZN4core3fmt5float53_$LT$impl$u20$core..fmt..LowerExp$u20$for$u20$f64$GT$3fmt17hab161d28c266dbf1E
                0x0000000000126f14       0x70 ./gen/../tecsrust_uart_led_sample/target/armv7a-none-eabi/release/libitron.a(core-d049573bc16596f9.core.5587a85061e7188a-cgu.0.rcgu.o)
                0x0000000000126f14                core::fmt::float::<impl core::fmt::LowerExp for f64>::fmt
 .text._ZN4core3fmt5float53_$LT$impl$u20$core..fmt..UpperExp$u20$for$u20$f64$GT$3fmt17hfdc423d0ad75608dE
                0x0000000000126f84       0x70 ./gen/../tecsrust_uart_led_sample/target/armv7a-none-eabi/release/libitron.a(core-d049573bc16596f9.core.5587a85061e7188a-cgu.0.rcgu.o)
                0x0000000000126f84                core::fmt::float::<impl core::fmt::UpperExp for f64>::fmt
 .text._ZN4core3fmt5float50_$LT$impl$u20$core..fmt..Debug$u20$for$u20$f16$GT$3fmt17h0275f4e20d5ac985E
                0x0000000000126ff4       0xc0 ./gen/../tecsrust_uart_led_sample/target/armv7a-none-eabi/release/libitron.a(core-d049573bc16596f9.core.5587a85061e7188a-cgu.0.rcgu.o)
                0x0000000000126ff4                core::fmt::float::<impl core::fmt::Debug for f16>::fmt
 .text._ZN4core3fmt5float52_$LT$impl$u20$core..fmt..Display$u20$for$u20$f16$GT$3fmt17h44d06f4ee009c844E
                0x00000000001270b4       0x44 ./gen/../tecsrust_uart_led_sample/target/armv7a-none-eabi/release/libitron.a(core-d049573bc16596f9.core.5587a85061e7188a-cgu.0.rcgu.o)
                0x00000000001270b4                core::fmt::float::<impl core::fmt::Display for f16>::fmt
 .text._ZN4core3fmt5float53_$LT$impl$u20$core..fmt..LowerExp$u20$for$u20$f16$GT$3fmt17h5cc0551d1f587a8bE
                0x00000000001270f8       0x54 ./gen/../tecsrust_uart_led_sample/target/armv7a-none-eabi/release/libitron.a(core-d049573bc16596f9.core.5587a85061e7188a-cgu.0.rcgu.o)
                0x00000000001270f8                core::fmt::float::<impl core::fmt::LowerExp for f16>::fmt
 .text._ZN4core3fmt5float53_$LT$impl$u20$core..fmt..UpperExp$u20$for$u20$f16$GT$3fmt17h2a0ba872876a6cb1E
                0x000000000012714c       0x54 ./gen/../tecsrust_uart_led_sample/target/armv7a-none-eabi/release/libitron.a(core-d049573bc16596f9.core.5587a85061e7188a-cgu.0.rcgu.o)
                0x000000000012714c                core::fmt::float::<impl core::fmt::UpperExp for f16>::fmt
 .text._ZN71_$LT$core..fmt..num..Binary$u20$as$u20$core..fmt..num..GenericRadix$GT$5digit17he4b6c679024b6753E
                0x00000000001271a0       0x7c ./gen/../tecsrust_uart_led_sample/target/armv7a-none-eabi/release/libitron.a(core-d049573bc16596f9.core.5587a85061e7188a-cgu.0.rcgu.o)
                0x00000000001271a0                <core::fmt::num::Binary as core::fmt::num::GenericRadix>::digit
 .text._ZN70_$LT$core..fmt..num..Octal$u20$as$u20$core..fmt..num..GenericRadix$GT$5digit17h6d524b5314e7839aE
                0x000000000012721c       0x7c ./gen/../tecsrust_uart_led_sample/target/armv7a-none-eabi/release/libitron.a(core-d049573bc16596f9.core.5587a85061e7188a-cgu.0.rcgu.o)
                0x000000000012721c                <core::fmt::num::Octal as core::fmt::num::GenericRadix>::digit
 .text._ZN73_$LT$core..fmt..num..LowerHex$u20$as$u20$core..fmt..num..GenericRadix$GT$5digit17h67093c0abfd72a34E
                0x0000000000127298       0x88 ./gen/../tecsrust_uart_led_sample/target/armv7a-none-eabi/release/libitron.a(core-d049573bc16596f9.core.5587a85061e7188a-cgu.0.rcgu.o)
                0x0000000000127298                <core::fmt::num::LowerHex as core::fmt::num::GenericRadix>::digit
 .text._ZN73_$LT$core..fmt..num..UpperHex$u20$as$u20$core..fmt..num..GenericRadix$GT$5digit17h2ebf7f3cf75c8942E
                0x0000000000127320       0x88 ./gen/../tecsrust_uart_led_sample/target/armv7a-none-eabi/release/libitron.a(core-d049573bc16596f9.core.5587a85061e7188a-cgu.0.rcgu.o)
                0x0000000000127320                <core::fmt::num::UpperHex as core::fmt::num::GenericRadix>::digit
 .text._ZN4core3fmt3num50_$LT$impl$u20$core..fmt..Binary$u20$for$u20$i8$GT$3fmt17hfb8e99514944e386E
                0x00000000001273a8       0x68 ./gen/../tecsrust_uart_led_sample/target/armv7a-none-eabi/release/libitron.a(core-d049573bc16596f9.core.5587a85061e7188a-cgu.0.rcgu.o)
                0x00000000001273a8                core::fmt::num::<impl core::fmt::Binary for u8>::fmt
                0x00000000001273a8                core::fmt::num::<impl core::fmt::Binary for i8>::fmt
 .text._ZN4core3fmt3num49_$LT$impl$u20$core..fmt..Octal$u20$for$u20$i8$GT$3fmt17h16740b96b647866aE
                0x0000000000127410       0x68 ./gen/../tecsrust_uart_led_sample/target/armv7a-none-eabi/release/libitron.a(core-d049573bc16596f9.core.5587a85061e7188a-cgu.0.rcgu.o)
                0x0000000000127410                core::fmt::num::<impl core::fmt::Octal for i8>::fmt
                0x0000000000127410                core::fmt::num::<impl core::fmt::Octal for u8>::fmt
 .text._ZN4core3fmt3num52_$LT$impl$u20$core..fmt..LowerHex$u20$for$u20$i8$GT$3fmt17ha38e82f4b36477dfE
                0x0000000000127478       0x6c ./gen/../tecsrust_uart_led_sample/target/armv7a-none-eabi/release/libitron.a(core-d049573bc16596f9.core.5587a85061e7188a-cgu.0.rcgu.o)
                0x0000000000127478                core::fmt::num::<impl core::fmt::LowerHex for i8>::fmt
                0x0000000000127478                core::fmt::num::<impl core::fmt::LowerHex for u8>::fmt
 .text._ZN4core3fmt3num52_$LT$impl$u20$core..fmt..UpperHex$u20$for$u20$i8$GT$3fmt17hdbc78e6d81b9fc73E
                0x00000000001274e4       0x6c ./gen/../tecsrust_uart_led_sample/target/armv7a-none-eabi/release/libitron.a(core-d049573bc16596f9.core.5587a85061e7188a-cgu.0.rcgu.o)
                0x00000000001274e4                core::fmt::num::<impl core::fmt::UpperHex for i8>::fmt
                0x00000000001274e4                core::fmt::num::<impl core::fmt::UpperHex for u8>::fmt
 .text._ZN4core3fmt3num51_$LT$impl$u20$core..fmt..Binary$u20$for$u20$i16$GT$3fmt17hd9dba8c56e1924baE
                0x0000000000127550       0x68 ./gen/../tecsrust_uart_led_sample/target/armv7a-none-eabi/release/libitron.a(core-d049573bc16596f9.core.5587a85061e7188a-cgu.0.rcgu.o)
                0x0000000000127550                core::fmt::num::<impl core::fmt::Binary for i16>::fmt
                0x0000000000127550                core::fmt::num::<impl core::fmt::Binary for u16>::fmt
 .text._ZN4core3fmt3num50_$LT$impl$u20$core..fmt..Octal$u20$for$u20$i16$GT$3fmt17h673945bd6fb3acfeE
                0x00000000001275b8       0x68 ./gen/../tecsrust_uart_led_sample/target/armv7a-none-eabi/release/libitron.a(core-d049573bc16596f9.core.5587a85061e7188a-cgu.0.rcgu.o)
                0x00000000001275b8                core::fmt::num::<impl core::fmt::Octal for i16>::fmt
                0x00000000001275b8                core::fmt::num::<impl core::fmt::Octal for u16>::fmt
 .text._ZN4core3fmt3num53_$LT$impl$u20$core..fmt..LowerHex$u20$for$u20$i16$GT$3fmt17hd32e4fcbce79670aE
                0x0000000000127620       0x70 ./gen/../tecsrust_uart_led_sample/target/armv7a-none-eabi/release/libitron.a(core-d049573bc16596f9.core.5587a85061e7188a-cgu.0.rcgu.o)
                0x0000000000127620                core::fmt::num::<impl core::fmt::LowerHex for i16>::fmt
                0x0000000000127620                core::fmt::num::<impl core::fmt::LowerHex for u16>::fmt
 .text._ZN4core3fmt3num53_$LT$impl$u20$core..fmt..UpperHex$u20$for$u20$i16$GT$3fmt17hc507e3445ac18ebeE
                0x0000000000127690       0x70 ./gen/../tecsrust_uart_led_sample/target/armv7a-none-eabi/release/libitron.a(core-d049573bc16596f9.core.5587a85061e7188a-cgu.0.rcgu.o)
                0x0000000000127690                core::fmt::num::<impl core::fmt::UpperHex for i16>::fmt
                0x0000000000127690                core::fmt::num::<impl core::fmt::UpperHex for u16>::fmt
 .text._ZN4core3fmt3num51_$LT$impl$u20$core..fmt..Binary$u20$for$u20$i32$GT$3fmt17hd6aa21fb91002751E
                0x0000000000127700       0x68 ./gen/../tecsrust_uart_led_sample/target/armv7a-none-eabi/release/libitron.a(core-d049573bc16596f9.core.5587a85061e7188a-cgu.0.rcgu.o)
                0x0000000000127700                core::fmt::num::<impl core::fmt::Binary for isize>::fmt
                0x0000000000127700                core::fmt::num::<impl core::fmt::Binary for i32>::fmt
                0x0000000000127700                core::fmt::num::<impl core::fmt::Binary for usize>::fmt
                0x0000000000127700                core::fmt::num::<impl core::fmt::Binary for u32>::fmt
 .text._ZN4core3fmt3num50_$LT$impl$u20$core..fmt..Octal$u20$for$u20$i32$GT$3fmt17hdfdd079f8dc60dc7E
                0x0000000000127768       0x68 ./gen/../tecsrust_uart_led_sample/target/armv7a-none-eabi/release/libitron.a(core-d049573bc16596f9.core.5587a85061e7188a-cgu.0.rcgu.o)
                0x0000000000127768                core::fmt::num::<impl core::fmt::Octal for usize>::fmt
                0x0000000000127768                core::fmt::num::<impl core::fmt::Octal for isize>::fmt
                0x0000000000127768                core::fmt::num::<impl core::fmt::Octal for u32>::fmt
                0x0000000000127768                core::fmt::num::<impl core::fmt::Octal for i32>::fmt
 .text._ZN4core3fmt3num53_$LT$impl$u20$core..fmt..LowerHex$u20$for$u20$i32$GT$3fmt17h1bfe37b07cf28800E
                0x00000000001277d0       0x6c ./gen/../tecsrust_uart_led_sample/target/armv7a-none-eabi/release/libitron.a(core-d049573bc16596f9.core.5587a85061e7188a-cgu.0.rcgu.o)
                0x00000000001277d0                core::fmt::num::<impl core::fmt::LowerHex for usize>::fmt
                0x00000000001277d0                core::fmt::num::<impl core::fmt::LowerHex for isize>::fmt
                0x00000000001277d0                core::fmt::num::<impl core::fmt::LowerHex for u32>::fmt
                0x00000000001277d0                core::fmt::num::<impl core::fmt::LowerHex for i32>::fmt
 .text._ZN4core3fmt3num53_$LT$impl$u20$core..fmt..UpperHex$u20$for$u20$i32$GT$3fmt17hf4441f29103186f0E
                0x000000000012783c       0x6c ./gen/../tecsrust_uart_led_sample/target/armv7a-none-eabi/release/libitron.a(core-d049573bc16596f9.core.5587a85061e7188a-cgu.0.rcgu.o)
                0x000000000012783c                core::fmt::num::<impl core::fmt::UpperHex for u32>::fmt
                0x000000000012783c                core::fmt::num::<impl core::fmt::UpperHex for isize>::fmt
                0x000000000012783c                core::fmt::num::<impl core::fmt::UpperHex for usize>::fmt
                0x000000000012783c                core::fmt::num::<impl core::fmt::UpperHex for i32>::fmt
 .text._ZN4core3fmt3num51_$LT$impl$u20$core..fmt..Binary$u20$for$u20$i64$GT$3fmt17h2344af75f6c15b7fE
                0x00000000001278a8       0x70 ./gen/../tecsrust_uart_led_sample/target/armv7a-none-eabi/release/libitron.a(core-d049573bc16596f9.core.5587a85061e7188a-cgu.0.rcgu.o)
                0x00000000001278a8                core::fmt::num::<impl core::fmt::Binary for i64>::fmt
                0x00000000001278a8                core::fmt::num::<impl core::fmt::Binary for u64>::fmt
 .text._ZN4core3fmt3num50_$LT$impl$u20$core..fmt..Octal$u20$for$u20$i64$GT$3fmt17hc6f5294ea5289e43E
                0x0000000000127918       0x70 ./gen/../tecsrust_uart_led_sample/target/armv7a-none-eabi/release/libitron.a(core-d049573bc16596f9.core.5587a85061e7188a-cgu.0.rcgu.o)
                0x0000000000127918                core::fmt::num::<impl core::fmt::Octal for u64>::fmt
                0x0000000000127918                core::fmt::num::<impl core::fmt::Octal for i64>::fmt
 .text._ZN4core3fmt3num53_$LT$impl$u20$core..fmt..LowerHex$u20$for$u20$i64$GT$3fmt17hac7e501d59390ecfE
                0x0000000000127988       0x78 ./gen/../tecsrust_uart_led_sample/target/armv7a-none-eabi/release/libitron.a(core-d049573bc16596f9.core.5587a85061e7188a-cgu.0.rcgu.o)
                0x0000000000127988                core::fmt::num::<impl core::fmt::LowerHex for u64>::fmt
                0x0000000000127988                core::fmt::num::<impl core::fmt::LowerHex for i64>::fmt
 .text._ZN4core3fmt3num53_$LT$impl$u20$core..fmt..UpperHex$u20$for$u20$i64$GT$3fmt17h51257ca6c0f8239cE
                0x0000000000127a00       0x78 ./gen/../tecsrust_uart_led_sample/target/armv7a-none-eabi/release/libitron.a(core-d049573bc16596f9.core.5587a85061e7188a-cgu.0.rcgu.o)
                0x0000000000127a00                core::fmt::num::<impl core::fmt::UpperHex for u64>::fmt
                0x0000000000127a00                core::fmt::num::<impl core::fmt::UpperHex for i64>::fmt
 .text._ZN4core3fmt3num52_$LT$impl$u20$core..fmt..Binary$u20$for$u20$i128$GT$3fmt17h7be091d3317e0d6cE
                0x0000000000127a78       0xa4 ./gen/../tecsrust_uart_led_sample/target/armv7a-none-eabi/release/libitron.a(core-d049573bc16596f9.core.5587a85061e7188a-cgu.0.rcgu.o)
                0x0000000000127a78                core::fmt::num::<impl core::fmt::Binary for i128>::fmt
                0x0000000000127a78                core::fmt::num::<impl core::fmt::Binary for u128>::fmt
 .text._ZN4core3fmt3num51_$LT$impl$u20$core..fmt..Octal$u20$for$u20$i128$GT$3fmt17h5fb2ef3ead5b0ea5E
                0x0000000000127b1c       0xb0 ./gen/../tecsrust_uart_led_sample/target/armv7a-none-eabi/release/libitron.a(core-d049573bc16596f9.core.5587a85061e7188a-cgu.0.rcgu.o)
                0x0000000000127b1c                core::fmt::num::<impl core::fmt::Octal for u128>::fmt
                0x0000000000127b1c                core::fmt::num::<impl core::fmt::Octal for i128>::fmt
 .text._ZN4core3fmt3num54_$LT$impl$u20$core..fmt..LowerHex$u20$for$u20$i128$GT$3fmt17h4f123a38d1270953E
                0x0000000000127bcc       0xb8 ./gen/../tecsrust_uart_led_sample/target/armv7a-none-eabi/release/libitron.a(core-d049573bc16596f9.core.5587a85061e7188a-cgu.0.rcgu.o)
                0x0000000000127bcc                core::fmt::num::<impl core::fmt::LowerHex for i128>::fmt
                0x0000000000127bcc                core::fmt::num::<impl core::fmt::LowerHex for u128>::fmt
 .text._ZN4core3fmt3num54_$LT$impl$u20$core..fmt..UpperHex$u20$for$u20$i128$GT$3fmt17ha49e3851795cfdefE
                0x0000000000127c84       0xb8 ./gen/../tecsrust_uart_led_sample/target/armv7a-none-eabi/release/libitron.a(core-d049573bc16596f9.core.5587a85061e7188a-cgu.0.rcgu.o)
                0x0000000000127c84                core::fmt::num::<impl core::fmt::UpperHex for u128>::fmt
                0x0000000000127c84                core::fmt::num::<impl core::fmt::UpperHex for i128>::fmt
 .text._ZN4core3fmt3num49_$LT$impl$u20$core..fmt..Debug$u20$for$u20$i8$GT$3fmt17h34acdd6c4c2b4cccE
                0x0000000000127d3c      0x16c ./gen/../tecsrust_uart_led_sample/target/armv7a-none-eabi/release/libitron.a(core-d049573bc16596f9.core.5587a85061e7188a-cgu.0.rcgu.o)
 .text._ZN4core3fmt3num49_$LT$impl$u20$core..fmt..Debug$u20$for$u20$u8$GT$3fmt17h8d8c411144315c72E
                0x0000000000127ea8      0x154 ./gen/../tecsrust_uart_led_sample/target/armv7a-none-eabi/release/libitron.a(core-d049573bc16596f9.core.5587a85061e7188a-cgu.0.rcgu.o)
 .text._ZN4core3fmt3num50_$LT$impl$u20$core..fmt..Debug$u20$for$u20$u32$GT$3fmt17h71bef540c929d311E
                0x0000000000127ffc       0xbc ./gen/../tecsrust_uart_led_sample/target/armv7a-none-eabi/release/libitron.a(core-d049573bc16596f9.core.5587a85061e7188a-cgu.0.rcgu.o)
 .text._ZN4core3fmt3num3imp51_$LT$impl$u20$core..fmt..Display$u20$for$u20$u8$GT$3fmt17hbcfcd188bf01c23fE
                0x00000000001280b8       0xbc ./gen/../tecsrust_uart_led_sample/target/armv7a-none-eabi/release/libitron.a(core-d049573bc16596f9.core.5587a85061e7188a-cgu.0.rcgu.o)
                0x00000000001280b8                core::fmt::num::imp::<impl core::fmt::Display for u8>::fmt
 .text._ZN4core3fmt3num3imp51_$LT$impl$u20$core..fmt..Display$u20$for$u20$i8$GT$3fmt17hff22c034098846a1E
                0x0000000000128174       0xcc ./gen/../tecsrust_uart_led_sample/target/armv7a-none-eabi/release/libitron.a(core-d049573bc16596f9.core.5587a85061e7188a-cgu.0.rcgu.o)
                0x0000000000128174                core::fmt::num::imp::<impl core::fmt::Display for i8>::fmt
 .text._ZN4core3fmt3num3imp20_$LT$impl$u20$u8$GT$4_fmt17hb5a7663e8a0544e3E
                0x0000000000128240       0x94 ./gen/../tecsrust_uart_led_sample/target/armv7a-none-eabi/release/libitron.a(core-d049573bc16596f9.core.5587a85061e7188a-cgu.0.rcgu.o)
                0x0000000000128240                core::fmt::num::imp::<impl u8>::_fmt
 .text._ZN4core3fmt3num3imp52_$LT$impl$u20$core..fmt..Display$u20$for$u20$u16$GT$3fmt17hb807d5b07197dd3cE
                0x00000000001282d4      0x10c ./gen/../tecsrust_uart_led_sample/target/armv7a-none-eabi/release/libitron.a(core-d049573bc16596f9.core.5587a85061e7188a-cgu.0.rcgu.o)
                0x00000000001282d4                core::fmt::num::imp::<impl core::fmt::Display for u16>::fmt
 .text._ZN4core3fmt3num3imp52_$LT$impl$u20$core..fmt..Display$u20$for$u20$i16$GT$3fmt17hd6d0d2db5935d675E
                0x00000000001283e0      0x138 ./gen/../tecsrust_uart_led_sample/target/armv7a-none-eabi/release/libitron.a(core-d049573bc16596f9.core.5587a85061e7188a-cgu.0.rcgu.o)
                0x00000000001283e0                core::fmt::num::imp::<impl core::fmt::Display for i16>::fmt
 .text._ZN4core3fmt3num3imp21_$LT$impl$u20$u16$GT$4_fmt17h2eab8ac218d2ab0cE
                0x0000000000128518      0x108 ./gen/../tecsrust_uart_led_sample/target/armv7a-none-eabi/release/libitron.a(core-d049573bc16596f9.core.5587a85061e7188a-cgu.0.rcgu.o)
                0x0000000000128518                core::fmt::num::imp::<impl u16>::_fmt
 .text._ZN4core3fmt3num3imp52_$LT$impl$u20$core..fmt..Display$u20$for$u20$u32$GT$3fmt17hfed0ce75b320fdfeE
                0x0000000000128620      0x174 ./gen/../tecsrust_uart_led_sample/target/armv7a-none-eabi/release/libitron.a(core-d049573bc16596f9.core.5587a85061e7188a-cgu.0.rcgu.o)
                0x0000000000128620                core::fmt::num::imp::<impl core::fmt::Display for u32>::fmt
                0x0000000000128620                core::fmt::num::imp::<impl core::fmt::Display for usize>::fmt
 .text._ZN4core3fmt3num3imp52_$LT$impl$u20$core..fmt..Display$u20$for$u20$i32$GT$3fmt17h6694708af44e6410E
                0x0000000000128794      0x188 ./gen/../tecsrust_uart_led_sample/target/armv7a-none-eabi/release/libitron.a(core-d049573bc16596f9.core.5587a85061e7188a-cgu.0.rcgu.o)
                0x0000000000128794                core::fmt::num::imp::<impl core::fmt::Display for i32>::fmt
                0x0000000000128794                core::fmt::num::imp::<impl core::fmt::Display for isize>::fmt
 .text._ZN4core3fmt3num3imp21_$LT$impl$u20$u32$GT$4_fmt17he3f4180fb8f739b6E
                0x000000000012891c      0x15c ./gen/../tecsrust_uart_led_sample/target/armv7a-none-eabi/release/libitron.a(core-d049573bc16596f9.core.5587a85061e7188a-cgu.0.rcgu.o)
                0x000000000012891c                core::fmt::num::imp::<impl u32>::_fmt
                0x000000000012891c                core::fmt::num::imp::<impl usize>::_fmt
 .text._ZN4core3fmt3num3imp52_$LT$impl$u20$core..fmt..Display$u20$for$u20$u64$GT$3fmt17hca688f18ea3812f0E
                0x0000000000128a78      0x198 ./gen/../tecsrust_uart_led_sample/target/armv7a-none-eabi/release/libitron.a(core-d049573bc16596f9.core.5587a85061e7188a-cgu.0.rcgu.o)
                0x0000000000128a78                core::fmt::num::imp::<impl core::fmt::Display for u64>::fmt
 .text._ZN4core3fmt3num3imp52_$LT$impl$u20$core..fmt..Display$u20$for$u20$i64$GT$3fmt17h746d5f02f990caf3E
                0x0000000000128c10      0x1b4 ./gen/../tecsrust_uart_led_sample/target/armv7a-none-eabi/release/libitron.a(core-d049573bc16596f9.core.5587a85061e7188a-cgu.0.rcgu.o)
                0x0000000000128c10                core::fmt::num::imp::<impl core::fmt::Display for i64>::fmt
 .text._ZN4core3fmt3num3imp21_$LT$impl$u20$u64$GT$4_fmt17h5cad236623dacc7fE
                0x0000000000128dc4      0x16c ./gen/../tecsrust_uart_led_sample/target/armv7a-none-eabi/release/libitron.a(core-d049573bc16596f9.core.5587a85061e7188a-cgu.0.rcgu.o)
                0x0000000000128dc4                core::fmt::num::imp::<impl u64>::_fmt
 .text._ZN4core3fmt3num3imp7exp_u3217he01470f61c0319e7E
                0x0000000000128f30      0x428 ./gen/../tecsrust_uart_led_sample/target/armv7a-none-eabi/release/libitron.a(core-d049573bc16596f9.core.5587a85061e7188a-cgu.0.rcgu.o)
 .text._ZN4core3fmt3num3imp52_$LT$impl$u20$core..fmt..LowerExp$u20$for$u20$i8$GT$3fmt17hc0edf995b11d88a4E
                0x0000000000129358       0x30 ./gen/../tecsrust_uart_led_sample/target/armv7a-none-eabi/release/libitron.a(core-d049573bc16596f9.core.5587a85061e7188a-cgu.0.rcgu.o)
                0x0000000000129358                core::fmt::num::imp::<impl core::fmt::LowerExp for i8>::fmt
 .text._ZN4core3fmt3num3imp52_$LT$impl$u20$core..fmt..LowerExp$u20$for$u20$u8$GT$3fmt17h9f71b4e1975c97b3E
                0x0000000000129388       0x20 ./gen/../tecsrust_uart_led_sample/target/armv7a-none-eabi/release/libitron.a(core-d049573bc16596f9.core.5587a85061e7188a-cgu.0.rcgu.o)
                0x0000000000129388                core::fmt::num::imp::<impl core::fmt::LowerExp for u8>::fmt
 .text._ZN4core3fmt3num3imp53_$LT$impl$u20$core..fmt..LowerExp$u20$for$u20$i16$GT$3fmt17h2ec4792f26758582E
                0x00000000001293a8       0x30 ./gen/../tecsrust_uart_led_sample/target/armv7a-none-eabi/release/libitron.a(core-d049573bc16596f9.core.5587a85061e7188a-cgu.0.rcgu.o)
                0x00000000001293a8                core::fmt::num::imp::<impl core::fmt::LowerExp for i16>::fmt
 .text._ZN4core3fmt3num3imp53_$LT$impl$u20$core..fmt..LowerExp$u20$for$u20$u16$GT$3fmt17he1630ced7897f954E
                0x00000000001293d8       0x20 ./gen/../tecsrust_uart_led_sample/target/armv7a-none-eabi/release/libitron.a(core-d049573bc16596f9.core.5587a85061e7188a-cgu.0.rcgu.o)
                0x00000000001293d8                core::fmt::num::imp::<impl core::fmt::LowerExp for u16>::fmt
 .text._ZN4core3fmt3num3imp53_$LT$impl$u20$core..fmt..LowerExp$u20$for$u20$i32$GT$3fmt17hc830ff5284d762bdE
                0x00000000001293f8       0x30 ./gen/../tecsrust_uart_led_sample/target/armv7a-none-eabi/release/libitron.a(core-d049573bc16596f9.core.5587a85061e7188a-cgu.0.rcgu.o)
                0x00000000001293f8                core::fmt::num::imp::<impl core::fmt::LowerExp for isize>::fmt
                0x00000000001293f8                core::fmt::num::imp::<impl core::fmt::LowerExp for i32>::fmt
 .text._ZN4core3fmt3num3imp53_$LT$impl$u20$core..fmt..LowerExp$u20$for$u20$u32$GT$3fmt17he84cd695e6f75fd8E
                0x0000000000129428       0x20 ./gen/../tecsrust_uart_led_sample/target/armv7a-none-eabi/release/libitron.a(core-d049573bc16596f9.core.5587a85061e7188a-cgu.0.rcgu.o)
                0x0000000000129428                core::fmt::num::imp::<impl core::fmt::LowerExp for usize>::fmt
                0x0000000000129428                core::fmt::num::imp::<impl core::fmt::LowerExp for u32>::fmt
 .text._ZN4core3fmt3num3imp52_$LT$impl$u20$core..fmt..UpperExp$u20$for$u20$i8$GT$3fmt17h3cc98f3a87f4ea66E
                0x0000000000129448       0x30 ./gen/../tecsrust_uart_led_sample/target/armv7a-none-eabi/release/libitron.a(core-d049573bc16596f9.core.5587a85061e7188a-cgu.0.rcgu.o)
                0x0000000000129448                core::fmt::num::imp::<impl core::fmt::UpperExp for i8>::fmt
 .text._ZN4core3fmt3num3imp52_$LT$impl$u20$core..fmt..UpperExp$u20$for$u20$u8$GT$3fmt17h04e779386a1b925eE
                0x0000000000129478       0x20 ./gen/../tecsrust_uart_led_sample/target/armv7a-none-eabi/release/libitron.a(core-d049573bc16596f9.core.5587a85061e7188a-cgu.0.rcgu.o)
                0x0000000000129478                core::fmt::num::imp::<impl core::fmt::UpperExp for u8>::fmt
 .text._ZN4core3fmt3num3imp53_$LT$impl$u20$core..fmt..UpperExp$u20$for$u20$i16$GT$3fmt17ha0dd815a12b4d383E
                0x0000000000129498       0x30 ./gen/../tecsrust_uart_led_sample/target/armv7a-none-eabi/release/libitron.a(core-d049573bc16596f9.core.5587a85061e7188a-cgu.0.rcgu.o)
                0x0000000000129498                core::fmt::num::imp::<impl core::fmt::UpperExp for i16>::fmt
 .text._ZN4core3fmt3num3imp53_$LT$impl$u20$core..fmt..UpperExp$u20$for$u20$u16$GT$3fmt17h07d48ce0e1e749dcE
                0x00000000001294c8       0x20 ./gen/../tecsrust_uart_led_sample/target/armv7a-none-eabi/release/libitron.a(core-d049573bc16596f9.core.5587a85061e7188a-cgu.0.rcgu.o)
                0x00000000001294c8                core::fmt::num::imp::<impl core::fmt::UpperExp for u16>::fmt
 .text._ZN4core3fmt3num3imp53_$LT$impl$u20$core..fmt..UpperExp$u20$for$u20$i32$GT$3fmt17hf0350addfa1667d3E
                0x00000000001294e8       0x30 ./gen/../tecsrust_uart_led_sample/target/armv7a-none-eabi/release/libitron.a(core-d049573bc16596f9.core.5587a85061e7188a-cgu.0.rcgu.o)
                0x00000000001294e8                core::fmt::num::imp::<impl core::fmt::UpperExp for isize>::fmt
                0x00000000001294e8                core::fmt::num::imp::<impl core::fmt::UpperExp for i32>::fmt
 .text._ZN4core3fmt3num3imp53_$LT$impl$u20$core..fmt..UpperExp$u20$for$u20$u32$GT$3fmt17he78d3191f07bcd68E
                0x0000000000129518       0x20 ./gen/../tecsrust_uart_led_sample/target/armv7a-none-eabi/release/libitron.a(core-d049573bc16596f9.core.5587a85061e7188a-cgu.0.rcgu.o)
                0x0000000000129518                core::fmt::num::imp::<impl core::fmt::UpperExp for u32>::fmt
                0x0000000000129518                core::fmt::num::imp::<impl core::fmt::UpperExp for usize>::fmt
 .text._ZN4core3fmt3num3imp7exp_u6417h10bcc1a2e249db0dE
                0x0000000000129538      0x6a4 ./gen/../tecsrust_uart_led_sample/target/armv7a-none-eabi/release/libitron.a(core-d049573bc16596f9.core.5587a85061e7188a-cgu.0.rcgu.o)
 .text._ZN4core3fmt3num3imp53_$LT$impl$u20$core..fmt..LowerExp$u20$for$u20$i64$GT$3fmt17hcf4752f526debdaeE
                0x0000000000129bdc       0x40 ./gen/../tecsrust_uart_led_sample/target/armv7a-none-eabi/release/libitron.a(core-d049573bc16596f9.core.5587a85061e7188a-cgu.0.rcgu.o)
                0x0000000000129bdc                core::fmt::num::imp::<impl core::fmt::LowerExp for i64>::fmt
 .text._ZN4core3fmt3num3imp53_$LT$impl$u20$core..fmt..LowerExp$u20$for$u20$u64$GT$3fmt17h1137bee068b4f16aE
                0x0000000000129c1c       0x2c ./gen/../tecsrust_uart_led_sample/target/armv7a-none-eabi/release/libitron.a(core-d049573bc16596f9.core.5587a85061e7188a-cgu.0.rcgu.o)
                0x0000000000129c1c                core::fmt::num::imp::<impl core::fmt::LowerExp for u64>::fmt
 .text._ZN4core3fmt3num3imp53_$LT$impl$u20$core..fmt..UpperExp$u20$for$u20$i64$GT$3fmt17hb868ad8f77e533adE
                0x0000000000129c48       0x40 ./gen/../tecsrust_uart_led_sample/target/armv7a-none-eabi/release/libitron.a(core-d049573bc16596f9.core.5587a85061e7188a-cgu.0.rcgu.o)
                0x0000000000129c48                core::fmt::num::imp::<impl core::fmt::UpperExp for i64>::fmt
 .text._ZN4core3fmt3num3imp53_$LT$impl$u20$core..fmt..UpperExp$u20$for$u20$u64$GT$3fmt17h63c965249d38ffaaE
                0x0000000000129c88       0x2c ./gen/../tecsrust_uart_led_sample/target/armv7a-none-eabi/release/libitron.a(core-d049573bc16596f9.core.5587a85061e7188a-cgu.0.rcgu.o)
                0x0000000000129c88                core::fmt::num::imp::<impl core::fmt::UpperExp for u64>::fmt
 .text._ZN4core3fmt3num8exp_u12817hebe915adc93a3f65E
                0x0000000000129cb4     0x3264 ./gen/../tecsrust_uart_led_sample/target/armv7a-none-eabi/release/libitron.a(core-d049573bc16596f9.core.5587a85061e7188a-cgu.0.rcgu.o)
 .text._ZN4core3fmt3num54_$LT$impl$u20$core..fmt..LowerExp$u20$for$u20$i128$GT$3fmt17h5da6959838468447E
                0x000000000012cf18       0x5c ./gen/../tecsrust_uart_led_sample/target/armv7a-none-eabi/release/libitron.a(core-d049573bc16596f9.core.5587a85061e7188a-cgu.0.rcgu.o)
                0x000000000012cf18                core::fmt::num::<impl core::fmt::LowerExp for i128>::fmt
 .text._ZN4core3fmt3num54_$LT$impl$u20$core..fmt..LowerExp$u20$for$u20$u128$GT$3fmt17h376c18320fa0ab27E
                0x000000000012cf74       0x3c ./gen/../tecsrust_uart_led_sample/target/armv7a-none-eabi/release/libitron.a(core-d049573bc16596f9.core.5587a85061e7188a-cgu.0.rcgu.o)
                0x000000000012cf74                core::fmt::num::<impl core::fmt::LowerExp for u128>::fmt
 .text._ZN4core3fmt3num54_$LT$impl$u20$core..fmt..UpperExp$u20$for$u20$i128$GT$3fmt17h4fa0aa44e9ac138bE
                0x000000000012cfb0       0x5c ./gen/../tecsrust_uart_led_sample/target/armv7a-none-eabi/release/libitron.a(core-d049573bc16596f9.core.5587a85061e7188a-cgu.0.rcgu.o)
                0x000000000012cfb0                core::fmt::num::<impl core::fmt::UpperExp for i128>::fmt
 .text._ZN4core3fmt3num54_$LT$impl$u20$core..fmt..UpperExp$u20$for$u20$u128$GT$3fmt17h8104a47a73970792E
                0x000000000012d00c       0x38 ./gen/../tecsrust_uart_led_sample/target/armv7a-none-eabi/release/libitron.a(core-d049573bc16596f9.core.5587a85061e7188a-cgu.0.rcgu.o)
                0x000000000012d00c                core::fmt::num::<impl core::fmt::UpperExp for u128>::fmt
 .text._ZN53_$LT$core..fmt..Error$u20$as$u20$core..fmt..Debug$GT$3fmt17h1fc33b0efc6d4457E
                0x000000000012d044       0x24 ./gen/../tecsrust_uart_led_sample/target/armv7a-none-eabi/release/libitron.a(core-d049573bc16596f9.core.5587a85061e7188a-cgu.0.rcgu.o)
 .text._ZN42_$LT$$RF$T$u20$as$u20$core..fmt..Debug$GT$3fmt17h24b88fa73242f32eE
                0x000000000012d068       0xc0 ./gen/../tecsrust_uart_led_sample/target/armv7a-none-eabi/release/libitron.a(core-d049573bc16596f9.core.5587a85061e7188a-cgu.0.rcgu.o)
 .text._ZN42_$LT$$RF$T$u20$as$u20$core..fmt..Debug$GT$3fmt17h2b8606028715b277E
                0x000000000012d128       0xd8 ./gen/../tecsrust_uart_led_sample/target/armv7a-none-eabi/release/libitron.a(core-d049573bc16596f9.core.5587a85061e7188a-cgu.0.rcgu.o)
 .text._ZN42_$LT$$RF$T$u20$as$u20$core..fmt..Debug$GT$3fmt17h2c94c47449fce077E
                0x000000000012d200       0x18 ./gen/../tecsrust_uart_led_sample/target/armv7a-none-eabi/release/libitron.a(core-d049573bc16596f9.core.5587a85061e7188a-cgu.0.rcgu.o)
 .text._ZN42_$LT$$RF$T$u20$as$u20$core..fmt..Debug$GT$3fmt17hf161bf64d7c0ef1eE
                0x000000000012d218       0x14 ./gen/../tecsrust_uart_led_sample/target/armv7a-none-eabi/release/libitron.a(core-d049573bc16596f9.core.5587a85061e7188a-cgu.0.rcgu.o)
 .text._ZN44_$LT$$RF$T$u20$as$u20$core..fmt..Display$GT$3fmt17h61386bb67a2fbd60E
                0x000000000012d22c       0x14 ./gen/../tecsrust_uart_led_sample/target/armv7a-none-eabi/release/libitron.a(core-d049573bc16596f9.core.5587a85061e7188a-cgu.0.rcgu.o)
 .text._ZN44_$LT$$RF$T$u20$as$u20$core..fmt..Display$GT$3fmt17h8f0befc82ddda638E
                0x000000000012d240       0x20 ./gen/../tecsrust_uart_led_sample/target/armv7a-none-eabi/release/libitron.a(core-d049573bc16596f9.core.5587a85061e7188a-cgu.0.rcgu.o)
 .text._ZN44_$LT$$RF$T$u20$as$u20$core..fmt..Display$GT$3fmt17hfac9eb6f9e514871E
                0x000000000012d260       0x14 ./gen/../tecsrust_uart_led_sample/target/armv7a-none-eabi/release/libitron.a(core-d049573bc16596f9.core.5587a85061e7188a-cgu.0.rcgu.o)
 .text._ZN44_$LT$$RF$T$u20$as$u20$core..fmt..Display$GT$3fmt17hfcf05cee7c9056f6E
                0x000000000012d274       0x14 ./gen/../tecsrust_uart_led_sample/target/armv7a-none-eabi/release/libitron.a(core-d049573bc16596f9.core.5587a85061e7188a-cgu.0.rcgu.o)
 .text._ZN45_$LT$$RF$T$u20$as$u20$core..fmt..LowerHex$GT$3fmt17ha26303ddcb46393bE
                0x000000000012d288       0x74 ./gen/../tecsrust_uart_led_sample/target/armv7a-none-eabi/release/libitron.a(core-d049573bc16596f9.core.5587a85061e7188a-cgu.0.rcgu.o)
 .text.unlikely._ZN4core5slice5index26slice_start_index_len_fail8do_panic7runtime17h6b9a2d72cc528d7dE
                0x000000000012d2fc       0x64 ./gen/../tecsrust_uart_led_sample/target/armv7a-none-eabi/release/libitron.a(core-d049573bc16596f9.core.5587a85061e7188a-cgu.0.rcgu.o)
                0x000000000012d2fc                core::slice::index::slice_start_index_len_fail::do_panic::runtime
 .text.unlikely._ZN4core5slice5index24slice_end_index_len_fail8do_panic7runtime17h389d609c37b06f43E
                0x000000000012d360       0x64 ./gen/../tecsrust_uart_led_sample/target/armv7a-none-eabi/release/libitron.a(core-d049573bc16596f9.core.5587a85061e7188a-cgu.0.rcgu.o)
                0x000000000012d360                core::slice::index::slice_end_index_len_fail::do_panic::runtime
 .text.unlikely._ZN4core5slice5index22slice_index_order_fail8do_panic7runtime17hba4d89077763ab27E
                0x000000000012d3c4       0x64 ./gen/../tecsrust_uart_led_sample/target/armv7a-none-eabi/release/libitron.a(core-d049573bc16596f9.core.5587a85061e7188a-cgu.0.rcgu.o)
                0x000000000012d3c4                core::slice::index::slice_index_order_fail::do_panic::runtime
 .text.unlikely._ZN4core5slice29_$LT$impl$u20$$u5b$T$u5d$$GT$15copy_from_slice17len_mismatch_fail8do_panic7runtime17ha2cc200a2ee383aeE
                0x000000000012d428       0x68 ./gen/../tecsrust_uart_led_sample/target/armv7a-none-eabi/release/libitron.a(core-d049573bc16596f9.core.5587a85061e7188a-cgu.0.rcgu.o)
                0x000000000012d428                core::slice::<impl [T]>::copy_from_slice::len_mismatch_fail::do_panic::runtime
 .text._ZN67_$LT$core..str..iter..EscapeDebug$u20$as$u20$core..fmt..Display$GT$3fmt17h2e2431f416ffb01dE
                0x000000000012d490      0x984 ./gen/../tecsrust_uart_led_sample/target/armv7a-none-eabi/release/libitron.a(core-d049573bc16596f9.core.5587a85061e7188a-cgu.0.rcgu.o)
                0x000000000012d490                <core::str::iter::EscapeDebug as core::fmt::Display>::fmt
 .text._ZN69_$LT$core..str..iter..EscapeDefault$u20$as$u20$core..fmt..Display$GT$3fmt17ha94bdd14781dc3d5E
                0x000000000012de14      0x590 ./gen/../tecsrust_uart_led_sample/target/armv7a-none-eabi/release/libitron.a(core-d049573bc16596f9.core.5587a85061e7188a-cgu.0.rcgu.o)
                0x000000000012de14                <core::str::iter::EscapeDefault as core::fmt::Display>::fmt
 .text._ZN69_$LT$core..str..iter..EscapeUnicode$u20$as$u20$core..fmt..Display$GT$3fmt17h5c27075c7f7ee5aeE
                0x000000000012e3a4      0x3ac ./gen/../tecsrust_uart_led_sample/target/armv7a-none-eabi/release/libitron.a(core-d049573bc16596f9.core.5587a85061e7188a-cgu.0.rcgu.o)
                0x000000000012e3a4                <core::str::iter::EscapeUnicode as core::fmt::Display>::fmt
 .text._ZN4core7unicode12unicode_data10alphabetic6lookup17h0425ea10b4aa7bf8E
                0x000000000012e750      0x118 ./gen/../tecsrust_uart_led_sample/target/armv7a-none-eabi/release/libitron.a(core-d049573bc16596f9.core.5587a85061e7188a-cgu.0.rcgu.o)
                0x000000000012e750                core::unicode::unicode_data::alphabetic::lookup
 .text._ZN4core7unicode12unicode_data14case_ignorable6lookup17ha88a31073cb4ea00E
                0x000000000012e868      0x118 ./gen/../tecsrust_uart_led_sample/target/armv7a-none-eabi/release/libitron.a(core-d049573bc16596f9.core.5587a85061e7188a-cgu.0.rcgu.o)
                0x000000000012e868                core::unicode::unicode_data::case_ignorable::lookup
 .text._ZN4core7unicode12unicode_data5cased6lookup17h855070ae3579273aE
                0x000000000012e980      0x104 ./gen/../tecsrust_uart_led_sample/target/armv7a-none-eabi/release/libitron.a(core-d049573bc16596f9.core.5587a85061e7188a-cgu.0.rcgu.o)
                0x000000000012e980                core::unicode::unicode_data::cased::lookup
 .text._ZN4core7unicode12unicode_data2cc6lookup17hbd92340422846ed5E
                0x000000000012ea84       0x2c ./gen/../tecsrust_uart_led_sample/target/armv7a-none-eabi/release/libitron.a(core-d049573bc16596f9.core.5587a85061e7188a-cgu.0.rcgu.o)
                0x000000000012ea84                core::unicode::unicode_data::cc::lookup
 .text._ZN4core7unicode12unicode_data15grapheme_extend11lookup_slow17ha0f2bcc528f4b24fE
                0x000000000012eab0      0x118 ./gen/../tecsrust_uart_led_sample/target/armv7a-none-eabi/release/libitron.a(core-d049573bc16596f9.core.5587a85061e7188a-cgu.0.rcgu.o)
                0x000000000012eab0                core::unicode::unicode_data::grapheme_extend::lookup_slow
 .text._ZN4core7unicode12unicode_data9lowercase6lookup17h25b6cb6d69b065d2E
                0x000000000012ebc8      0x15c ./gen/../tecsrust_uart_led_sample/target/armv7a-none-eabi/release/libitron.a(core-d049573bc16596f9.core.5587a85061e7188a-cgu.0.rcgu.o)
                0x000000000012ebc8                core::unicode::unicode_data::lowercase::lookup
 .text._ZN4core7unicode12unicode_data1n6lookup17hab35f8f69f966811E
                0x000000000012ed24      0x118 ./gen/../tecsrust_uart_led_sample/target/armv7a-none-eabi/release/libitron.a(core-d049573bc16596f9.core.5587a85061e7188a-cgu.0.rcgu.o)
                0x000000000012ed24                core::unicode::unicode_data::n::lookup
 .text._ZN4core7unicode12unicode_data9uppercase6lookup17h93e2abe42af36001E
                0x000000000012ee3c      0x15c ./gen/../tecsrust_uart_led_sample/target/armv7a-none-eabi/release/libitron.a(core-d049573bc16596f9.core.5587a85061e7188a-cgu.0.rcgu.o)
                0x000000000012ee3c                core::unicode::unicode_data::uppercase::lookup
 .text._ZN4core7unicode12unicode_data11conversions8to_lower17h8b23e01b2072e971E
                0x000000000012ef98      0x158 ./gen/../tecsrust_uart_led_sample/target/armv7a-none-eabi/release/libitron.a(core-d049573bc16596f9.core.5587a85061e7188a-cgu.0.rcgu.o)
                0x000000000012ef98                core::unicode::unicode_data::conversions::to_lower
 .text._ZN4core7unicode12unicode_data11conversions8to_upper17hb90ef9b0b7a7f5d4E
                0x000000000012f0f0      0x168 ./gen/../tecsrust_uart_led_sample/target/armv7a-none-eabi/release/libitron.a(core-d049573bc16596f9.core.5587a85061e7188a-cgu.0.rcgu.o)
                0x000000000012f0f0                core::unicode::unicode_data::conversions::to_upper
 .text.__aeabi_memset
                0x000000000012f258       0x84 ./gen/../tecsrust_uart_led_sample/target/armv7a-none-eabi/release/libitron.a(compiler_builtins-70f608aea3cde50d.compiler_builtins.5a681add74c93a61-cgu.162.rcgu.o)
                0x000000000012f258                __aeabi_memset
 .text.__aeabi_memcpy4
                0x000000000012f2dc       0x2c ./gen/../tecsrust_uart_led_sample/target/armv7a-none-eabi/release/libitron.a(compiler_builtins-70f608aea3cde50d.compiler_builtins.5a681add74c93a61-cgu.174.rcgu.o)
                0x000000000012f2dc                __aeabi_memcpy4
 .text.__aeabi_dmul
                0x000000000012f308       0x10 ./gen/../tecsrust_uart_led_sample/target/armv7a-none-eabi/release/libitron.a(compiler_builtins-70f608aea3cde50d.compiler_builtins.5a681add74c93a61-cgu.178.rcgu.o)
                0x000000000012f308                __aeabi_dmul
 .text.__aeabi_fcmplt
                0x000000000012f318       0x64 ./gen/../tecsrust_uart_led_sample/target/armv7a-none-eabi/release/libitron.a(compiler_builtins-70f608aea3cde50d.compiler_builtins.5a681add74c93a61-cgu.180.rcgu.o)
                0x000000000012f318                __aeabi_fcmplt
 .text.__aeabi_memclr4
                0x000000000012f37c       0x44 ./gen/../tecsrust_uart_led_sample/target/armv7a-none-eabi/release/libitron.a(compiler_builtins-70f608aea3cde50d.compiler_builtins.5a681add74c93a61-cgu.201.rcgu.o)
                0x000000000012f37c                __aeabi_memclr4
 .text.__aeabi_fcmpge
                0x000000000012f3c0       0x6c ./gen/../tecsrust_uart_led_sample/target/armv7a-none-eabi/release/libitron.a(compiler_builtins-70f608aea3cde50d.compiler_builtins.5a681add74c93a61-cgu.206.rcgu.o)
                0x000000000012f3c0                __aeabi_fcmpge
 .text.__aeabi_f2h
                0x000000000012f42c      0x128 ./gen/../tecsrust_uart_led_sample/target/armv7a-none-eabi/release/libitron.a(compiler_builtins-70f608aea3cde50d.compiler_builtins.5a681add74c93a61-cgu.210.rcgu.o)
                0x000000000012f42c                __aeabi_f2h
 .text.__aeabi_memcpy
                0x000000000012f554       0x10 ./gen/../tecsrust_uart_led_sample/target/armv7a-none-eabi/release/libitron.a(compiler_builtins-70f608aea3cde50d.compiler_builtins.5a681add74c93a61-cgu.223.rcgu.o)
                0x000000000012f554                __aeabi_memcpy
 .text.__aeabi_memcpy8
                0x000000000012f564       0x2c ./gen/../tecsrust_uart_led_sample/target/armv7a-none-eabi/release/libitron.a(compiler_builtins-70f608aea3cde50d.compiler_builtins.5a681add74c93a61-cgu.253.rcgu.o)
                0x000000000012f564                __aeabi_memcpy8
 .text.__aeabi_dcmplt
                0x000000000012f590       0x78 ./gen/../tecsrust_uart_led_sample/target/armv7a-none-eabi/release/libitron.a(compiler_builtins-70f608aea3cde50d.compiler_builtins.5a681add74c93a61-cgu.261.rcgu.o)
                0x000000000012f590                __aeabi_dcmplt
 .text.__aeabi_ddiv
                0x000000000012f608       0x10 ./gen/../tecsrust_uart_led_sample/target/armv7a-none-eabi/release/libitron.a(compiler_builtins-70f608aea3cde50d.compiler_builtins.5a681add74c93a61-cgu.263.rcgu.o)
                0x000000000012f608                __aeabi_ddiv
 .text.__aeabi_ul2d
                0x000000000012f618       0x88 ./gen/../tecsrust_uart_led_sample/target/armv7a-none-eabi/release/libitron.a(compiler_builtins-70f608aea3cde50d.compiler_builtins.5a681add74c93a61-cgu.270.rcgu.o)
                0x000000000012f618                __aeabi_ul2d
 .text.__aeabi_fcmpeq
                0x000000000012f6a0       0x54 ./gen/../tecsrust_uart_led_sample/target/armv7a-none-eabi/release/libitron.a(compiler_builtins-70f608aea3cde50d.compiler_builtins.5a681add74c93a61-cgu.283.rcgu.o)
                0x000000000012f6a0                __aeabi_fcmpeq
 .text.__aeabi_dcmpeq
                0x000000000012f6f4       0x68 ./gen/../tecsrust_uart_led_sample/target/armv7a-none-eabi/release/libitron.a(compiler_builtins-70f608aea3cde50d.compiler_builtins.5a681add74c93a61-cgu.287.rcgu.o)
                0x000000000012f6f4                __aeabi_dcmpeq
 .text.__aeabi_h2f
                0x000000000012f75c       0x9c ./gen/../tecsrust_uart_led_sample/target/armv7a-none-eabi/release/libitron.a(compiler_builtins-70f608aea3cde50d.compiler_builtins.5a681add74c93a61-cgu.300.rcgu.o)
                0x000000000012f75c                __aeabi_h2f
 .text.memcmp   0x000000000012f7f8       0x44 ./gen/../tecsrust_uart_led_sample/target/armv7a-none-eabi/release/libitron.a(compiler_builtins-70f608aea3cde50d.compiler_builtins.5a681add74c93a61-cgu.310.rcgu.o)
                0x000000000012f7f8                memcmp
 .text.__aeabi_fdiv
                0x000000000012f83c       0x10 ./gen/../tecsrust_uart_led_sample/target/armv7a-none-eabi/release/libitron.a(compiler_builtins-70f608aea3cde50d.compiler_builtins.5a681add74c93a61-cgu.355.rcgu.o)
                0x000000000012f83c                __aeabi_fdiv
 .text.__aeabi_dcmpge
                0x000000000012f84c       0x80 ./gen/../tecsrust_uart_led_sample/target/armv7a-none-eabi/release/libitron.a(compiler_builtins-70f608aea3cde50d.compiler_builtins.5a681add74c93a61-cgu.361.rcgu.o)
                0x000000000012f84c                __aeabi_dcmpge
 .text.__aeabi_ul2f
                0x000000000012f8cc       0x74 ./gen/../tecsrust_uart_led_sample/target/armv7a-none-eabi/release/libitron.a(compiler_builtins-70f608aea3cde50d.compiler_builtins.5a681add74c93a61-cgu.365.rcgu.o)
                0x000000000012f8cc                __aeabi_ul2f
 .text.__aeabi_memclr8
                0x000000000012f940       0x44 ./gen/../tecsrust_uart_led_sample/target/armv7a-none-eabi/release/libitron.a(compiler_builtins-70f608aea3cde50d.compiler_builtins.5a681add74c93a61-cgu.375.rcgu.o)
                0x000000000012f940                __aeabi_memclr8
 .text.__aeabi_fmul
                0x000000000012f984       0x10 ./gen/../tecsrust_uart_led_sample/target/armv7a-none-eabi/release/libitron.a(compiler_builtins-70f608aea3cde50d.compiler_builtins.5a681add74c93a61-cgu.393.rcgu.o)
                0x000000000012f984                __aeabi_fmul
 .text.__aeabi_memclr
                0x000000000012f994       0x80 ./gen/../tecsrust_uart_led_sample/target/armv7a-none-eabi/release/libitron.a(compiler_builtins-70f608aea3cde50d.compiler_builtins.5a681add74c93a61-cgu.395.rcgu.o)
                0x000000000012f994                __aeabi_memclr
 .text.__aeabi_uldivmod
                0x000000000012fa14       0x24 ./gen/../tecsrust_uart_led_sample/target/armv7a-none-eabi/release/libitron.a(compiler_builtins-70f608aea3cde50d.compiler_builtins.5a681add74c93a61-cgu.410.rcgu.o)
                0x000000000012fa14                __aeabi_uldivmod
 .text.__aeabi_uidivmod
                0x000000000012fa38       0x1c ./gen/../tecsrust_uart_led_sample/target/armv7a-none-eabi/release/libitron.a(compiler_builtins-70f608aea3cde50d.compiler_builtins.5a681add74c93a61-cgu.411.rcgu.o)
                0x000000000012fa38                __aeabi_uidivmod
 .text._ZN17compiler_builtins5float3div3div17he78d0620a7b75566E
                0x000000000012fa54      0xbe8 ./gen/../tecsrust_uart_led_sample/target/armv7a-none-eabi/release/libitron.a(compiler_builtins-70f608aea3cde50d.compiler_builtins.5a681add74c93a61-cgu.000.rcgu.o)
                0x000000000012fa54                compiler_builtins::float::div::div
 .text._ZN17compiler_builtins5float3div8__divsf317h2b1d2160bcddc788E
                0x000000000013063c      0x258 ./gen/../tecsrust_uart_led_sample/target/armv7a-none-eabi/release/libitron.a(compiler_builtins-70f608aea3cde50d.compiler_builtins.5a681add74c93a61-cgu.000.rcgu.o)
                0x000000000013063c                compiler_builtins::float::div::__divsf3
 .text._ZN17compiler_builtins5float3div8__divdf317hce8b9ad476be59d6E
                0x0000000000130894      0x3f8 ./gen/../tecsrust_uart_led_sample/target/armv7a-none-eabi/release/libitron.a(compiler_builtins-70f608aea3cde50d.compiler_builtins.5a681add74c93a61-cgu.000.rcgu.o)
                0x0000000000130894                compiler_builtins::float::div::__divdf3
 .text._ZN17compiler_builtins5float3mul3mul17hf2a17768751d3093E
                0x0000000000130c8c      0x6e8 ./gen/../tecsrust_uart_led_sample/target/armv7a-none-eabi/release/libitron.a(compiler_builtins-70f608aea3cde50d.compiler_builtins.5a681add74c93a61-cgu.004.rcgu.o)
                0x0000000000130c8c                compiler_builtins::float::mul::mul
 .text._ZN17compiler_builtins5float3mul8__mulsf317h25278f3241c059d4E
                0x0000000000131374      0x1c4 ./gen/../tecsrust_uart_led_sample/target/armv7a-none-eabi/release/libitron.a(compiler_builtins-70f608aea3cde50d.compiler_builtins.5a681add74c93a61-cgu.004.rcgu.o)
                0x0000000000131374                compiler_builtins::float::mul::__mulsf3
 .text._ZN17compiler_builtins5float3mul8__muldf317hccb81ca3c0286231E
                0x0000000000131538      0x34c ./gen/../tecsrust_uart_led_sample/target/armv7a-none-eabi/release/libitron.a(compiler_builtins-70f608aea3cde50d.compiler_builtins.5a681add74c93a61-cgu.004.rcgu.o)
                0x0000000000131538                compiler_builtins::float::mul::__muldf3
 .text._ZN17compiler_builtins3mem6memcpy17h2e27bf7b653d77b8E
                0x0000000000131884      0x1d4 ./gen/../tecsrust_uart_led_sample/target/armv7a-none-eabi/release/libitron.a(compiler_builtins-70f608aea3cde50d.compiler_builtins.5a681add74c93a61-cgu.009.rcgu.o)
                0x0000000000131884                compiler_builtins::mem::memcpy
 .text._ZN17compiler_builtins3mem7memmove17h5a3e1228d8082146E
                0x0000000000131a58      0x438 ./gen/../tecsrust_uart_led_sample/target/armv7a-none-eabi/release/libitron.a(compiler_builtins-70f608aea3cde50d.compiler_builtins.5a681add74c93a61-cgu.009.rcgu.o)
                0x0000000000131a58                compiler_builtins::mem::memmove
 .text._ZN17compiler_builtins3mem6memset17h37b1769849978255E
                0x0000000000131e90       0x9c ./gen/../tecsrust_uart_led_sample/target/armv7a-none-eabi/release/libitron.a(compiler_builtins-70f608aea3cde50d.compiler_builtins.5a681add74c93a61-cgu.009.rcgu.o)
                0x0000000000131e90                compiler_builtins::mem::memset
 .text._ZN17compiler_builtins3mem4bcmp17h6438afe9a882ff74E
                0x0000000000131f2c       0x44 ./gen/../tecsrust_uart_led_sample/target/armv7a-none-eabi/release/libitron.a(compiler_builtins-70f608aea3cde50d.compiler_builtins.5a681add74c93a61-cgu.009.rcgu.o)
                0x0000000000131f2c                compiler_builtins::mem::bcmp
                0x0000000000131f2c                compiler_builtins::mem::memcmp
 .text._ZN17compiler_builtins3mem6strlen17hdb1c52627ea21c52E
                0x0000000000131f70       0x38 ./gen/../tecsrust_uart_led_sample/target/armv7a-none-eabi/release/libitron.a(compiler_builtins-70f608aea3cde50d.compiler_builtins.5a681add74c93a61-cgu.009.rcgu.o)
                0x0000000000131f70                compiler_builtins::mem::strlen
 .text._ZN84_$LT$compiler_builtins..int..big..u256$u20$as$u20$core..ops..bit..Shr$LT$u32$GT$$GT$3shr17h700137e2b572ae43E
                0x0000000000131fa8      0x240 ./gen/../tecsrust_uart_led_sample/target/armv7a-none-eabi/release/libitron.a(compiler_builtins-70f608aea3cde50d.compiler_builtins.5a681add74c93a61-cgu.019.rcgu.o)
                0x0000000000131fa8                <compiler_builtins::int::big::u256 as core::ops::bit::Shr<u32>>::shr
 .text._ZN17compiler_builtins3int3big71_$LT$impl$u20$compiler_builtins..int..traits..HInt$u20$for$u20$u128$GT$14zero_widen_mul17h2a6f60738a72942fE
                0x00000000001321e8      0x214 ./gen/../tecsrust_uart_led_sample/target/armv7a-none-eabi/release/libitron.a(compiler_builtins-70f608aea3cde50d.compiler_builtins.5a681add74c93a61-cgu.019.rcgu.o)
                0x00000000001321e8                compiler_builtins::int::big::<impl compiler_builtins::int::traits::HInt for u128>::zero_widen_mul
 .text._ZN17compiler_builtins3int3big71_$LT$impl$u20$compiler_builtins..int..traits..HInt$u20$for$u20$i128$GT$14zero_widen_mul17h757cd97f511fe0d1E
                0x00000000001323fc       0x40 ./gen/../tecsrust_uart_led_sample/target/armv7a-none-eabi/release/libitron.a(compiler_builtins-70f608aea3cde50d.compiler_builtins.5a681add74c93a61-cgu.019.rcgu.o)
                0x00000000001323fc                compiler_builtins::int::big::<impl compiler_builtins::int::traits::HInt for i128>::zero_widen_mul
                0x00000000001323fc                compiler_builtins::int::big::<impl compiler_builtins::int::traits::HInt for u128>::widen_mul
 .text.unlikely._ZN17compiler_builtins3int3big71_$LT$impl$u20$compiler_builtins..int..traits..HInt$u20$for$u20$i128$GT$9widen_mul17hbe745c677a8cf624E
                0x000000000013243c        0xc ./gen/../tecsrust_uart_led_sample/target/armv7a-none-eabi/release/libitron.a(compiler_builtins-70f608aea3cde50d.compiler_builtins.5a681add74c93a61-cgu.019.rcgu.o)
                0x000000000013243c                compiler_builtins::int::big::<impl compiler_builtins::int::traits::HInt for i128>::widen_mul
 .text.unlikely._ZN17compiler_builtins3int3big71_$LT$impl$u20$compiler_builtins..int..traits..HInt$u20$for$u20$i128$GT$8widen_hi17hd02f55ec31f3daf8E
                0x0000000000132448        0xc ./gen/../tecsrust_uart_led_sample/target/armv7a-none-eabi/release/libitron.a(compiler_builtins-70f608aea3cde50d.compiler_builtins.5a681add74c93a61-cgu.019.rcgu.o)
                0x0000000000132448                compiler_builtins::int::big::<impl compiler_builtins::int::traits::HInt for u128>::widen_hi
                0x0000000000132448                compiler_builtins::int::big::<impl compiler_builtins::int::traits::HInt for i128>::widen_hi
 .text._ZN90_$LT$compiler_builtins..int..big..i256$u20$as$u20$compiler_builtins..int..traits..DInt$GT$2lo17h7b22363a25d41783E
                0x0000000000132454       0x1c ./gen/../tecsrust_uart_led_sample/target/armv7a-none-eabi/release/libitron.a(compiler_builtins-70f608aea3cde50d.compiler_builtins.5a681add74c93a61-cgu.019.rcgu.o)
                0x0000000000132454                <compiler_builtins::int::big::i256 as compiler_builtins::int::traits::DInt>::lo
                0x0000000000132454                <compiler_builtins::int::big::u256 as compiler_builtins::int::traits::DInt>::lo
 .text._ZN90_$LT$compiler_builtins..int..big..i256$u20$as$u20$compiler_builtins..int..traits..DInt$GT$2hi17h3540cc33fb75817bE
                0x0000000000132470       0x20 ./gen/../tecsrust_uart_led_sample/target/armv7a-none-eabi/release/libitron.a(compiler_builtins-70f608aea3cde50d.compiler_builtins.5a681add74c93a61-cgu.019.rcgu.o)
                0x0000000000132470                <compiler_builtins::int::big::u256 as compiler_builtins::int::traits::DInt>::hi
                0x0000000000132470                <compiler_builtins::int::big::i256 as compiler_builtins::int::traits::DInt>::hi
 .text._ZN17compiler_builtins3int6traits4DInt5lo_hi17ha308a58add6cc6a0E
                0x0000000000132490       0x2c ./gen/../tecsrust_uart_led_sample/target/armv7a-none-eabi/release/libitron.a(compiler_builtins-70f608aea3cde50d.compiler_builtins.5a681add74c93a61-cgu.019.rcgu.o)
                0x0000000000132490                compiler_builtins::int::traits::DInt::lo_hi
 .text.unlikely._ZN84_$LT$compiler_builtins..int..big..i256$u20$as$u20$core..ops..bit..Shl$LT$u32$GT$$GT$3shl17h7aea36307c5c7502E
                0x00000000001324bc        0xc ./gen/../tecsrust_uart_led_sample/target/armv7a-none-eabi/release/libitron.a(compiler_builtins-70f608aea3cde50d.compiler_builtins.5a681add74c93a61-cgu.019.rcgu.o)
                0x00000000001324bc                <compiler_builtins::int::big::u256 as core::ops::bit::Shl<u32>>::shl
                0x00000000001324bc                <compiler_builtins::int::big::i256 as core::ops::bit::Shl<u32>>::shl
 .text.__udivmoddi4
                0x00000000001324c8       0x4c ./gen/../tecsrust_uart_led_sample/target/armv7a-none-eabi/release/libitron.a(compiler_builtins-70f608aea3cde50d.compiler_builtins.5a681add74c93a61-cgu.347.rcgu.o)
                0x00000000001324c8                __udivmoddi4
 .text.__aeabi_idiv0
                0x0000000000132514        0x4 ./gen/../tecsrust_uart_led_sample/target/armv7a-none-eabi/release/libitron.a(63f8a0b8a638da8c-aeabi_div0.o)
                0x0000000000132514                __aeabi_idiv0
 .text.__aeabi_ldiv0
                0x0000000000132518        0x4 ./gen/../tecsrust_uart_led_sample/target/armv7a-none-eabi/release/libitron.a(63f8a0b8a638da8c-aeabi_div0.o)
                0x0000000000132518                __aeabi_ldiv0
 .text._ZN17compiler_builtins3int19specialized_div_rem12u128_div_rem17h745fc7146425b8c6E
                0x000000000013251c      0x698 ./gen/../tecsrust_uart_led_sample/target/armv7a-none-eabi/release/libitron.a(compiler_builtins-70f608aea3cde50d.compiler_builtins.5a681add74c93a61-cgu.010.rcgu.o)
                0x000000000013251c                compiler_builtins::int::specialized_div_rem::u128_div_rem
 .text._ZN17compiler_builtins3int19specialized_div_rem11u64_div_rem17h1dcded8ad6a6aa41E
                0x0000000000132bb4      0x2d8 ./gen/../tecsrust_uart_led_sample/target/armv7a-none-eabi/release/libitron.a(compiler_builtins-70f608aea3cde50d.compiler_builtins.5a681add74c93a61-cgu.010.rcgu.o)
                0x0000000000132bb4                compiler_builtins::int::specialized_div_rem::u64_div_rem
 *(.glue_7t)
 .glue_7t       0x0000000000132e8c        0x0 linker stubs
 *(.glue_7)
 .glue_7        0x0000000000132e8c        0x0 linker stubs
                0x0000000000132e8c                __end_kernel = .
                0x0000000000132e8c                _etext = .
                [!provide]                        PROVIDE (etext = .)

.vfp11_veneer   0x0000000000132e8c        0x0
 .vfp11_veneer  0x0000000000132e8c        0x0 linker stubs

.v4_bx          0x0000000000132e8c        0x0
 .v4_bx         0x0000000000132e8c        0x0 linker stubs

.iplt           0x0000000000132e8c        0x0
 .iplt          0x0000000000132e8c        0x0 objs/start.o

.rodata         0x0000000000132e8c     0xf06c
                0x0000000000132e8c                __start_rodata = .
 *(.rodata)
 .rodata        0x0000000000132e8c       0x31 objs/log_output.o
 *fill*         0x0000000000132ebd        0x3 
 .rodata        0x0000000000132ec0       0x2d objs/t_perror.o
 *fill*         0x0000000000132eed        0x3 
 .rodata        0x0000000000132ef0      0x108 objs/strerror.o
 .rodata        0x0000000000132ff8        0x4 objs/tTask_rProcessor1Migratable_tecsgen.o
                0x0000000000132ff8                tTask_INIB_tab
 .rodata        0x0000000000132ffc        0x8 objs/tSemaphore_rProcessor1Migratable_tecsgen.o
                0x0000000000132ffc                tSemaphore_INIB_tab
 .rodata        0x0000000000133004        0x4 objs/tInterruptRequest_rProcessor1Migratable_tecsgen.o
                0x0000000000133004                tInterruptRequest_INIB_tab
 .rodata        0x0000000000133008        0x4 objs/tISR_rProcessor1Migratable_tecsgen.o
                0x0000000000133008                tISR_INIB_tab
 .rodata        0x000000000013300c        0x8 objs/tTerminateRoutine_rProcessor1Migratable_tecsgen.o
                0x000000000013300c                tTerminateRoutine_INIB_tab
 .rodata        0x0000000000133014       0x30 objs/tSerialPortMain_rProcessor1Migratable_tecsgen.o
                0x0000000000133014                tSerialPortMain_INIB_tab
                0x0000000000133024                rProcessor1Migratable_SerialPort1_SerialPortMain_eSerialPort_des
                0x000000000013302c                tSerialPortMain_eSerialPort_MT_
 .rodata        0x0000000000133044        0xc objs/tSerialAdapter_rProcessor1Migratable_tecsgen.o
                0x0000000000133044                tSerialAdapter_SINGLE_CELL_INIB
                0x000000000013304c                rProcessor1Migratable_SerialAdapter_cSerialPort
 .rodata        0x0000000000133050       0x10 objs/tSysLog_rProcessor1Migratable_tecsgen.o
                0x0000000000133050                tSysLog_SINGLE_CELL_INIB
 .rodata        0x0000000000133060       0x14 objs/tLogTaskMain_rProcessor1Migratable_tecsgen.o
                0x0000000000133060                rProcessor1Migratable_LogTask_LogTaskMain_eLogTaskTerminate_des
                0x0000000000133068                tLogTaskMain_SINGLE_CELL_INIB
                0x0000000000133070                tLogTaskMain_eLogTaskTerminate_MT_
 .rodata        0x0000000000133074       0x18 objs/tXUartPs_rProcessor1Migratable_tecsgen.o
                0x0000000000133074                tXUartPs_INIB_tab
                0x0000000000133080                rProcessor1Migratable_SIOPortTarget1_XUartPs_eTerminate_des
                0x0000000000133088                tXUartPs_eTerminate_MT_
 .rodata        0x000000000013308c      0x658 objs/kernel_cfg.o
                0x000000000013308c                _kernel_p_exc_table
                0x0000000000133094                _kernel_exc_table_prc2
                0x00000000001330b0                _kernel_exc_table_prc1
                0x00000000001330cc                _kernel_p_intcfg_table
                0x00000000001330d4                _kernel_intcfg_table_prc2
                0x0000000000133134                _kernel_intcfg_table_prc1
                0x0000000000133194                _kernel_p_inh_table
                0x000000000013319c                _kernel_inh_table_prc2
                0x000000000013331c                _kernel_inh_table_prc1
                0x000000000013349c                _kernel_terrtnbb_table
                0x00000000001334b4                _kernel_terrtnb_table_prc2
                0x00000000001334bc                _kernel_terrtnb_table_prc1
                0x00000000001334d4                _kernel_inirtnbb_table
                0x00000000001334ec                _kernel_inirtnb_table_prc2
                0x00000000001334f4                _kernel_inirtnb_table_prc1
                0x0000000000133504                _kernel_p_tevtcb_table
                0x000000000013350c                _kernel_p_tmevt_heap_table
                0x0000000000133514                _kernel_idstkpt_table
                0x000000000013351c                _kernel_istkpt_table
                0x0000000000133524                _kernel_istk_table
                0x000000000013352c                _kernel_istksz_table
                0x0000000000133534                _kernel_intinib_table
                0x00000000001335e8                _kernel_tnum_cfg_intno
                0x00000000001335ec                _kernel_p_almcb_table
                0x00000000001335ec                _kernel_alminib_table
                0x00000000001335ec                _kernel_tmax_almid
                0x00000000001335f0                _kernel_cycinib_table
                0x00000000001335f0                _kernel_p_cyccb_table
                0x00000000001335f0                _kernel_tmax_cycid
                0x00000000001335f4                _kernel_tmax_mpfid
                0x00000000001335f4                _kernel_mpfinib_table
                0x00000000001335f4                _kernel_p_mpfcb_table
                0x00000000001335f8                _kernel_spninib_table
                0x00000000001335f8                _kernel_tmax_spnid
                0x00000000001335fc                _kernel_p_mtxcb_table
                0x0000000000133600                _kernel_mtxinib_table
                0x0000000000133608                _kernel_tmax_mtxid
                0x000000000013360c                _kernel_pdqinib_table
                0x000000000013360c                _kernel_tmax_pdqid
                0x000000000013360c                _kernel_p_pdqcb_table
                0x0000000000133610                _kernel_p_dtqcb_table
                0x0000000000133618                _kernel_dtqinib_table
                0x0000000000133630                _kernel_tmax_dtqid
                0x0000000000133634                _kernel_p_flgcb_table
                0x0000000000133634                _kernel_flginib_table
                0x0000000000133634                _kernel_tmax_flgid
                0x0000000000133638                _kernel_p_semcb_table
                0x0000000000133640                _kernel_seminib_table
                0x0000000000133658                _kernel_tmax_semid
                0x000000000013365c                _kernel_subprio_primap
                0x0000000000133660                _kernel_torder_table
                0x000000000013366c                _kernel_p_tcb_table
                0x0000000000133678                _kernel_tinib_table
                0x00000000001336d8                _kernel_tmax_tskid
                0x00000000001336dc                _kernel_p_pcb_table
 .rodata        0x00000000001336e4        0x4 ./libkernel.a(target_kernel_impl.o)
                0x00000000001336e4                arm_tnum_memory_area
 .rodata        0x00000000001336e8       0x3c ./libkernel.a(core_kernel_impl.o)
 *(.rodata.*)
 .rodata.str1.4
                0x0000000000133724       0x36 objs/log_output.o
 *fill*         0x000000000013375a        0x2 
 .rodata.str1.4
                0x000000000013375c       0xd9 objs/strerror.o
 *fill*         0x0000000000133835        0x3 
 .rodata.str1.4
                0x0000000000133838       0x39 objs/tLogTaskMain.o
 .rodata.str1.1
                0x0000000000133871       0x1c ./gen/../tecsrust_uart_led_sample/target/armv7a-none-eabi/release/libitron.a(itron-45c5fd98eb955c4a.itron.9d87066d26af0b75-cgu.0.rcgu.o)
 *fill*         0x000000000013388d        0x3 
 .rodata..Lanon.e04aa9016641e4b615f0e5a391ef668c.1
                0x0000000000133890       0x10 ./gen/../tecsrust_uart_led_sample/target/armv7a-none-eabi/release/libitron.a(itron-45c5fd98eb955c4a.itron.9d87066d26af0b75-cgu.0.rcgu.o)
 .rodata..Lanon.e04aa9016641e4b615f0e5a391ef668c.2
                0x00000000001338a0        0xc ./gen/../tecsrust_uart_led_sample/target/armv7a-none-eabi/release/libitron.a(itron-45c5fd98eb955c4a.itron.9d87066d26af0b75-cgu.0.rcgu.o)
 .rodata..Lanon.e04aa9016641e4b615f0e5a391ef668c.3
                0x00000000001338ac       0x27 ./gen/../tecsrust_uart_led_sample/target/armv7a-none-eabi/release/libitron.a(itron-45c5fd98eb955c4a.itron.9d87066d26af0b75-cgu.0.rcgu.o)
 *fill*         0x00000000001338d3        0x1 
 .rodata..Lanon.e04aa9016641e4b615f0e5a391ef668c.4
                0x00000000001338d4       0x10 ./gen/../tecsrust_uart_led_sample/target/armv7a-none-eabi/release/libitron.a(itron-45c5fd98eb955c4a.itron.9d87066d26af0b75-cgu.0.rcgu.o)
 .rodata..Lanon.e04aa9016641e4b615f0e5a391ef668c.5
                0x00000000001338e4       0x10 ./gen/../tecsrust_uart_led_sample/target/armv7a-none-eabi/release/libitron.a(itron-45c5fd98eb955c4a.itron.9d87066d26af0b75-cgu.0.rcgu.o)
 .rodata..Lanon.e04aa9016641e4b615f0e5a391ef668c.6
                0x00000000001338f4       0x10 ./gen/../tecsrust_uart_led_sample/target/armv7a-none-eabi/release/libitron.a(itron-45c5fd98eb955c4a.itron.9d87066d26af0b75-cgu.0.rcgu.o)
 .rodata.cst32  0x0000000000133904       0x20 ./gen/../tecsrust_uart_led_sample/target/armv7a-none-eabi/release/libitron.a(itron-45c5fd98eb955c4a.itron.9d87066d26af0b75-cgu.0.rcgu.o)
 .rodata..Lanon.e04aa9016641e4b615f0e5a391ef668c.8
                0x0000000000133924       0x10 ./gen/../tecsrust_uart_led_sample/target/armv7a-none-eabi/release/libitron.a(itron-45c5fd98eb955c4a.itron.9d87066d26af0b75-cgu.0.rcgu.o)
 .rodata..Lanon.e04aa9016641e4b615f0e5a391ef668c.9
                0x0000000000133934       0x10 ./gen/../tecsrust_uart_led_sample/target/armv7a-none-eabi/release/libitron.a(itron-45c5fd98eb955c4a.itron.9d87066d26af0b75-cgu.0.rcgu.o)
 .rodata..Lanon.cdcacac2f3e4733548ac1a094073207f.0
                0x0000000000133944        0x5 ./gen/../tecsrust_uart_led_sample/target/armv7a-none-eabi/release/libitron.a(itron-fbcb73bf0b635dd5.itron.68e737fdf62a80e5-cgu.0.rcgu.o)
 .rodata..Lanon.cdcacac2f3e4733548ac1a094073207f.1
                0x0000000000133949        0x7 ./gen/../tecsrust_uart_led_sample/target/armv7a-none-eabi/release/libitron.a(itron-fbcb73bf0b635dd5.itron.68e737fdf62a80e5-cgu.0.rcgu.o)
 .rodata..Lanon.cdcacac2f3e4733548ac1a094073207f.2
                0x0000000000133950        0x6 ./gen/../tecsrust_uart_led_sample/target/armv7a-none-eabi/release/libitron.a(itron-fbcb73bf0b635dd5.itron.68e737fdf62a80e5-cgu.0.rcgu.o)
 .rodata..Lanon.cdcacac2f3e4733548ac1a094073207f.3
                0x0000000000133956        0x7 ./gen/../tecsrust_uart_led_sample/target/armv7a-none-eabi/release/libitron.a(itron-fbcb73bf0b635dd5.itron.68e737fdf62a80e5-cgu.0.rcgu.o)
 .rodata..Lanon.cdcacac2f3e4733548ac1a094073207f.4
                0x000000000013395d        0x5 ./gen/../tecsrust_uart_led_sample/target/armv7a-none-eabi/release/libitron.a(itron-fbcb73bf0b635dd5.itron.68e737fdf62a80e5-cgu.0.rcgu.o)
 .rodata.cst4   0x0000000000133962        0x4 ./gen/../tecsrust_uart_led_sample/target/armv7a-none-eabi/release/libitron.a(itron-fbcb73bf0b635dd5.itron.68e737fdf62a80e5-cgu.0.rcgu.o)
 .rodata..Lanon.cdcacac2f3e4733548ac1a094073207f.6
                0x0000000000133966        0x5 ./gen/../tecsrust_uart_led_sample/target/armv7a-none-eabi/release/libitron.a(itron-fbcb73bf0b635dd5.itron.68e737fdf62a80e5-cgu.0.rcgu.o)
 .rodata..Lanon.cdcacac2f3e4733548ac1a094073207f.7
                0x000000000013396b        0x6 ./gen/../tecsrust_uart_led_sample/target/armv7a-none-eabi/release/libitron.a(itron-fbcb73bf0b635dd5.itron.68e737fdf62a80e5-cgu.0.rcgu.o)
 .rodata..Lanon.cdcacac2f3e4733548ac1a094073207f.8
                0x0000000000133971        0x6 ./gen/../tecsrust_uart_led_sample/target/armv7a-none-eabi/release/libitron.a(itron-fbcb73bf0b635dd5.itron.68e737fdf62a80e5-cgu.0.rcgu.o)
 .rodata..Lanon.cdcacac2f3e4733548ac1a094073207f.9
                0x0000000000133977        0x7 ./gen/../tecsrust_uart_led_sample/target/armv7a-none-eabi/release/libitron.a(itron-fbcb73bf0b635dd5.itron.68e737fdf62a80e5-cgu.0.rcgu.o)
 .rodata..Lanon.cdcacac2f3e4733548ac1a094073207f.10
                0x000000000013397e        0x7 ./gen/../tecsrust_uart_led_sample/target/armv7a-none-eabi/release/libitron.a(itron-fbcb73bf0b635dd5.itron.68e737fdf62a80e5-cgu.0.rcgu.o)
 .rodata..Lanon.cdcacac2f3e4733548ac1a094073207f.11
                0x0000000000133985        0x6 ./gen/../tecsrust_uart_led_sample/target/armv7a-none-eabi/release/libitron.a(itron-fbcb73bf0b635dd5.itron.68e737fdf62a80e5-cgu.0.rcgu.o)
 .rodata..Lanon.cdcacac2f3e4733548ac1a094073207f.12
                0x000000000013398b        0x7 ./gen/../tecsrust_uart_led_sample/target/armv7a-none-eabi/release/libitron.a(itron-fbcb73bf0b635dd5.itron.68e737fdf62a80e5-cgu.0.rcgu.o)
 .rodata..Lanon.cdcacac2f3e4733548ac1a094073207f.13
                0x0000000000133992        0x5 ./gen/../tecsrust_uart_led_sample/target/armv7a-none-eabi/release/libitron.a(itron-fbcb73bf0b635dd5.itron.68e737fdf62a80e5-cgu.0.rcgu.o)
 .rodata..Lanon.cdcacac2f3e4733548ac1a094073207f.14
                0x0000000000133997        0x7 ./gen/../tecsrust_uart_led_sample/target/armv7a-none-eabi/release/libitron.a(itron-fbcb73bf0b635dd5.itron.68e737fdf62a80e5-cgu.0.rcgu.o)
 .rodata..Lanon.cdcacac2f3e4733548ac1a094073207f.15
                0x000000000013399e        0x6 ./gen/../tecsrust_uart_led_sample/target/armv7a-none-eabi/release/libitron.a(itron-fbcb73bf0b635dd5.itron.68e737fdf62a80e5-cgu.0.rcgu.o)
 .rodata..Lanon.cdcacac2f3e4733548ac1a094073207f.16
                0x00000000001339a4        0x7 ./gen/../tecsrust_uart_led_sample/target/armv7a-none-eabi/release/libitron.a(itron-fbcb73bf0b635dd5.itron.68e737fdf62a80e5-cgu.0.rcgu.o)
 .rodata..Lanon.cdcacac2f3e4733548ac1a094073207f.17
                0x00000000001339ab        0x7 ./gen/../tecsrust_uart_led_sample/target/armv7a-none-eabi/release/libitron.a(itron-fbcb73bf0b635dd5.itron.68e737fdf62a80e5-cgu.0.rcgu.o)
 .rodata..Lanon.cdcacac2f3e4733548ac1a094073207f.18
                0x00000000001339b2        0x5 ./gen/../tecsrust_uart_led_sample/target/armv7a-none-eabi/release/libitron.a(itron-fbcb73bf0b635dd5.itron.68e737fdf62a80e5-cgu.0.rcgu.o)
 .rodata..Lanon.cdcacac2f3e4733548ac1a094073207f.19
                0x00000000001339b7        0x5 ./gen/../tecsrust_uart_led_sample/target/armv7a-none-eabi/release/libitron.a(itron-fbcb73bf0b635dd5.itron.68e737fdf62a80e5-cgu.0.rcgu.o)
 .rodata.cst8   0x00000000001339bc       0x10 ./gen/../tecsrust_uart_led_sample/target/armv7a-none-eabi/release/libitron.a(itron-fbcb73bf0b635dd5.itron.68e737fdf62a80e5-cgu.0.rcgu.o)
 .rodata..Lanon.cdcacac2f3e4733548ac1a094073207f.21
                0x00000000001339cc        0x6 ./gen/../tecsrust_uart_led_sample/target/armv7a-none-eabi/release/libitron.a(itron-fbcb73bf0b635dd5.itron.68e737fdf62a80e5-cgu.0.rcgu.o)
 .rodata..Lanon.cdcacac2f3e4733548ac1a094073207f.22
                0x00000000001339d2        0x6 ./gen/../tecsrust_uart_led_sample/target/armv7a-none-eabi/release/libitron.a(itron-fbcb73bf0b635dd5.itron.68e737fdf62a80e5-cgu.0.rcgu.o)
 .rodata..Lanon.cdcacac2f3e4733548ac1a094073207f.23
                0x00000000001339d8        0x6 ./gen/../tecsrust_uart_led_sample/target/armv7a-none-eabi/release/libitron.a(itron-fbcb73bf0b635dd5.itron.68e737fdf62a80e5-cgu.0.rcgu.o)
 .rodata..Lanon.cdcacac2f3e4733548ac1a094073207f.25
                0x00000000001339de        0xa ./gen/../tecsrust_uart_led_sample/target/armv7a-none-eabi/release/libitron.a(itron-fbcb73bf0b635dd5.itron.68e737fdf62a80e5-cgu.0.rcgu.o)
 .rodata..Lanon.cdcacac2f3e4733548ac1a094073207f.26
                0x00000000001339e8        0x1 ./gen/../tecsrust_uart_led_sample/target/armv7a-none-eabi/release/libitron.a(itron-fbcb73bf0b635dd5.itron.68e737fdf62a80e5-cgu.0.rcgu.o)
 *fill*         0x00000000001339e9        0x3 
 .rodata..Lanon.cdcacac2f3e4733548ac1a094073207f.27
                0x00000000001339ec       0x10 ./gen/../tecsrust_uart_led_sample/target/armv7a-none-eabi/release/libitron.a(itron-fbcb73bf0b635dd5.itron.68e737fdf62a80e5-cgu.0.rcgu.o)
 .rodata..Lanon.cdcacac2f3e4733548ac1a094073207f.28
                0x00000000001339fc        0xb ./gen/../tecsrust_uart_led_sample/target/armv7a-none-eabi/release/libitron.a(itron-fbcb73bf0b635dd5.itron.68e737fdf62a80e5-cgu.0.rcgu.o)
 *fill*         0x0000000000133a07        0x1 
 .rodata..Lanon.cdcacac2f3e4733548ac1a094073207f.29
                0x0000000000133a08       0x10 ./gen/../tecsrust_uart_led_sample/target/armv7a-none-eabi/release/libitron.a(itron-fbcb73bf0b635dd5.itron.68e737fdf62a80e5-cgu.0.rcgu.o)
 .rodata..Lanon.cdcacac2f3e4733548ac1a094073207f.30
                0x0000000000133a18        0x6 ./gen/../tecsrust_uart_led_sample/target/armv7a-none-eabi/release/libitron.a(itron-fbcb73bf0b635dd5.itron.68e737fdf62a80e5-cgu.0.rcgu.o)
 *fill*         0x0000000000133a1e        0x2 
 .rodata..Lanon.cdcacac2f3e4733548ac1a094073207f.31
                0x0000000000133a20       0x10 ./gen/../tecsrust_uart_led_sample/target/armv7a-none-eabi/release/libitron.a(itron-fbcb73bf0b635dd5.itron.68e737fdf62a80e5-cgu.0.rcgu.o)
 .rodata..Lanon.cdcacac2f3e4733548ac1a094073207f.32
                0x0000000000133a30        0xa ./gen/../tecsrust_uart_led_sample/target/armv7a-none-eabi/release/libitron.a(itron-fbcb73bf0b635dd5.itron.68e737fdf62a80e5-cgu.0.rcgu.o)
 *fill*         0x0000000000133a3a        0x2 
 .rodata..Lanon.cdcacac2f3e4733548ac1a094073207f.33
                0x0000000000133a3c       0x10 ./gen/../tecsrust_uart_led_sample/target/armv7a-none-eabi/release/libitron.a(itron-fbcb73bf0b635dd5.itron.68e737fdf62a80e5-cgu.0.rcgu.o)
 .rodata..Lanon.cdcacac2f3e4733548ac1a094073207f.34
                0x0000000000133a4c        0xa ./gen/../tecsrust_uart_led_sample/target/armv7a-none-eabi/release/libitron.a(itron-fbcb73bf0b635dd5.itron.68e737fdf62a80e5-cgu.0.rcgu.o)
 *fill*         0x0000000000133a56        0x2 
 .rodata..Lanon.cdcacac2f3e4733548ac1a094073207f.35
                0x0000000000133a58       0x10 ./gen/../tecsrust_uart_led_sample/target/armv7a-none-eabi/release/libitron.a(itron-fbcb73bf0b635dd5.itron.68e737fdf62a80e5-cgu.0.rcgu.o)
 .rodata..Lanon.cdcacac2f3e4733548ac1a094073207f.36
                0x0000000000133a68        0x5 ./gen/../tecsrust_uart_led_sample/target/armv7a-none-eabi/release/libitron.a(itron-fbcb73bf0b635dd5.itron.68e737fdf62a80e5-cgu.0.rcgu.o)
 *fill*         0x0000000000133a6d        0x3 
 .rodata..Lanon.cdcacac2f3e4733548ac1a094073207f.37
                0x0000000000133a70       0x10 ./gen/../tecsrust_uart_led_sample/target/armv7a-none-eabi/release/libitron.a(itron-fbcb73bf0b635dd5.itron.68e737fdf62a80e5-cgu.0.rcgu.o)
 .rodata..Lanon.cdcacac2f3e4733548ac1a094073207f.38
                0x0000000000133a80       0x59 ./gen/../tecsrust_uart_led_sample/target/armv7a-none-eabi/release/libitron.a(itron-fbcb73bf0b635dd5.itron.68e737fdf62a80e5-cgu.0.rcgu.o)
 *fill*         0x0000000000133ad9        0x3 
 .rodata..Lanon.cdcacac2f3e4733548ac1a094073207f.39
                0x0000000000133adc       0x10 ./gen/../tecsrust_uart_led_sample/target/armv7a-none-eabi/release/libitron.a(itron-fbcb73bf0b635dd5.itron.68e737fdf62a80e5-cgu.0.rcgu.o)
 .rodata._ZN4core7unicode12unicode_data10alphabetic7OFFSETS17hdc526415903ccd82E
                0x0000000000133aec      0x5eb ./gen/../tecsrust_uart_led_sample/target/armv7a-none-eabi/release/libitron.a(core-d049573bc16596f9.core.5587a85061e7188a-cgu.0.rcgu.o)
 .rodata._ZN4core7unicode12unicode_data14case_ignorable7OFFSETS17hde027294297a5b30E
                0x00000000001340d7      0x389 ./gen/../tecsrust_uart_led_sample/target/armv7a-none-eabi/release/libitron.a(core-d049573bc16596f9.core.5587a85061e7188a-cgu.0.rcgu.o)
 .rodata._ZN4core7unicode12unicode_data5cased7OFFSETS17h4d7f7f757bbbcd2fE
                0x0000000000134460      0x13f ./gen/../tecsrust_uart_led_sample/target/armv7a-none-eabi/release/libitron.a(core-d049573bc16596f9.core.5587a85061e7188a-cgu.0.rcgu.o)
 .rodata._ZN4core7unicode12unicode_data15grapheme_extend7OFFSETS17h10bd76417f3c2fd6E
                0x000000000013459f      0x2ef ./gen/../tecsrust_uart_led_sample/target/armv7a-none-eabi/release/libitron.a(core-d049573bc16596f9.core.5587a85061e7188a-cgu.0.rcgu.o)
 .rodata._ZN4core7unicode12unicode_data9lowercase17BITSET_CHUNKS_MAP17hffaf68f0f508fac7E
                0x000000000013488e       0x7b ./gen/../tecsrust_uart_led_sample/target/armv7a-none-eabi/release/libitron.a(core-d049573bc16596f9.core.5587a85061e7188a-cgu.0.rcgu.o)
                0x000000000013488e                core::unicode::unicode_data::lowercase::BITSET_CHUNKS_MAP
 .rodata._ZN4core7unicode12unicode_data1n7OFFSETS17hdb97b96c7cf27088E
                0x0000000000134909      0x121 ./gen/../tecsrust_uart_led_sample/target/armv7a-none-eabi/release/libitron.a(core-d049573bc16596f9.core.5587a85061e7188a-cgu.0.rcgu.o)
 .rodata._ZN4core7unicode12unicode_data9uppercase17BITSET_CHUNKS_MAP17h6b9400355040de03E
                0x0000000000134a2a       0x7d ./gen/../tecsrust_uart_led_sample/target/armv7a-none-eabi/release/libitron.a(core-d049573bc16596f9.core.5587a85061e7188a-cgu.0.rcgu.o)
                0x0000000000134a2a                core::unicode::unicode_data::uppercase::BITSET_CHUNKS_MAP
 .rodata._ZN4core7unicode12unicode_data11white_space14WHITESPACE_MAP17h2de0024a71532bf3E
                0x0000000000134aa7      0x100 ./gen/../tecsrust_uart_led_sample/target/armv7a-none-eabi/release/libitron.a(core-d049573bc16596f9.core.5587a85061e7188a-cgu.0.rcgu.o)
                0x0000000000134aa7                core::unicode::unicode_data::white_space::WHITESPACE_MAP
 *fill*         0x0000000000134ba7        0x1 
 .rodata..Lanon.a0506fc3c6b36e5783e71ab63da9841e.0
                0x0000000000134ba8       0x80 ./gen/../tecsrust_uart_led_sample/target/armv7a-none-eabi/release/libitron.a(core-d049573bc16596f9.core.5587a85061e7188a-cgu.0.rcgu.o)
 .rodata..Lanon.a0506fc3c6b36e5783e71ab63da9841e.1
                0x0000000000134c28       0x2b ./gen/../tecsrust_uart_led_sample/target/armv7a-none-eabi/release/libitron.a(core-d049573bc16596f9.core.5587a85061e7188a-cgu.0.rcgu.o)
 *fill*         0x0000000000134c53        0x1 
 .rodata..Lanon.a0506fc3c6b36e5783e71ab63da9841e.2
                0x0000000000134c54       0x10 ./gen/../tecsrust_uart_led_sample/target/armv7a-none-eabi/release/libitron.a(core-d049573bc16596f9.core.5587a85061e7188a-cgu.0.rcgu.o)
 .rodata..Lanon.a0506fc3c6b36e5783e71ab63da9841e.3
                0x0000000000134c64       0x10 ./gen/../tecsrust_uart_led_sample/target/armv7a-none-eabi/release/libitron.a(core-d049573bc16596f9.core.5587a85061e7188a-cgu.0.rcgu.o)
 .rodata..Lanon.a0506fc3c6b36e5783e71ab63da9841e.4
                0x0000000000134c74       0x10 ./gen/../tecsrust_uart_led_sample/target/armv7a-none-eabi/release/libitron.a(core-d049573bc16596f9.core.5587a85061e7188a-cgu.0.rcgu.o)
 .rodata..Lanon.a0506fc3c6b36e5783e71ab63da9841e.5
                0x0000000000134c84       0x10 ./gen/../tecsrust_uart_led_sample/target/armv7a-none-eabi/release/libitron.a(core-d049573bc16596f9.core.5587a85061e7188a-cgu.0.rcgu.o)
 .rodata..Lanon.a0506fc3c6b36e5783e71ab63da9841e.6
                0x0000000000134c94       0x10 ./gen/../tecsrust_uart_led_sample/target/armv7a-none-eabi/release/libitron.a(core-d049573bc16596f9.core.5587a85061e7188a-cgu.0.rcgu.o)
 .rodata..Lanon.a0506fc3c6b36e5783e71ab63da9841e.7
                0x0000000000134ca4       0x10 ./gen/../tecsrust_uart_led_sample/target/armv7a-none-eabi/release/libitron.a(core-d049573bc16596f9.core.5587a85061e7188a-cgu.0.rcgu.o)
 .rodata..Lanon.a0506fc3c6b36e5783e71ab63da9841e.8
                0x0000000000134cb4       0x82 ./gen/../tecsrust_uart_led_sample/target/armv7a-none-eabi/release/libitron.a(core-d049573bc16596f9.core.5587a85061e7188a-cgu.0.rcgu.o)
 .rodata..Lanon.a0506fc3c6b36e5783e71ab63da9841e.9
                0x0000000000134d36      0x51c ./gen/../tecsrust_uart_led_sample/target/armv7a-none-eabi/release/libitron.a(core-d049573bc16596f9.core.5587a85061e7188a-cgu.0.rcgu.o)
 *fill*         0x0000000000135252        0x2 
 .rodata..Lanon.a0506fc3c6b36e5783e71ab63da9841e.10
                0x0000000000135254       0x10 ./gen/../tecsrust_uart_led_sample/target/armv7a-none-eabi/release/libitron.a(core-d049573bc16596f9.core.5587a85061e7188a-cgu.0.rcgu.o)
 .rodata..Lanon.a0506fc3c6b36e5783e71ab63da9841e.11
                0x0000000000135264       0x10 ./gen/../tecsrust_uart_led_sample/target/armv7a-none-eabi/release/libitron.a(core-d049573bc16596f9.core.5587a85061e7188a-cgu.0.rcgu.o)
 .rodata.cst16  0x0000000000135274       0x80 ./gen/../tecsrust_uart_led_sample/target/armv7a-none-eabi/release/libitron.a(core-d049573bc16596f9.core.5587a85061e7188a-cgu.0.rcgu.o)
 .rodata..Lanon.a0506fc3c6b36e5783e71ab63da9841e.13
                0x00000000001352f4       0x40 ./gen/../tecsrust_uart_led_sample/target/armv7a-none-eabi/release/libitron.a(core-d049573bc16596f9.core.5587a85061e7188a-cgu.0.rcgu.o)
 *fill*         0x0000000000135334        0x4 
 .rodata..Lanon.a0506fc3c6b36e5783e71ab63da9841e.14
                0x0000000000135338      0x100 ./gen/../tecsrust_uart_led_sample/target/armv7a-none-eabi/release/libitron.a(core-d049573bc16596f9.core.5587a85061e7188a-cgu.0.rcgu.o)
 .rodata..Lanon.a0506fc3c6b36e5783e71ab63da9841e.15
                0x0000000000135438       0x26 ./gen/../tecsrust_uart_led_sample/target/armv7a-none-eabi/release/libitron.a(core-d049573bc16596f9.core.5587a85061e7188a-cgu.0.rcgu.o)
 *fill*         0x000000000013545e        0x2 
 .rodata..Lanon.a0506fc3c6b36e5783e71ab63da9841e.16
                0x0000000000135460       0x10 ./gen/../tecsrust_uart_led_sample/target/armv7a-none-eabi/release/libitron.a(core-d049573bc16596f9.core.5587a85061e7188a-cgu.0.rcgu.o)
 .rodata..Lanon.a0506fc3c6b36e5783e71ab63da9841e.17
                0x0000000000135470       0x25 ./gen/../tecsrust_uart_led_sample/target/armv7a-none-eabi/release/libitron.a(core-d049573bc16596f9.core.5587a85061e7188a-cgu.0.rcgu.o)
 *fill*         0x0000000000135495        0x3 
 .rodata..Lanon.a0506fc3c6b36e5783e71ab63da9841e.18
                0x0000000000135498       0x10 ./gen/../tecsrust_uart_led_sample/target/armv7a-none-eabi/release/libitron.a(core-d049573bc16596f9.core.5587a85061e7188a-cgu.0.rcgu.o)
 .rodata..Lanon.a0506fc3c6b36e5783e71ab63da9841e.19
                0x00000000001354a8       0x24 ./gen/../tecsrust_uart_led_sample/target/armv7a-none-eabi/release/libitron.a(core-d049573bc16596f9.core.5587a85061e7188a-cgu.0.rcgu.o)
 .rodata..Lanon.a0506fc3c6b36e5783e71ab63da9841e.20
                0x00000000001354cc       0x15 ./gen/../tecsrust_uart_led_sample/target/armv7a-none-eabi/release/libitron.a(core-d049573bc16596f9.core.5587a85061e7188a-cgu.0.rcgu.o)
 .rodata..Lanon.a0506fc3c6b36e5783e71ab63da9841e.21
                0x00000000001354e1       0x1d ./gen/../tecsrust_uart_led_sample/target/armv7a-none-eabi/release/libitron.a(core-d049573bc16596f9.core.5587a85061e7188a-cgu.0.rcgu.o)
 .rodata..Lanon.a0506fc3c6b36e5783e71ab63da9841e.22
                0x00000000001354fe       0x21 ./gen/../tecsrust_uart_led_sample/target/armv7a-none-eabi/release/libitron.a(core-d049573bc16596f9.core.5587a85061e7188a-cgu.0.rcgu.o)
 *fill*         0x000000000013551f        0x1 
 .rodata..Lanon.a0506fc3c6b36e5783e71ab63da9841e.23
                0x0000000000135520       0x10 ./gen/../tecsrust_uart_led_sample/target/armv7a-none-eabi/release/libitron.a(core-d049573bc16596f9.core.5587a85061e7188a-cgu.0.rcgu.o)
 .rodata..Lanon.a0506fc3c6b36e5783e71ab63da9841e.24
                0x0000000000135530       0x10 ./gen/../tecsrust_uart_led_sample/target/armv7a-none-eabi/release/libitron.a(core-d049573bc16596f9.core.5587a85061e7188a-cgu.0.rcgu.o)
 .rodata._ZN4core3num7flt2dec8strategy6dragon8POW5TO1617h9aa120b17aa06f22E
                0x0000000000135540        0x8 ./gen/../tecsrust_uart_led_sample/target/armv7a-none-eabi/release/libitron.a(core-d049573bc16596f9.core.5587a85061e7188a-cgu.0.rcgu.o)
 .rodata._ZN4core3num7flt2dec8strategy6dragon8POW5TO3217hd052c03e770190b7E
                0x0000000000135548        0xc ./gen/../tecsrust_uart_led_sample/target/armv7a-none-eabi/release/libitron.a(core-d049573bc16596f9.core.5587a85061e7188a-cgu.0.rcgu.o)
 .rodata._ZN4core3num7flt2dec8strategy6dragon8POW5TO6417h2dc1159c29093a1eE
                0x0000000000135554       0x14 ./gen/../tecsrust_uart_led_sample/target/armv7a-none-eabi/release/libitron.a(core-d049573bc16596f9.core.5587a85061e7188a-cgu.0.rcgu.o)
 .rodata._ZN4core3num7flt2dec8strategy6dragon9POW5TO12817ha974d5882b6b5763E
                0x0000000000135568       0x28 ./gen/../tecsrust_uart_led_sample/target/armv7a-none-eabi/release/libitron.a(core-d049573bc16596f9.core.5587a85061e7188a-cgu.0.rcgu.o)
 .rodata._ZN4core3num7flt2dec8strategy6dragon9POW5TO25617hec924f6a1e1f056cE
                0x0000000000135590       0x4c ./gen/../tecsrust_uart_led_sample/target/armv7a-none-eabi/release/libitron.a(core-d049573bc16596f9.core.5587a85061e7188a-cgu.0.rcgu.o)
 .rodata..Lanon.a0506fc3c6b36e5783e71ab63da9841e.25
                0x00000000001355dc       0x2f ./gen/../tecsrust_uart_led_sample/target/armv7a-none-eabi/release/libitron.a(core-d049573bc16596f9.core.5587a85061e7188a-cgu.0.rcgu.o)
 .rodata..Lanon.a0506fc3c6b36e5783e71ab63da9841e.26
                0x000000000013560b       0x1c ./gen/../tecsrust_uart_led_sample/target/armv7a-none-eabi/release/libitron.a(core-d049573bc16596f9.core.5587a85061e7188a-cgu.0.rcgu.o)
 *fill*         0x0000000000135627        0x1 
 .rodata..Lanon.a0506fc3c6b36e5783e71ab63da9841e.27
                0x0000000000135628       0x10 ./gen/../tecsrust_uart_led_sample/target/armv7a-none-eabi/release/libitron.a(core-d049573bc16596f9.core.5587a85061e7188a-cgu.0.rcgu.o)
 .rodata..Lanon.a0506fc3c6b36e5783e71ab63da9841e.28
                0x0000000000135638       0x1d ./gen/../tecsrust_uart_led_sample/target/armv7a-none-eabi/release/libitron.a(core-d049573bc16596f9.core.5587a85061e7188a-cgu.0.rcgu.o)
 *fill*         0x0000000000135655        0x3 
 .rodata..Lanon.a0506fc3c6b36e5783e71ab63da9841e.29
                0x0000000000135658       0x10 ./gen/../tecsrust_uart_led_sample/target/armv7a-none-eabi/release/libitron.a(core-d049573bc16596f9.core.5587a85061e7188a-cgu.0.rcgu.o)
 .rodata..Lanon.a0506fc3c6b36e5783e71ab63da9841e.30
                0x0000000000135668       0x1c ./gen/../tecsrust_uart_led_sample/target/armv7a-none-eabi/release/libitron.a(core-d049573bc16596f9.core.5587a85061e7188a-cgu.0.rcgu.o)
 .rodata..Lanon.a0506fc3c6b36e5783e71ab63da9841e.31
                0x0000000000135684       0x10 ./gen/../tecsrust_uart_led_sample/target/armv7a-none-eabi/release/libitron.a(core-d049573bc16596f9.core.5587a85061e7188a-cgu.0.rcgu.o)
 .rodata..Lanon.a0506fc3c6b36e5783e71ab63da9841e.32
                0x0000000000135694       0x2d ./gen/../tecsrust_uart_led_sample/target/armv7a-none-eabi/release/libitron.a(core-d049573bc16596f9.core.5587a85061e7188a-cgu.0.rcgu.o)
 *fill*         0x00000000001356c1        0x3 
 .rodata..Lanon.a0506fc3c6b36e5783e71ab63da9841e.33
                0x00000000001356c4       0x10 ./gen/../tecsrust_uart_led_sample/target/armv7a-none-eabi/release/libitron.a(core-d049573bc16596f9.core.5587a85061e7188a-cgu.0.rcgu.o)
 .rodata..Lanon.a0506fc3c6b36e5783e71ab63da9841e.34
                0x00000000001356d4       0x10 ./gen/../tecsrust_uart_led_sample/target/armv7a-none-eabi/release/libitron.a(core-d049573bc16596f9.core.5587a85061e7188a-cgu.0.rcgu.o)
 .rodata..Lanon.a0506fc3c6b36e5783e71ab63da9841e.35
                0x00000000001356e4       0x10 ./gen/../tecsrust_uart_led_sample/target/armv7a-none-eabi/release/libitron.a(core-d049573bc16596f9.core.5587a85061e7188a-cgu.0.rcgu.o)
 .rodata..Lanon.a0506fc3c6b36e5783e71ab63da9841e.36
                0x00000000001356f4       0x10 ./gen/../tecsrust_uart_led_sample/target/armv7a-none-eabi/release/libitron.a(core-d049573bc16596f9.core.5587a85061e7188a-cgu.0.rcgu.o)
 .rodata..Lanon.a0506fc3c6b36e5783e71ab63da9841e.37
                0x0000000000135704       0x37 ./gen/../tecsrust_uart_led_sample/target/armv7a-none-eabi/release/libitron.a(core-d049573bc16596f9.core.5587a85061e7188a-cgu.0.rcgu.o)
 *fill*         0x000000000013573b        0x1 
 .rodata..Lanon.a0506fc3c6b36e5783e71ab63da9841e.38
                0x000000000013573c       0x10 ./gen/../tecsrust_uart_led_sample/target/armv7a-none-eabi/release/libitron.a(core-d049573bc16596f9.core.5587a85061e7188a-cgu.0.rcgu.o)
 .rodata..Lanon.a0506fc3c6b36e5783e71ab63da9841e.39
                0x000000000013574c       0x36 ./gen/../tecsrust_uart_led_sample/target/armv7a-none-eabi/release/libitron.a(core-d049573bc16596f9.core.5587a85061e7188a-cgu.0.rcgu.o)
 *fill*         0x0000000000135782        0x2 
 .rodata..Lanon.a0506fc3c6b36e5783e71ab63da9841e.40
                0x0000000000135784       0x10 ./gen/../tecsrust_uart_led_sample/target/armv7a-none-eabi/release/libitron.a(core-d049573bc16596f9.core.5587a85061e7188a-cgu.0.rcgu.o)
 .rodata..Lanon.a0506fc3c6b36e5783e71ab63da9841e.41
                0x0000000000135794       0x10 ./gen/../tecsrust_uart_led_sample/target/armv7a-none-eabi/release/libitron.a(core-d049573bc16596f9.core.5587a85061e7188a-cgu.0.rcgu.o)
 .rodata..Lanon.a0506fc3c6b36e5783e71ab63da9841e.42
                0x00000000001357a4       0x10 ./gen/../tecsrust_uart_led_sample/target/armv7a-none-eabi/release/libitron.a(core-d049573bc16596f9.core.5587a85061e7188a-cgu.0.rcgu.o)
 .rodata..Lanon.a0506fc3c6b36e5783e71ab63da9841e.43
                0x00000000001357b4       0x10 ./gen/../tecsrust_uart_led_sample/target/armv7a-none-eabi/release/libitron.a(core-d049573bc16596f9.core.5587a85061e7188a-cgu.0.rcgu.o)
 .rodata..Lanon.a0506fc3c6b36e5783e71ab63da9841e.44
                0x00000000001357c4       0x10 ./gen/../tecsrust_uart_led_sample/target/armv7a-none-eabi/release/libitron.a(core-d049573bc16596f9.core.5587a85061e7188a-cgu.0.rcgu.o)
 .rodata..Lanon.a0506fc3c6b36e5783e71ab63da9841e.45
                0x00000000001357d4       0x10 ./gen/../tecsrust_uart_led_sample/target/armv7a-none-eabi/release/libitron.a(core-d049573bc16596f9.core.5587a85061e7188a-cgu.0.rcgu.o)
 .rodata..Lanon.a0506fc3c6b36e5783e71ab63da9841e.46
                0x00000000001357e4       0x10 ./gen/../tecsrust_uart_led_sample/target/armv7a-none-eabi/release/libitron.a(core-d049573bc16596f9.core.5587a85061e7188a-cgu.0.rcgu.o)
 .rodata..Lanon.a0506fc3c6b36e5783e71ab63da9841e.47
                0x00000000001357f4       0x10 ./gen/../tecsrust_uart_led_sample/target/armv7a-none-eabi/release/libitron.a(core-d049573bc16596f9.core.5587a85061e7188a-cgu.0.rcgu.o)
 .rodata..Lanon.a0506fc3c6b36e5783e71ab63da9841e.48
                0x0000000000135804       0x10 ./gen/../tecsrust_uart_led_sample/target/armv7a-none-eabi/release/libitron.a(core-d049573bc16596f9.core.5587a85061e7188a-cgu.0.rcgu.o)
 .rodata..Lanon.a0506fc3c6b36e5783e71ab63da9841e.49
                0x0000000000135814       0x10 ./gen/../tecsrust_uart_led_sample/target/armv7a-none-eabi/release/libitron.a(core-d049573bc16596f9.core.5587a85061e7188a-cgu.0.rcgu.o)
 .rodata..Lanon.a0506fc3c6b36e5783e71ab63da9841e.50
                0x0000000000135824       0x10 ./gen/../tecsrust_uart_led_sample/target/armv7a-none-eabi/release/libitron.a(core-d049573bc16596f9.core.5587a85061e7188a-cgu.0.rcgu.o)
 *fill*         0x0000000000135834        0x4 
 .rodata._ZN4core3num7flt2dec8strategy5grisu12CACHED_POW1017h9e7e1a5908bb56b3E
                0x0000000000135838      0x510 ./gen/../tecsrust_uart_led_sample/target/armv7a-none-eabi/release/libitron.a(core-d049573bc16596f9.core.5587a85061e7188a-cgu.0.rcgu.o)
                0x0000000000135838                core::num::flt2dec::strategy::grisu::CACHED_POW10
 .rodata..Lanon.a0506fc3c6b36e5783e71ab63da9841e.51
                0x0000000000135d48       0x2e ./gen/../tecsrust_uart_led_sample/target/armv7a-none-eabi/release/libitron.a(core-d049573bc16596f9.core.5587a85061e7188a-cgu.0.rcgu.o)
 *fill*         0x0000000000135d76        0x2 
 .rodata..Lanon.a0506fc3c6b36e5783e71ab63da9841e.52
                0x0000000000135d78       0x10 ./gen/../tecsrust_uart_led_sample/target/armv7a-none-eabi/release/libitron.a(core-d049573bc16596f9.core.5587a85061e7188a-cgu.0.rcgu.o)
 .rodata..Lanon.a0506fc3c6b36e5783e71ab63da9841e.53
                0x0000000000135d88       0x10 ./gen/../tecsrust_uart_led_sample/target/armv7a-none-eabi/release/libitron.a(core-d049573bc16596f9.core.5587a85061e7188a-cgu.0.rcgu.o)
 .rodata..Lanon.a0506fc3c6b36e5783e71ab63da9841e.54
                0x0000000000135d98       0x10 ./gen/../tecsrust_uart_led_sample/target/armv7a-none-eabi/release/libitron.a(core-d049573bc16596f9.core.5587a85061e7188a-cgu.0.rcgu.o)
 .rodata..Lanon.a0506fc3c6b36e5783e71ab63da9841e.55
                0x0000000000135da8       0x10 ./gen/../tecsrust_uart_led_sample/target/armv7a-none-eabi/release/libitron.a(core-d049573bc16596f9.core.5587a85061e7188a-cgu.0.rcgu.o)
 .rodata..Lanon.a0506fc3c6b36e5783e71ab63da9841e.56
                0x0000000000135db8       0x10 ./gen/../tecsrust_uart_led_sample/target/armv7a-none-eabi/release/libitron.a(core-d049573bc16596f9.core.5587a85061e7188a-cgu.0.rcgu.o)
 .rodata..Lanon.a0506fc3c6b36e5783e71ab63da9841e.57
                0x0000000000135dc8       0x2d ./gen/../tecsrust_uart_led_sample/target/armv7a-none-eabi/release/libitron.a(core-d049573bc16596f9.core.5587a85061e7188a-cgu.0.rcgu.o)
 *fill*         0x0000000000135df5        0x3 
 .rodata..Lanon.a0506fc3c6b36e5783e71ab63da9841e.58
                0x0000000000135df8       0x10 ./gen/../tecsrust_uart_led_sample/target/armv7a-none-eabi/release/libitron.a(core-d049573bc16596f9.core.5587a85061e7188a-cgu.0.rcgu.o)
 .rodata..Lanon.a0506fc3c6b36e5783e71ab63da9841e.59
                0x0000000000135e08       0x10 ./gen/../tecsrust_uart_led_sample/target/armv7a-none-eabi/release/libitron.a(core-d049573bc16596f9.core.5587a85061e7188a-cgu.0.rcgu.o)
 .rodata..Lanon.a0506fc3c6b36e5783e71ab63da9841e.60
                0x0000000000135e18       0x10 ./gen/../tecsrust_uart_led_sample/target/armv7a-none-eabi/release/libitron.a(core-d049573bc16596f9.core.5587a85061e7188a-cgu.0.rcgu.o)
 .rodata..Lanon.a0506fc3c6b36e5783e71ab63da9841e.61
                0x0000000000135e28       0x10 ./gen/../tecsrust_uart_led_sample/target/armv7a-none-eabi/release/libitron.a(core-d049573bc16596f9.core.5587a85061e7188a-cgu.0.rcgu.o)
 .rodata..Lanon.a0506fc3c6b36e5783e71ab63da9841e.62
                0x0000000000135e38       0x10 ./gen/../tecsrust_uart_led_sample/target/armv7a-none-eabi/release/libitron.a(core-d049573bc16596f9.core.5587a85061e7188a-cgu.0.rcgu.o)
 .rodata..Lanon.a0506fc3c6b36e5783e71ab63da9841e.63
                0x0000000000135e48       0x10 ./gen/../tecsrust_uart_led_sample/target/armv7a-none-eabi/release/libitron.a(core-d049573bc16596f9.core.5587a85061e7188a-cgu.0.rcgu.o)
 .rodata..Lanon.a0506fc3c6b36e5783e71ab63da9841e.64
                0x0000000000135e58       0x21 ./gen/../tecsrust_uart_led_sample/target/armv7a-none-eabi/release/libitron.a(core-d049573bc16596f9.core.5587a85061e7188a-cgu.0.rcgu.o)
 *fill*         0x0000000000135e79        0x3 
 .rodata..Lanon.a0506fc3c6b36e5783e71ab63da9841e.65
                0x0000000000135e7c       0x10 ./gen/../tecsrust_uart_led_sample/target/armv7a-none-eabi/release/libitron.a(core-d049573bc16596f9.core.5587a85061e7188a-cgu.0.rcgu.o)
 .rodata..Lanon.a0506fc3c6b36e5783e71ab63da9841e.66
                0x0000000000135e8c       0x24 ./gen/../tecsrust_uart_led_sample/target/armv7a-none-eabi/release/libitron.a(core-d049573bc16596f9.core.5587a85061e7188a-cgu.0.rcgu.o)
 .rodata..Lanon.a0506fc3c6b36e5783e71ab63da9841e.67
                0x0000000000135eb0       0x10 ./gen/../tecsrust_uart_led_sample/target/armv7a-none-eabi/release/libitron.a(core-d049573bc16596f9.core.5587a85061e7188a-cgu.0.rcgu.o)
 .rodata..Lanon.a0506fc3c6b36e5783e71ab63da9841e.68
                0x0000000000135ec0       0x10 ./gen/../tecsrust_uart_led_sample/target/armv7a-none-eabi/release/libitron.a(core-d049573bc16596f9.core.5587a85061e7188a-cgu.0.rcgu.o)
 .rodata..Lanon.a0506fc3c6b36e5783e71ab63da9841e.69
                0x0000000000135ed0       0x28 ./gen/../tecsrust_uart_led_sample/target/armv7a-none-eabi/release/libitron.a(core-d049573bc16596f9.core.5587a85061e7188a-cgu.0.rcgu.o)
 .rodata..Lanon.a0506fc3c6b36e5783e71ab63da9841e.70
                0x0000000000135ef8       0x10 ./gen/../tecsrust_uart_led_sample/target/armv7a-none-eabi/release/libitron.a(core-d049573bc16596f9.core.5587a85061e7188a-cgu.0.rcgu.o)
 .rodata..Lanon.a0506fc3c6b36e5783e71ab63da9841e.71
                0x0000000000135f08       0x10 ./gen/../tecsrust_uart_led_sample/target/armv7a-none-eabi/release/libitron.a(core-d049573bc16596f9.core.5587a85061e7188a-cgu.0.rcgu.o)
 .rodata..Lanon.a0506fc3c6b36e5783e71ab63da9841e.72
                0x0000000000135f18       0x10 ./gen/../tecsrust_uart_led_sample/target/armv7a-none-eabi/release/libitron.a(core-d049573bc16596f9.core.5587a85061e7188a-cgu.0.rcgu.o)
 .rodata..Lanon.a0506fc3c6b36e5783e71ab63da9841e.73
                0x0000000000135f28       0x10 ./gen/../tecsrust_uart_led_sample/target/armv7a-none-eabi/release/libitron.a(core-d049573bc16596f9.core.5587a85061e7188a-cgu.0.rcgu.o)
 .rodata..Lanon.a0506fc3c6b36e5783e71ab63da9841e.74
                0x0000000000135f38       0x10 ./gen/../tecsrust_uart_led_sample/target/armv7a-none-eabi/release/libitron.a(core-d049573bc16596f9.core.5587a85061e7188a-cgu.0.rcgu.o)
 .rodata..Lanon.a0506fc3c6b36e5783e71ab63da9841e.75
                0x0000000000135f48       0x10 ./gen/../tecsrust_uart_led_sample/target/armv7a-none-eabi/release/libitron.a(core-d049573bc16596f9.core.5587a85061e7188a-cgu.0.rcgu.o)
 .rodata..Lanon.a0506fc3c6b36e5783e71ab63da9841e.76
                0x0000000000135f58       0x23 ./gen/../tecsrust_uart_led_sample/target/armv7a-none-eabi/release/libitron.a(core-d049573bc16596f9.core.5587a85061e7188a-cgu.0.rcgu.o)
 *fill*         0x0000000000135f7b        0x1 
 .rodata..Lanon.a0506fc3c6b36e5783e71ab63da9841e.77
                0x0000000000135f7c       0x10 ./gen/../tecsrust_uart_led_sample/target/armv7a-none-eabi/release/libitron.a(core-d049573bc16596f9.core.5587a85061e7188a-cgu.0.rcgu.o)
 .rodata..Lanon.a0506fc3c6b36e5783e71ab63da9841e.78
                0x0000000000135f8c       0x1f ./gen/../tecsrust_uart_led_sample/target/armv7a-none-eabi/release/libitron.a(core-d049573bc16596f9.core.5587a85061e7188a-cgu.0.rcgu.o)
 *fill*         0x0000000000135fab        0x1 
 .rodata..Lanon.a0506fc3c6b36e5783e71ab63da9841e.79
                0x0000000000135fac       0x10 ./gen/../tecsrust_uart_led_sample/target/armv7a-none-eabi/release/libitron.a(core-d049573bc16596f9.core.5587a85061e7188a-cgu.0.rcgu.o)
 .rodata..Lanon.a0506fc3c6b36e5783e71ab63da9841e.80
                0x0000000000135fbc       0x22 ./gen/../tecsrust_uart_led_sample/target/armv7a-none-eabi/release/libitron.a(core-d049573bc16596f9.core.5587a85061e7188a-cgu.0.rcgu.o)
 *fill*         0x0000000000135fde        0x2 
 .rodata..Lanon.a0506fc3c6b36e5783e71ab63da9841e.81
                0x0000000000135fe0       0x10 ./gen/../tecsrust_uart_led_sample/target/armv7a-none-eabi/release/libitron.a(core-d049573bc16596f9.core.5587a85061e7188a-cgu.0.rcgu.o)
 .rodata..Lanon.a0506fc3c6b36e5783e71ab63da9841e.82
                0x0000000000135ff0        0x1 ./gen/../tecsrust_uart_led_sample/target/armv7a-none-eabi/release/libitron.a(core-d049573bc16596f9.core.5587a85061e7188a-cgu.0.rcgu.o)
 .rodata..Lanon.a0506fc3c6b36e5783e71ab63da9841e.83
                0x0000000000135ff1        0x2 ./gen/../tecsrust_uart_led_sample/target/armv7a-none-eabi/release/libitron.a(core-d049573bc16596f9.core.5587a85061e7188a-cgu.0.rcgu.o)
 *fill*         0x0000000000135ff3        0x1 
 .rodata..Lanon.a0506fc3c6b36e5783e71ab63da9841e.84
                0x0000000000135ff4       0x10 ./gen/../tecsrust_uart_led_sample/target/armv7a-none-eabi/release/libitron.a(core-d049573bc16596f9.core.5587a85061e7188a-cgu.0.rcgu.o)
 .rodata..Lanon.a0506fc3c6b36e5783e71ab63da9841e.85
                0x0000000000136004       0x10 ./gen/../tecsrust_uart_led_sample/target/armv7a-none-eabi/release/libitron.a(core-d049573bc16596f9.core.5587a85061e7188a-cgu.0.rcgu.o)
 .rodata..Lanon.a0506fc3c6b36e5783e71ab63da9841e.86
                0x0000000000136014       0x22 ./gen/../tecsrust_uart_led_sample/target/armv7a-none-eabi/release/libitron.a(core-d049573bc16596f9.core.5587a85061e7188a-cgu.0.rcgu.o)
 *fill*         0x0000000000136036        0x2 
 .rodata..Lanon.a0506fc3c6b36e5783e71ab63da9841e.87
                0x0000000000136038       0x10 ./gen/../tecsrust_uart_led_sample/target/armv7a-none-eabi/release/libitron.a(core-d049573bc16596f9.core.5587a85061e7188a-cgu.0.rcgu.o)
 .rodata..Lanon.a0506fc3c6b36e5783e71ab63da9841e.88
                0x0000000000136048        0x1 ./gen/../tecsrust_uart_led_sample/target/armv7a-none-eabi/release/libitron.a(core-d049573bc16596f9.core.5587a85061e7188a-cgu.0.rcgu.o)
 .rodata..Lanon.a0506fc3c6b36e5783e71ab63da9841e.89
                0x0000000000136049        0x1 ./gen/../tecsrust_uart_led_sample/target/armv7a-none-eabi/release/libitron.a(core-d049573bc16596f9.core.5587a85061e7188a-cgu.0.rcgu.o)
 .rodata..Lanon.a0506fc3c6b36e5783e71ab63da9841e.90
                0x000000000013604a        0x2 ./gen/../tecsrust_uart_led_sample/target/armv7a-none-eabi/release/libitron.a(core-d049573bc16596f9.core.5587a85061e7188a-cgu.0.rcgu.o)
 .rodata..Lanon.a0506fc3c6b36e5783e71ab63da9841e.91
                0x000000000013604c        0x2 ./gen/../tecsrust_uart_led_sample/target/armv7a-none-eabi/release/libitron.a(core-d049573bc16596f9.core.5587a85061e7188a-cgu.0.rcgu.o)
 .rodata..Lanon.a0506fc3c6b36e5783e71ab63da9841e.92
                0x000000000013604e        0x1 ./gen/../tecsrust_uart_led_sample/target/armv7a-none-eabi/release/libitron.a(core-d049573bc16596f9.core.5587a85061e7188a-cgu.0.rcgu.o)
 .rodata..Lanon.a0506fc3c6b36e5783e71ab63da9841e.93
                0x000000000013604f        0x1 ./gen/../tecsrust_uart_led_sample/target/armv7a-none-eabi/release/libitron.a(core-d049573bc16596f9.core.5587a85061e7188a-cgu.0.rcgu.o)
 .rodata..Lanon.a0506fc3c6b36e5783e71ab63da9841e.94
                0x0000000000136050        0x3 ./gen/../tecsrust_uart_led_sample/target/armv7a-none-eabi/release/libitron.a(core-d049573bc16596f9.core.5587a85061e7188a-cgu.0.rcgu.o)
 .rodata..Lanon.a0506fc3c6b36e5783e71ab63da9841e.95
                0x0000000000136053        0x3 ./gen/../tecsrust_uart_led_sample/target/armv7a-none-eabi/release/libitron.a(core-d049573bc16596f9.core.5587a85061e7188a-cgu.0.rcgu.o)
 .rodata..Lanon.a0506fc3c6b36e5783e71ab63da9841e.96
                0x0000000000136056        0x1 ./gen/../tecsrust_uart_led_sample/target/armv7a-none-eabi/release/libitron.a(core-d049573bc16596f9.core.5587a85061e7188a-cgu.0.rcgu.o)
 .rodata..Lanon.a0506fc3c6b36e5783e71ab63da9841e.97
                0x0000000000136057        0x3 ./gen/../tecsrust_uart_led_sample/target/armv7a-none-eabi/release/libitron.a(core-d049573bc16596f9.core.5587a85061e7188a-cgu.0.rcgu.o)
 .rodata..Lanon.a0506fc3c6b36e5783e71ab63da9841e.98
                0x000000000013605a        0x3 ./gen/../tecsrust_uart_led_sample/target/armv7a-none-eabi/release/libitron.a(core-d049573bc16596f9.core.5587a85061e7188a-cgu.0.rcgu.o)
 .rodata..Lanon.a0506fc3c6b36e5783e71ab63da9841e.99
                0x000000000013605d       0x1d ./gen/../tecsrust_uart_led_sample/target/armv7a-none-eabi/release/libitron.a(core-d049573bc16596f9.core.5587a85061e7188a-cgu.0.rcgu.o)
 *fill*         0x000000000013607a        0x2 
 .rodata..Lanon.a0506fc3c6b36e5783e71ab63da9841e.100
                0x000000000013607c       0x10 ./gen/../tecsrust_uart_led_sample/target/armv7a-none-eabi/release/libitron.a(core-d049573bc16596f9.core.5587a85061e7188a-cgu.0.rcgu.o)
 .rodata..Lanon.a0506fc3c6b36e5783e71ab63da9841e.101
                0x000000000013608c        0x2 ./gen/../tecsrust_uart_led_sample/target/armv7a-none-eabi/release/libitron.a(core-d049573bc16596f9.core.5587a85061e7188a-cgu.0.rcgu.o)
 .rodata..Lanon.a0506fc3c6b36e5783e71ab63da9841e.102
                0x000000000013608e        0x2 ./gen/../tecsrust_uart_led_sample/target/armv7a-none-eabi/release/libitron.a(core-d049573bc16596f9.core.5587a85061e7188a-cgu.0.rcgu.o)
 .rodata..Lanon.a0506fc3c6b36e5783e71ab63da9841e.103
                0x0000000000136090       0x3d ./gen/../tecsrust_uart_led_sample/target/armv7a-none-eabi/release/libitron.a(core-d049573bc16596f9.core.5587a85061e7188a-cgu.0.rcgu.o)
 *fill*         0x00000000001360cd        0x3 
 .rodata..Lanon.a0506fc3c6b36e5783e71ab63da9841e.104
                0x00000000001360d0       0x10 ./gen/../tecsrust_uart_led_sample/target/armv7a-none-eabi/release/libitron.a(core-d049573bc16596f9.core.5587a85061e7188a-cgu.0.rcgu.o)
 .rodata..Lanon.a0506fc3c6b36e5783e71ab63da9841e.105
                0x00000000001360e0       0x10 ./gen/../tecsrust_uart_led_sample/target/armv7a-none-eabi/release/libitron.a(core-d049573bc16596f9.core.5587a85061e7188a-cgu.0.rcgu.o)
 .rodata..Lanon.a0506fc3c6b36e5783e71ab63da9841e.106
                0x00000000001360f0       0x25 ./gen/../tecsrust_uart_led_sample/target/armv7a-none-eabi/release/libitron.a(core-d049573bc16596f9.core.5587a85061e7188a-cgu.0.rcgu.o)
 *fill*         0x0000000000136115        0x3 
 .rodata..Lanon.a0506fc3c6b36e5783e71ab63da9841e.107
                0x0000000000136118       0x10 ./gen/../tecsrust_uart_led_sample/target/armv7a-none-eabi/release/libitron.a(core-d049573bc16596f9.core.5587a85061e7188a-cgu.0.rcgu.o)
 .rodata..Lanon.a0506fc3c6b36e5783e71ab63da9841e.108
                0x0000000000136128       0x1b ./gen/../tecsrust_uart_led_sample/target/armv7a-none-eabi/release/libitron.a(core-d049573bc16596f9.core.5587a85061e7188a-cgu.0.rcgu.o)
 *fill*         0x0000000000136143        0x1 
 .rodata..Lanon.a0506fc3c6b36e5783e71ab63da9841e.109
                0x0000000000136144       0x10 ./gen/../tecsrust_uart_led_sample/target/armv7a-none-eabi/release/libitron.a(core-d049573bc16596f9.core.5587a85061e7188a-cgu.0.rcgu.o)
 .rodata..Lanon.a0506fc3c6b36e5783e71ab63da9841e.110
                0x0000000000136154       0x10 ./gen/../tecsrust_uart_led_sample/target/armv7a-none-eabi/release/libitron.a(core-d049573bc16596f9.core.5587a85061e7188a-cgu.0.rcgu.o)
 .rodata..Lanon.a0506fc3c6b36e5783e71ab63da9841e.111
                0x0000000000136164       0x10 ./gen/../tecsrust_uart_led_sample/target/armv7a-none-eabi/release/libitron.a(core-d049573bc16596f9.core.5587a85061e7188a-cgu.0.rcgu.o)
 .rodata..Lanon.a0506fc3c6b36e5783e71ab63da9841e.112
                0x0000000000136174       0x2f ./gen/../tecsrust_uart_led_sample/target/armv7a-none-eabi/release/libitron.a(core-d049573bc16596f9.core.5587a85061e7188a-cgu.0.rcgu.o)
 .rodata..Lanon.a0506fc3c6b36e5783e71ab63da9841e.113
                0x00000000001361a3       0x26 ./gen/../tecsrust_uart_led_sample/target/armv7a-none-eabi/release/libitron.a(core-d049573bc16596f9.core.5587a85061e7188a-cgu.0.rcgu.o)
 .rodata..Lanon.a0506fc3c6b36e5783e71ab63da9841e.114
                0x00000000001361c9       0x1d ./gen/../tecsrust_uart_led_sample/target/armv7a-none-eabi/release/libitron.a(core-d049573bc16596f9.core.5587a85061e7188a-cgu.0.rcgu.o)
 .rodata..Lanon.a0506fc3c6b36e5783e71ab63da9841e.115
                0x00000000001361e6       0x26 ./gen/../tecsrust_uart_led_sample/target/armv7a-none-eabi/release/libitron.a(core-d049573bc16596f9.core.5587a85061e7188a-cgu.0.rcgu.o)
 .rodata..Lanon.a0506fc3c6b36e5783e71ab63da9841e.116
                0x000000000013620c       0x26 ./gen/../tecsrust_uart_led_sample/target/armv7a-none-eabi/release/libitron.a(core-d049573bc16596f9.core.5587a85061e7188a-cgu.0.rcgu.o)
 .rodata..Lanon.a0506fc3c6b36e5783e71ab63da9841e.117
                0x0000000000136232       0x26 ./gen/../tecsrust_uart_led_sample/target/armv7a-none-eabi/release/libitron.a(core-d049573bc16596f9.core.5587a85061e7188a-cgu.0.rcgu.o)
 .rodata..Lanon.a0506fc3c6b36e5783e71ab63da9841e.118
                0x0000000000136258       0x2e ./gen/../tecsrust_uart_led_sample/target/armv7a-none-eabi/release/libitron.a(core-d049573bc16596f9.core.5587a85061e7188a-cgu.0.rcgu.o)
 *fill*         0x0000000000136286        0x2 
 .rodata..Lanon.a0506fc3c6b36e5783e71ab63da9841e.119
                0x0000000000136288        0x8 ./gen/../tecsrust_uart_led_sample/target/armv7a-none-eabi/release/libitron.a(core-d049573bc16596f9.core.5587a85061e7188a-cgu.0.rcgu.o)
 .rodata..Lanon.a0506fc3c6b36e5783e71ab63da9841e.120
                0x0000000000136290       0x32 ./gen/../tecsrust_uart_led_sample/target/armv7a-none-eabi/release/libitron.a(core-d049573bc16596f9.core.5587a85061e7188a-cgu.0.rcgu.o)
 *fill*         0x00000000001362c2        0x2 
 .rodata..Lanon.a0506fc3c6b36e5783e71ab63da9841e.121
                0x00000000001362c4        0x8 ./gen/../tecsrust_uart_led_sample/target/armv7a-none-eabi/release/libitron.a(core-d049573bc16596f9.core.5587a85061e7188a-cgu.0.rcgu.o)
 .rodata..Lanon.a0506fc3c6b36e5783e71ab63da9841e.122
                0x00000000001362cc       0x1c ./gen/../tecsrust_uart_led_sample/target/armv7a-none-eabi/release/libitron.a(core-d049573bc16596f9.core.5587a85061e7188a-cgu.0.rcgu.o)
 .rodata..Lanon.a0506fc3c6b36e5783e71ab63da9841e.123
                0x00000000001362e8        0x8 ./gen/../tecsrust_uart_led_sample/target/armv7a-none-eabi/release/libitron.a(core-d049573bc16596f9.core.5587a85061e7188a-cgu.0.rcgu.o)
 .rodata..Lanon.a0506fc3c6b36e5783e71ab63da9841e.124
                0x00000000001362f0       0x21 ./gen/../tecsrust_uart_led_sample/target/armv7a-none-eabi/release/libitron.a(core-d049573bc16596f9.core.5587a85061e7188a-cgu.0.rcgu.o)
 *fill*         0x0000000000136311        0x3 
 .rodata..Lanon.a0506fc3c6b36e5783e71ab63da9841e.125
                0x0000000000136314        0x8 ./gen/../tecsrust_uart_led_sample/target/armv7a-none-eabi/release/libitron.a(core-d049573bc16596f9.core.5587a85061e7188a-cgu.0.rcgu.o)
 .rodata..Lanon.a0506fc3c6b36e5783e71ab63da9841e.126
                0x000000000013631c       0x21 ./gen/../tecsrust_uart_led_sample/target/armv7a-none-eabi/release/libitron.a(core-d049573bc16596f9.core.5587a85061e7188a-cgu.0.rcgu.o)
 *fill*         0x000000000013633d        0x3 
 .rodata..Lanon.a0506fc3c6b36e5783e71ab63da9841e.127
                0x0000000000136340        0x8 ./gen/../tecsrust_uart_led_sample/target/armv7a-none-eabi/release/libitron.a(core-d049573bc16596f9.core.5587a85061e7188a-cgu.0.rcgu.o)
 .rodata..Lanon.a0506fc3c6b36e5783e71ab63da9841e.128
                0x0000000000136348       0x1f ./gen/../tecsrust_uart_led_sample/target/armv7a-none-eabi/release/libitron.a(core-d049573bc16596f9.core.5587a85061e7188a-cgu.0.rcgu.o)
 *fill*         0x0000000000136367        0x1 
 .rodata..Lanon.a0506fc3c6b36e5783e71ab63da9841e.129
                0x0000000000136368        0x8 ./gen/../tecsrust_uart_led_sample/target/armv7a-none-eabi/release/libitron.a(core-d049573bc16596f9.core.5587a85061e7188a-cgu.0.rcgu.o)
 .rodata..Lanon.a0506fc3c6b36e5783e71ab63da9841e.130
                0x0000000000136370       0x30 ./gen/../tecsrust_uart_led_sample/target/armv7a-none-eabi/release/libitron.a(core-d049573bc16596f9.core.5587a85061e7188a-cgu.0.rcgu.o)
 .rodata..Lanon.a0506fc3c6b36e5783e71ab63da9841e.131
                0x00000000001363a0        0x8 ./gen/../tecsrust_uart_led_sample/target/armv7a-none-eabi/release/libitron.a(core-d049573bc16596f9.core.5587a85061e7188a-cgu.0.rcgu.o)
 .rodata..Lanon.a0506fc3c6b36e5783e71ab63da9841e.132
                0x00000000001363a8       0x1f ./gen/../tecsrust_uart_led_sample/target/armv7a-none-eabi/release/libitron.a(core-d049573bc16596f9.core.5587a85061e7188a-cgu.0.rcgu.o)
 *fill*         0x00000000001363c7        0x1 
 .rodata..Lanon.a0506fc3c6b36e5783e71ab63da9841e.133
                0x00000000001363c8        0x8 ./gen/../tecsrust_uart_led_sample/target/armv7a-none-eabi/release/libitron.a(core-d049573bc16596f9.core.5587a85061e7188a-cgu.0.rcgu.o)
 .rodata..Lanon.a0506fc3c6b36e5783e71ab63da9841e.134
                0x00000000001363d0       0x24 ./gen/../tecsrust_uart_led_sample/target/armv7a-none-eabi/release/libitron.a(core-d049573bc16596f9.core.5587a85061e7188a-cgu.0.rcgu.o)
 .rodata..Lanon.a0506fc3c6b36e5783e71ab63da9841e.135
                0x00000000001363f4        0x8 ./gen/../tecsrust_uart_led_sample/target/armv7a-none-eabi/release/libitron.a(core-d049573bc16596f9.core.5587a85061e7188a-cgu.0.rcgu.o)
 .rodata..Lanon.a0506fc3c6b36e5783e71ab63da9841e.136
                0x00000000001363fc       0x23 ./gen/../tecsrust_uart_led_sample/target/armv7a-none-eabi/release/libitron.a(core-d049573bc16596f9.core.5587a85061e7188a-cgu.0.rcgu.o)
 *fill*         0x000000000013641f        0x1 
 .rodata..Lanon.a0506fc3c6b36e5783e71ab63da9841e.137
                0x0000000000136420        0x8 ./gen/../tecsrust_uart_led_sample/target/armv7a-none-eabi/release/libitron.a(core-d049573bc16596f9.core.5587a85061e7188a-cgu.0.rcgu.o)
 .rodata..Lanon.a0506fc3c6b36e5783e71ab63da9841e.138
                0x0000000000136428        0x7 ./gen/../tecsrust_uart_led_sample/target/armv7a-none-eabi/release/libitron.a(core-d049573bc16596f9.core.5587a85061e7188a-cgu.0.rcgu.o)
 .rodata..Lanon.a0506fc3c6b36e5783e71ab63da9841e.139
                0x000000000013642f        0x1 ./gen/../tecsrust_uart_led_sample/target/armv7a-none-eabi/release/libitron.a(core-d049573bc16596f9.core.5587a85061e7188a-cgu.0.rcgu.o)
 .rodata..Lanon.a0506fc3c6b36e5783e71ab63da9841e.140
                0x0000000000136430       0x18 ./gen/../tecsrust_uart_led_sample/target/armv7a-none-eabi/release/libitron.a(core-d049573bc16596f9.core.5587a85061e7188a-cgu.0.rcgu.o)
 .rodata..Lanon.a0506fc3c6b36e5783e71ab63da9841e.141
                0x0000000000136448        0x7 ./gen/../tecsrust_uart_led_sample/target/armv7a-none-eabi/release/libitron.a(core-d049573bc16596f9.core.5587a85061e7188a-cgu.0.rcgu.o)
 .rodata..Lanon.a0506fc3c6b36e5783e71ab63da9841e.142
                0x000000000013644f        0x2 ./gen/../tecsrust_uart_led_sample/target/armv7a-none-eabi/release/libitron.a(core-d049573bc16596f9.core.5587a85061e7188a-cgu.0.rcgu.o)
 .rodata..Lanon.a0506fc3c6b36e5783e71ab63da9841e.143
                0x0000000000136451        0x3 ./gen/../tecsrust_uart_led_sample/target/armv7a-none-eabi/release/libitron.a(core-d049573bc16596f9.core.5587a85061e7188a-cgu.0.rcgu.o)
 .rodata..Lanon.a0506fc3c6b36e5783e71ab63da9841e.144
                0x0000000000136454        0x7 ./gen/../tecsrust_uart_led_sample/target/armv7a-none-eabi/release/libitron.a(core-d049573bc16596f9.core.5587a85061e7188a-cgu.0.rcgu.o)
 *fill*         0x000000000013645b        0x1 
 .rodata..Lanon.a0506fc3c6b36e5783e71ab63da9841e.145
                0x000000000013645c       0x10 ./gen/../tecsrust_uart_led_sample/target/armv7a-none-eabi/release/libitron.a(core-d049573bc16596f9.core.5587a85061e7188a-cgu.0.rcgu.o)
 .rodata..Lanon.a0506fc3c6b36e5783e71ab63da9841e.146
                0x000000000013646c       0x18 ./gen/../tecsrust_uart_led_sample/target/armv7a-none-eabi/release/libitron.a(core-d049573bc16596f9.core.5587a85061e7188a-cgu.0.rcgu.o)
 .rodata..Lanon.a0506fc3c6b36e5783e71ab63da9841e.148
                0x0000000000136484        0xd ./gen/../tecsrust_uart_led_sample/target/armv7a-none-eabi/release/libitron.a(core-d049573bc16596f9.core.5587a85061e7188a-cgu.0.rcgu.o)
 .rodata..Lanon.a0506fc3c6b36e5783e71ab63da9841e.149
                0x0000000000136491        0x1 ./gen/../tecsrust_uart_led_sample/target/armv7a-none-eabi/release/libitron.a(core-d049573bc16596f9.core.5587a85061e7188a-cgu.0.rcgu.o)
 *fill*         0x0000000000136492        0x2 
 .rodata.cst8   0x0000000000136494       0x20 ./gen/../tecsrust_uart_led_sample/target/armv7a-none-eabi/release/libitron.a(core-d049573bc16596f9.core.5587a85061e7188a-cgu.0.rcgu.o)
                                         0x28 (size before relaxing)
 .rodata..Lanon.a0506fc3c6b36e5783e71ab63da9841e.151
                0x00000000001364b4        0x2 ./gen/../tecsrust_uart_led_sample/target/armv7a-none-eabi/release/libitron.a(core-d049573bc16596f9.core.5587a85061e7188a-cgu.0.rcgu.o)
 .rodata..Lanon.a0506fc3c6b36e5783e71ab63da9841e.152
                0x00000000001364b6        0x3 ./gen/../tecsrust_uart_led_sample/target/armv7a-none-eabi/release/libitron.a(core-d049573bc16596f9.core.5587a85061e7188a-cgu.0.rcgu.o)
 .rodata..Lanon.a0506fc3c6b36e5783e71ab63da9841e.153
                0x00000000001364b9       0x2e ./gen/../tecsrust_uart_led_sample/target/armv7a-none-eabi/release/libitron.a(core-d049573bc16596f9.core.5587a85061e7188a-cgu.0.rcgu.o)
 *fill*         0x00000000001364e7        0x1 
 .rodata..Lanon.a0506fc3c6b36e5783e71ab63da9841e.154
                0x00000000001364e8        0x8 ./gen/../tecsrust_uart_led_sample/target/armv7a-none-eabi/release/libitron.a(core-d049573bc16596f9.core.5587a85061e7188a-cgu.0.rcgu.o)
 .rodata..Lanon.a0506fc3c6b36e5783e71ab63da9841e.155
                0x00000000001364f0       0x1d ./gen/../tecsrust_uart_led_sample/target/armv7a-none-eabi/release/libitron.a(core-d049573bc16596f9.core.5587a85061e7188a-cgu.0.rcgu.o)
 *fill*         0x000000000013650d        0x3 
 .rodata..Lanon.a0506fc3c6b36e5783e71ab63da9841e.156
                0x0000000000136510       0x10 ./gen/../tecsrust_uart_led_sample/target/armv7a-none-eabi/release/libitron.a(core-d049573bc16596f9.core.5587a85061e7188a-cgu.0.rcgu.o)
 .rodata..Lanon.a0506fc3c6b36e5783e71ab63da9841e.157
                0x0000000000136520        0xb ./gen/../tecsrust_uart_led_sample/target/armv7a-none-eabi/release/libitron.a(core-d049573bc16596f9.core.5587a85061e7188a-cgu.0.rcgu.o)
 .rodata..Lanon.a0506fc3c6b36e5783e71ab63da9841e.158
                0x000000000013652b       0x18 ./gen/../tecsrust_uart_led_sample/target/armv7a-none-eabi/release/libitron.a(core-d049573bc16596f9.core.5587a85061e7188a-cgu.0.rcgu.o)
 .rodata..Lanon.a0506fc3c6b36e5783e71ab63da9841e.159
                0x0000000000136543        0xe ./gen/../tecsrust_uart_led_sample/target/armv7a-none-eabi/release/libitron.a(core-d049573bc16596f9.core.5587a85061e7188a-cgu.0.rcgu.o)
 .rodata..Lanon.a0506fc3c6b36e5783e71ab63da9841e.161
                0x0000000000136551       0x12 ./gen/../tecsrust_uart_led_sample/target/armv7a-none-eabi/release/libitron.a(core-d049573bc16596f9.core.5587a85061e7188a-cgu.0.rcgu.o)
 *fill*         0x0000000000136563        0x1 
 .rodata..Lanon.a0506fc3c6b36e5783e71ab63da9841e.162
                0x0000000000136564        0x8 ./gen/../tecsrust_uart_led_sample/target/armv7a-none-eabi/release/libitron.a(core-d049573bc16596f9.core.5587a85061e7188a-cgu.0.rcgu.o)
 .rodata..Lanon.a0506fc3c6b36e5783e71ab63da9841e.163
                0x000000000013656c       0x1a ./gen/../tecsrust_uart_led_sample/target/armv7a-none-eabi/release/libitron.a(core-d049573bc16596f9.core.5587a85061e7188a-cgu.0.rcgu.o)
 *fill*         0x0000000000136586        0x2 
 .rodata..Lanon.a0506fc3c6b36e5783e71ab63da9841e.164
                0x0000000000136588        0x8 ./gen/../tecsrust_uart_led_sample/target/armv7a-none-eabi/release/libitron.a(core-d049573bc16596f9.core.5587a85061e7188a-cgu.0.rcgu.o)
 .rodata..Lanon.a0506fc3c6b36e5783e71ab63da9841e.165
                0x0000000000136590       0x23 ./gen/../tecsrust_uart_led_sample/target/armv7a-none-eabi/release/libitron.a(core-d049573bc16596f9.core.5587a85061e7188a-cgu.0.rcgu.o)
 .rodata..Lanon.a0506fc3c6b36e5783e71ab63da9841e.166
                0x00000000001365b3       0x1d ./gen/../tecsrust_uart_led_sample/target/armv7a-none-eabi/release/libitron.a(core-d049573bc16596f9.core.5587a85061e7188a-cgu.0.rcgu.o)
 .rodata..Lanon.a0506fc3c6b36e5783e71ab63da9841e.167
                0x00000000001365d0       0x29 ./gen/../tecsrust_uart_led_sample/target/armv7a-none-eabi/release/libitron.a(core-d049573bc16596f9.core.5587a85061e7188a-cgu.0.rcgu.o)
 .rodata..Lanon.a0506fc3c6b36e5783e71ab63da9841e.168
                0x00000000001365f9       0x1a ./gen/../tecsrust_uart_led_sample/target/armv7a-none-eabi/release/libitron.a(core-d049573bc16596f9.core.5587a85061e7188a-cgu.0.rcgu.o)
 *fill*         0x0000000000136613        0x1 
 .rodata..Lanon.a0506fc3c6b36e5783e71ab63da9841e.169
                0x0000000000136614        0x8 ./gen/../tecsrust_uart_led_sample/target/armv7a-none-eabi/release/libitron.a(core-d049573bc16596f9.core.5587a85061e7188a-cgu.0.rcgu.o)
 .rodata..Lanon.a0506fc3c6b36e5783e71ab63da9841e.170
                0x000000000013661c       0x47 ./gen/../tecsrust_uart_led_sample/target/armv7a-none-eabi/release/libitron.a(core-d049573bc16596f9.core.5587a85061e7188a-cgu.0.rcgu.o)
 *fill*         0x0000000000136663        0x1 
 .rodata..Lanon.a0506fc3c6b36e5783e71ab63da9841e.171
                0x0000000000136664        0x8 ./gen/../tecsrust_uart_led_sample/target/armv7a-none-eabi/release/libitron.a(core-d049573bc16596f9.core.5587a85061e7188a-cgu.0.rcgu.o)
 .rodata.cst32  0x000000000013666c       0xa0 ./gen/../tecsrust_uart_led_sample/target/armv7a-none-eabi/release/libitron.a(core-d049573bc16596f9.core.5587a85061e7188a-cgu.0.rcgu.o)
 .rodata..Lanon.a0506fc3c6b36e5783e71ab63da9841e.173
                0x000000000013670c       0x10 ./gen/../tecsrust_uart_led_sample/target/armv7a-none-eabi/release/libitron.a(core-d049573bc16596f9.core.5587a85061e7188a-cgu.0.rcgu.o)
 .rodata..Lanon.a0506fc3c6b36e5783e71ab63da9841e.174
                0x000000000013671c       0x1f ./gen/../tecsrust_uart_led_sample/target/armv7a-none-eabi/release/libitron.a(core-d049573bc16596f9.core.5587a85061e7188a-cgu.0.rcgu.o)
 .rodata..Lanon.a0506fc3c6b36e5783e71ab63da9841e.175
                0x000000000013673b       0x24 ./gen/../tecsrust_uart_led_sample/target/armv7a-none-eabi/release/libitron.a(core-d049573bc16596f9.core.5587a85061e7188a-cgu.0.rcgu.o)
 *fill*         0x000000000013675f        0x1 
 .rodata..Lanon.a0506fc3c6b36e5783e71ab63da9841e.176
                0x0000000000136760       0x10 ./gen/../tecsrust_uart_led_sample/target/armv7a-none-eabi/release/libitron.a(core-d049573bc16596f9.core.5587a85061e7188a-cgu.0.rcgu.o)
 .rodata..Lanon.a0506fc3c6b36e5783e71ab63da9841e.177
                0x0000000000136770       0x2b ./gen/../tecsrust_uart_led_sample/target/armv7a-none-eabi/release/libitron.a(core-d049573bc16596f9.core.5587a85061e7188a-cgu.0.rcgu.o)
 .rodata..Lanon.a0506fc3c6b36e5783e71ab63da9841e.178
                0x000000000013679b       0x23 ./gen/../tecsrust_uart_led_sample/target/armv7a-none-eabi/release/libitron.a(core-d049573bc16596f9.core.5587a85061e7188a-cgu.0.rcgu.o)
 .rodata..Lanon.a0506fc3c6b36e5783e71ab63da9841e.179
                0x00000000001367be        0xd ./gen/../tecsrust_uart_led_sample/target/armv7a-none-eabi/release/libitron.a(core-d049573bc16596f9.core.5587a85061e7188a-cgu.0.rcgu.o)
 *fill*         0x00000000001367cb        0x1 
 .rodata..Lanon.a0506fc3c6b36e5783e71ab63da9841e.180
                0x00000000001367cc        0x8 ./gen/../tecsrust_uart_led_sample/target/armv7a-none-eabi/release/libitron.a(core-d049573bc16596f9.core.5587a85061e7188a-cgu.0.rcgu.o)
 .rodata..Lanon.a0506fc3c6b36e5783e71ab63da9841e.181
                0x00000000001367d4        0x9 ./gen/../tecsrust_uart_led_sample/target/armv7a-none-eabi/release/libitron.a(core-d049573bc16596f9.core.5587a85061e7188a-cgu.0.rcgu.o)
 *fill*         0x00000000001367dd        0x3 
 .rodata..Lanon.a0506fc3c6b36e5783e71ab63da9841e.182
                0x00000000001367e0        0x8 ./gen/../tecsrust_uart_led_sample/target/armv7a-none-eabi/release/libitron.a(core-d049573bc16596f9.core.5587a85061e7188a-cgu.0.rcgu.o)
 .rodata..Lanon.a0506fc3c6b36e5783e71ab63da9841e.183
                0x00000000001367e8        0x6 ./gen/../tecsrust_uart_led_sample/target/armv7a-none-eabi/release/libitron.a(core-d049573bc16596f9.core.5587a85061e7188a-cgu.0.rcgu.o)
 .rodata..Lanon.a0506fc3c6b36e5783e71ab63da9841e.184
                0x00000000001367ee        0xb ./gen/../tecsrust_uart_led_sample/target/armv7a-none-eabi/release/libitron.a(core-d049573bc16596f9.core.5587a85061e7188a-cgu.0.rcgu.o)
 *fill*         0x00000000001367f9        0x3 
 .rodata..Lanon.a0506fc3c6b36e5783e71ab63da9841e.185
                0x00000000001367fc       0x10 ./gen/../tecsrust_uart_led_sample/target/armv7a-none-eabi/release/libitron.a(core-d049573bc16596f9.core.5587a85061e7188a-cgu.0.rcgu.o)
 .rodata.cst4   0x000000000013680c       0x18 ./gen/../tecsrust_uart_led_sample/target/armv7a-none-eabi/release/libitron.a(core-d049573bc16596f9.core.5587a85061e7188a-cgu.0.rcgu.o)
 .rodata..Lanon.a0506fc3c6b36e5783e71ab63da9841e.187
                0x0000000000136824        0x6 ./gen/../tecsrust_uart_led_sample/target/armv7a-none-eabi/release/libitron.a(core-d049573bc16596f9.core.5587a85061e7188a-cgu.0.rcgu.o)
 *fill*         0x000000000013682a        0x2 
 .rodata..Lanon.a0506fc3c6b36e5783e71ab63da9841e.189
                0x000000000013682c       0x20 ./gen/../tecsrust_uart_led_sample/target/armv7a-none-eabi/release/libitron.a(core-d049573bc16596f9.core.5587a85061e7188a-cgu.0.rcgu.o)
 .rodata..Lanon.a0506fc3c6b36e5783e71ab63da9841e.190
                0x000000000013684c       0x26 ./gen/../tecsrust_uart_led_sample/target/armv7a-none-eabi/release/libitron.a(core-d049573bc16596f9.core.5587a85061e7188a-cgu.0.rcgu.o)
 *fill*         0x0000000000136872        0x2 
 .rodata..Lanon.a0506fc3c6b36e5783e71ab63da9841e.191
                0x0000000000136874       0x10 ./gen/../tecsrust_uart_led_sample/target/armv7a-none-eabi/release/libitron.a(core-d049573bc16596f9.core.5587a85061e7188a-cgu.0.rcgu.o)
 .rodata..Lanon.a0506fc3c6b36e5783e71ab63da9841e.192
                0x0000000000136884       0x10 ./gen/../tecsrust_uart_led_sample/target/armv7a-none-eabi/release/libitron.a(core-d049573bc16596f9.core.5587a85061e7188a-cgu.0.rcgu.o)
 .rodata..Lanon.a0506fc3c6b36e5783e71ab63da9841e.193
                0x0000000000136894       0x2b ./gen/../tecsrust_uart_led_sample/target/armv7a-none-eabi/release/libitron.a(core-d049573bc16596f9.core.5587a85061e7188a-cgu.0.rcgu.o)
 .rodata..Lanon.a0506fc3c6b36e5783e71ab63da9841e.194
                0x00000000001368bf       0x1f ./gen/../tecsrust_uart_led_sample/target/armv7a-none-eabi/release/libitron.a(core-d049573bc16596f9.core.5587a85061e7188a-cgu.0.rcgu.o)
 *fill*         0x00000000001368de        0x2 
 .rodata..Lanon.a0506fc3c6b36e5783e71ab63da9841e.195
                0x00000000001368e0       0x10 ./gen/../tecsrust_uart_led_sample/target/armv7a-none-eabi/release/libitron.a(core-d049573bc16596f9.core.5587a85061e7188a-cgu.0.rcgu.o)
 .rodata..Lanon.a0506fc3c6b36e5783e71ab63da9841e.196
                0x00000000001368f0       0x10 ./gen/../tecsrust_uart_led_sample/target/armv7a-none-eabi/release/libitron.a(core-d049573bc16596f9.core.5587a85061e7188a-cgu.0.rcgu.o)
 .rodata..Lanon.a0506fc3c6b36e5783e71ab63da9841e.197
                0x0000000000136900        0x7 ./gen/../tecsrust_uart_led_sample/target/armv7a-none-eabi/release/libitron.a(core-d049573bc16596f9.core.5587a85061e7188a-cgu.0.rcgu.o)
 *fill*         0x0000000000136907        0x1 
 .rodata..Lanon.a0506fc3c6b36e5783e71ab63da9841e.198
                0x0000000000136908        0x8 ./gen/../tecsrust_uart_led_sample/target/armv7a-none-eabi/release/libitron.a(core-d049573bc16596f9.core.5587a85061e7188a-cgu.0.rcgu.o)
 .rodata..Lanon.a0506fc3c6b36e5783e71ab63da9841e.199
                0x0000000000136910        0x2 ./gen/../tecsrust_uart_led_sample/target/armv7a-none-eabi/release/libitron.a(core-d049573bc16596f9.core.5587a85061e7188a-cgu.0.rcgu.o)
 *fill*         0x0000000000136912        0x2 
 .rodata..Lanon.a0506fc3c6b36e5783e71ab63da9841e.200
                0x0000000000136914       0x10 ./gen/../tecsrust_uart_led_sample/target/armv7a-none-eabi/release/libitron.a(core-d049573bc16596f9.core.5587a85061e7188a-cgu.0.rcgu.o)
 .rodata..Lanon.a0506fc3c6b36e5783e71ab63da9841e.201
                0x0000000000136924       0x1e ./gen/../tecsrust_uart_led_sample/target/armv7a-none-eabi/release/libitron.a(core-d049573bc16596f9.core.5587a85061e7188a-cgu.0.rcgu.o)
 *fill*         0x0000000000136942        0x2 
 .rodata..Lanon.a0506fc3c6b36e5783e71ab63da9841e.202
                0x0000000000136944       0x10 ./gen/../tecsrust_uart_led_sample/target/armv7a-none-eabi/release/libitron.a(core-d049573bc16596f9.core.5587a85061e7188a-cgu.0.rcgu.o)
 .rodata..Lanon.a0506fc3c6b36e5783e71ab63da9841e.203
                0x0000000000136954       0x10 ./gen/../tecsrust_uart_led_sample/target/armv7a-none-eabi/release/libitron.a(core-d049573bc16596f9.core.5587a85061e7188a-cgu.0.rcgu.o)
 .rodata..Lanon.a0506fc3c6b36e5783e71ab63da9841e.204
                0x0000000000136964       0x10 ./gen/../tecsrust_uart_led_sample/target/armv7a-none-eabi/release/libitron.a(core-d049573bc16596f9.core.5587a85061e7188a-cgu.0.rcgu.o)
 .rodata..Lanon.a0506fc3c6b36e5783e71ab63da9841e.205
                0x0000000000136974       0x19 ./gen/../tecsrust_uart_led_sample/target/armv7a-none-eabi/release/libitron.a(core-d049573bc16596f9.core.5587a85061e7188a-cgu.0.rcgu.o)
 .rodata..Lanon.a0506fc3c6b36e5783e71ab63da9841e.206
                0x000000000013698d       0x1b ./gen/../tecsrust_uart_led_sample/target/armv7a-none-eabi/release/libitron.a(core-d049573bc16596f9.core.5587a85061e7188a-cgu.0.rcgu.o)
 .rodata..Lanon.a0506fc3c6b36e5783e71ab63da9841e.207
                0x00000000001369a8       0x1b ./gen/../tecsrust_uart_led_sample/target/armv7a-none-eabi/release/libitron.a(core-d049573bc16596f9.core.5587a85061e7188a-cgu.0.rcgu.o)
 .rodata..Lanon.a0506fc3c6b36e5783e71ab63da9841e.208
                0x00000000001369c3       0x1d ./gen/../tecsrust_uart_led_sample/target/armv7a-none-eabi/release/libitron.a(core-d049573bc16596f9.core.5587a85061e7188a-cgu.0.rcgu.o)
 .rodata..Lanon.a0506fc3c6b36e5783e71ab63da9841e.209
                0x00000000001369e0       0x22 ./gen/../tecsrust_uart_led_sample/target/armv7a-none-eabi/release/libitron.a(core-d049573bc16596f9.core.5587a85061e7188a-cgu.0.rcgu.o)
 .rodata..Lanon.a0506fc3c6b36e5783e71ab63da9841e.210
                0x0000000000136a02       0x22 ./gen/../tecsrust_uart_led_sample/target/armv7a-none-eabi/release/libitron.a(core-d049573bc16596f9.core.5587a85061e7188a-cgu.0.rcgu.o)
 .rodata..Lanon.a0506fc3c6b36e5783e71ab63da9841e.211
                0x0000000000136a24        0x1 ./gen/../tecsrust_uart_led_sample/target/armv7a-none-eabi/release/libitron.a(core-d049573bc16596f9.core.5587a85061e7188a-cgu.0.rcgu.o)
 *fill*         0x0000000000136a25        0x3 
 .rodata..Lanon.a0506fc3c6b36e5783e71ab63da9841e.212
                0x0000000000136a28       0x10 ./gen/../tecsrust_uart_led_sample/target/armv7a-none-eabi/release/libitron.a(core-d049573bc16596f9.core.5587a85061e7188a-cgu.0.rcgu.o)
 .rodata..Lanon.a0506fc3c6b36e5783e71ab63da9841e.213
                0x0000000000136a38       0x23 ./gen/../tecsrust_uart_led_sample/target/armv7a-none-eabi/release/libitron.a(core-d049573bc16596f9.core.5587a85061e7188a-cgu.0.rcgu.o)
 *fill*         0x0000000000136a5b        0x1 
 .rodata..Lanon.a0506fc3c6b36e5783e71ab63da9841e.214
                0x0000000000136a5c       0x10 ./gen/../tecsrust_uart_led_sample/target/armv7a-none-eabi/release/libitron.a(core-d049573bc16596f9.core.5587a85061e7188a-cgu.0.rcgu.o)
 .rodata..Lanon.a0506fc3c6b36e5783e71ab63da9841e.215
                0x0000000000136a6c        0x1 ./gen/../tecsrust_uart_led_sample/target/armv7a-none-eabi/release/libitron.a(core-d049573bc16596f9.core.5587a85061e7188a-cgu.0.rcgu.o)
 .rodata..Lanon.a0506fc3c6b36e5783e71ab63da9841e.216
                0x0000000000136a6d        0x2 ./gen/../tecsrust_uart_led_sample/target/armv7a-none-eabi/release/libitron.a(core-d049573bc16596f9.core.5587a85061e7188a-cgu.0.rcgu.o)
 *fill*         0x0000000000136a6f        0x1 
 .rodata..Lanon.a0506fc3c6b36e5783e71ab63da9841e.217
                0x0000000000136a70       0x10 ./gen/../tecsrust_uart_led_sample/target/armv7a-none-eabi/release/libitron.a(core-d049573bc16596f9.core.5587a85061e7188a-cgu.0.rcgu.o)
 .rodata..Lanon.a0506fc3c6b36e5783e71ab63da9841e.218
                0x0000000000136a80        0x1 ./gen/../tecsrust_uart_led_sample/target/armv7a-none-eabi/release/libitron.a(core-d049573bc16596f9.core.5587a85061e7188a-cgu.0.rcgu.o)
 *fill*         0x0000000000136a81        0x3 
 .rodata..Lanon.a0506fc3c6b36e5783e71ab63da9841e.219
                0x0000000000136a84       0x18 ./gen/../tecsrust_uart_led_sample/target/armv7a-none-eabi/release/libitron.a(core-d049573bc16596f9.core.5587a85061e7188a-cgu.0.rcgu.o)
 .rodata..Lanon.a0506fc3c6b36e5783e71ab63da9841e.220
                0x0000000000136a9c       0x10 ./gen/../tecsrust_uart_led_sample/target/armv7a-none-eabi/release/libitron.a(core-d049573bc16596f9.core.5587a85061e7188a-cgu.0.rcgu.o)
 .rodata..Lanon.a0506fc3c6b36e5783e71ab63da9841e.221
                0x0000000000136aac       0x2b ./gen/../tecsrust_uart_led_sample/target/armv7a-none-eabi/release/libitron.a(core-d049573bc16596f9.core.5587a85061e7188a-cgu.0.rcgu.o)
 *fill*         0x0000000000136ad7        0x1 
 .rodata..Lanon.a0506fc3c6b36e5783e71ab63da9841e.222
                0x0000000000136ad8       0x18 ./gen/../tecsrust_uart_led_sample/target/armv7a-none-eabi/release/libitron.a(core-d049573bc16596f9.core.5587a85061e7188a-cgu.0.rcgu.o)
 .rodata..Lanon.a0506fc3c6b36e5783e71ab63da9841e.223
                0x0000000000136af0        0xc ./gen/../tecsrust_uart_led_sample/target/armv7a-none-eabi/release/libitron.a(core-d049573bc16596f9.core.5587a85061e7188a-cgu.0.rcgu.o)
 .rodata..Lanon.a0506fc3c6b36e5783e71ab63da9841e.224
                0x0000000000136afc        0x2 ./gen/../tecsrust_uart_led_sample/target/armv7a-none-eabi/release/libitron.a(core-d049573bc16596f9.core.5587a85061e7188a-cgu.0.rcgu.o)
 .rodata..Lanon.a0506fc3c6b36e5783e71ab63da9841e.225
                0x0000000000136afe       0x1d ./gen/../tecsrust_uart_led_sample/target/armv7a-none-eabi/release/libitron.a(core-d049573bc16596f9.core.5587a85061e7188a-cgu.0.rcgu.o)
 *fill*         0x0000000000136b1b        0x1 
 .rodata..Lanon.a0506fc3c6b36e5783e71ab63da9841e.226
                0x0000000000136b1c       0x10 ./gen/../tecsrust_uart_led_sample/target/armv7a-none-eabi/release/libitron.a(core-d049573bc16596f9.core.5587a85061e7188a-cgu.0.rcgu.o)
 .rodata..Lanon.a0506fc3c6b36e5783e71ab63da9841e.227
                0x0000000000136b2c       0x10 ./gen/../tecsrust_uart_led_sample/target/armv7a-none-eabi/release/libitron.a(core-d049573bc16596f9.core.5587a85061e7188a-cgu.0.rcgu.o)
 .rodata..Lanon.a0506fc3c6b36e5783e71ab63da9841e.228
                0x0000000000136b3c        0xe ./gen/../tecsrust_uart_led_sample/target/armv7a-none-eabi/release/libitron.a(core-d049573bc16596f9.core.5587a85061e7188a-cgu.0.rcgu.o)
 *fill*         0x0000000000136b4a        0x2 
 .rodata..Lanon.a0506fc3c6b36e5783e71ab63da9841e.229
                0x0000000000136b4c        0x8 ./gen/../tecsrust_uart_led_sample/target/armv7a-none-eabi/release/libitron.a(core-d049573bc16596f9.core.5587a85061e7188a-cgu.0.rcgu.o)
 .rodata..Lanon.a0506fc3c6b36e5783e71ab63da9841e.231
                0x0000000000136b54       0x12 ./gen/../tecsrust_uart_led_sample/target/armv7a-none-eabi/release/libitron.a(core-d049573bc16596f9.core.5587a85061e7188a-cgu.0.rcgu.o)
 *fill*         0x0000000000136b66        0x2 
 .rodata..Lanon.a0506fc3c6b36e5783e71ab63da9841e.232
                0x0000000000136b68       0x10 ./gen/../tecsrust_uart_led_sample/target/armv7a-none-eabi/release/libitron.a(core-d049573bc16596f9.core.5587a85061e7188a-cgu.0.rcgu.o)
 .rodata..Lanon.a0506fc3c6b36e5783e71ab63da9841e.233
                0x0000000000136b78       0x3e ./gen/../tecsrust_uart_led_sample/target/armv7a-none-eabi/release/libitron.a(core-d049573bc16596f9.core.5587a85061e7188a-cgu.0.rcgu.o)
 *fill*         0x0000000000136bb6        0x2 
 .rodata..Lanon.a0506fc3c6b36e5783e71ab63da9841e.235
                0x0000000000136bb8       0x10 ./gen/../tecsrust_uart_led_sample/target/armv7a-none-eabi/release/libitron.a(core-d049573bc16596f9.core.5587a85061e7188a-cgu.0.rcgu.o)
 .rodata..Lanon.a0506fc3c6b36e5783e71ab63da9841e.236
                0x0000000000136bc8       0x30 ./gen/../tecsrust_uart_led_sample/target/armv7a-none-eabi/release/libitron.a(core-d049573bc16596f9.core.5587a85061e7188a-cgu.0.rcgu.o)
 .rodata..Lanon.a0506fc3c6b36e5783e71ab63da9841e.237
                0x0000000000136bf8       0x21 ./gen/../tecsrust_uart_led_sample/target/armv7a-none-eabi/release/libitron.a(core-d049573bc16596f9.core.5587a85061e7188a-cgu.0.rcgu.o)
 *fill*         0x0000000000136c19        0x3 
 .rodata..Lanon.a0506fc3c6b36e5783e71ab63da9841e.238
                0x0000000000136c1c        0x8 ./gen/../tecsrust_uart_led_sample/target/armv7a-none-eabi/release/libitron.a(core-d049573bc16596f9.core.5587a85061e7188a-cgu.0.rcgu.o)
 .rodata..Lanon.a0506fc3c6b36e5783e71ab63da9841e.239
                0x0000000000136c24       0x26 ./gen/../tecsrust_uart_led_sample/target/armv7a-none-eabi/release/libitron.a(core-d049573bc16596f9.core.5587a85061e7188a-cgu.0.rcgu.o)
 .rodata..Lanon.a0506fc3c6b36e5783e71ab63da9841e.240
                0x0000000000136c4a       0x24 ./gen/../tecsrust_uart_led_sample/target/armv7a-none-eabi/release/libitron.a(core-d049573bc16596f9.core.5587a85061e7188a-cgu.0.rcgu.o)
 *fill*         0x0000000000136c6e        0x2 
 .rodata..Lanon.a0506fc3c6b36e5783e71ab63da9841e.241
                0x0000000000136c70       0x10 ./gen/../tecsrust_uart_led_sample/target/armv7a-none-eabi/release/libitron.a(core-d049573bc16596f9.core.5587a85061e7188a-cgu.0.rcgu.o)
 .rodata..Lanon.a0506fc3c6b36e5783e71ab63da9841e.242
                0x0000000000136c80       0x10 ./gen/../tecsrust_uart_led_sample/target/armv7a-none-eabi/release/libitron.a(core-d049573bc16596f9.core.5587a85061e7188a-cgu.0.rcgu.o)
 .rodata..Lanon.a0506fc3c6b36e5783e71ab63da9841e.243
                0x0000000000136c90       0x10 ./gen/../tecsrust_uart_led_sample/target/armv7a-none-eabi/release/libitron.a(core-d049573bc16596f9.core.5587a85061e7188a-cgu.0.rcgu.o)
 .rodata..Lanon.a0506fc3c6b36e5783e71ab63da9841e.244
                0x0000000000136ca0        0x2 ./gen/../tecsrust_uart_led_sample/target/armv7a-none-eabi/release/libitron.a(core-d049573bc16596f9.core.5587a85061e7188a-cgu.0.rcgu.o)
 .rodata..Lanon.a0506fc3c6b36e5783e71ab63da9841e.245
                0x0000000000136ca2        0x2 ./gen/../tecsrust_uart_led_sample/target/armv7a-none-eabi/release/libitron.a(core-d049573bc16596f9.core.5587a85061e7188a-cgu.0.rcgu.o)
 .rodata..Lanon.a0506fc3c6b36e5783e71ab63da9841e.246
                0x0000000000136ca4        0x7 ./gen/../tecsrust_uart_led_sample/target/armv7a-none-eabi/release/libitron.a(core-d049573bc16596f9.core.5587a85061e7188a-cgu.0.rcgu.o)
 .rodata..Lanon.a0506fc3c6b36e5783e71ab63da9841e.248
                0x0000000000136cab       0x17 ./gen/../tecsrust_uart_led_sample/target/armv7a-none-eabi/release/libitron.a(core-d049573bc16596f9.core.5587a85061e7188a-cgu.0.rcgu.o)
 .rodata..Lanon.a0506fc3c6b36e5783e71ab63da9841e.249
                0x0000000000136cc2        0x9 ./gen/../tecsrust_uart_led_sample/target/armv7a-none-eabi/release/libitron.a(core-d049573bc16596f9.core.5587a85061e7188a-cgu.0.rcgu.o)
 *fill*         0x0000000000136ccb        0x1 
 .rodata..Lanon.a0506fc3c6b36e5783e71ab63da9841e.250
                0x0000000000136ccc       0x18 ./gen/../tecsrust_uart_led_sample/target/armv7a-none-eabi/release/libitron.a(core-d049573bc16596f9.core.5587a85061e7188a-cgu.0.rcgu.o)
 .rodata..Lanon.a0506fc3c6b36e5783e71ab63da9841e.252
                0x0000000000136ce4        0x9 ./gen/../tecsrust_uart_led_sample/target/armv7a-none-eabi/release/libitron.a(core-d049573bc16596f9.core.5587a85061e7188a-cgu.0.rcgu.o)
 *fill*         0x0000000000136ced        0x3 
 .rodata..Lanon.a0506fc3c6b36e5783e71ab63da9841e.253
                0x0000000000136cf0       0x20 ./gen/../tecsrust_uart_led_sample/target/armv7a-none-eabi/release/libitron.a(core-d049573bc16596f9.core.5587a85061e7188a-cgu.0.rcgu.o)
 .rodata..Lanon.a0506fc3c6b36e5783e71ab63da9841e.254
                0x0000000000136d10       0x27 ./gen/../tecsrust_uart_led_sample/target/armv7a-none-eabi/release/libitron.a(core-d049573bc16596f9.core.5587a85061e7188a-cgu.0.rcgu.o)
 *fill*         0x0000000000136d37        0x1 
 .rodata..Lanon.a0506fc3c6b36e5783e71ab63da9841e.255
                0x0000000000136d38        0x8 ./gen/../tecsrust_uart_led_sample/target/armv7a-none-eabi/release/libitron.a(core-d049573bc16596f9.core.5587a85061e7188a-cgu.0.rcgu.o)
 .rodata..Lanon.a0506fc3c6b36e5783e71ab63da9841e.256
                0x0000000000136d40        0x2 ./gen/../tecsrust_uart_led_sample/target/armv7a-none-eabi/release/libitron.a(core-d049573bc16596f9.core.5587a85061e7188a-cgu.0.rcgu.o)
 *fill*         0x0000000000136d42        0x2 
 .rodata..Lanon.a0506fc3c6b36e5783e71ab63da9841e.257
                0x0000000000136d44       0x10 ./gen/../tecsrust_uart_led_sample/target/armv7a-none-eabi/release/libitron.a(core-d049573bc16596f9.core.5587a85061e7188a-cgu.0.rcgu.o)
 .rodata..Lanon.a0506fc3c6b36e5783e71ab63da9841e.258
                0x0000000000136d54       0x18 ./gen/../tecsrust_uart_led_sample/target/armv7a-none-eabi/release/libitron.a(core-d049573bc16596f9.core.5587a85061e7188a-cgu.0.rcgu.o)
 .rodata..Lanon.a0506fc3c6b36e5783e71ab63da9841e.260
                0x0000000000136d6c        0x3 ./gen/../tecsrust_uart_led_sample/target/armv7a-none-eabi/release/libitron.a(core-d049573bc16596f9.core.5587a85061e7188a-cgu.0.rcgu.o)
 .rodata..Lanon.a0506fc3c6b36e5783e71ab63da9841e.261
                0x0000000000136d6f        0x2 ./gen/../tecsrust_uart_led_sample/target/armv7a-none-eabi/release/libitron.a(core-d049573bc16596f9.core.5587a85061e7188a-cgu.0.rcgu.o)
 .rodata..Lanon.a0506fc3c6b36e5783e71ab63da9841e.262
                0x0000000000136d71        0x3 ./gen/../tecsrust_uart_led_sample/target/armv7a-none-eabi/release/libitron.a(core-d049573bc16596f9.core.5587a85061e7188a-cgu.0.rcgu.o)
 .rodata..Lanon.a0506fc3c6b36e5783e71ab63da9841e.263
                0x0000000000136d74        0x2 ./gen/../tecsrust_uart_led_sample/target/armv7a-none-eabi/release/libitron.a(core-d049573bc16596f9.core.5587a85061e7188a-cgu.0.rcgu.o)
 .rodata..Lanon.a0506fc3c6b36e5783e71ab63da9841e.264
                0x0000000000136d76        0x7 ./gen/../tecsrust_uart_led_sample/target/armv7a-none-eabi/release/libitron.a(core-d049573bc16596f9.core.5587a85061e7188a-cgu.0.rcgu.o)
 .rodata..Lanon.a0506fc3c6b36e5783e71ab63da9841e.265
                0x0000000000136d7d        0x6 ./gen/../tecsrust_uart_led_sample/target/armv7a-none-eabi/release/libitron.a(core-d049573bc16596f9.core.5587a85061e7188a-cgu.0.rcgu.o)
 .rodata..Lanon.a0506fc3c6b36e5783e71ab63da9841e.266
                0x0000000000136d83        0x3 ./gen/../tecsrust_uart_led_sample/target/armv7a-none-eabi/release/libitron.a(core-d049573bc16596f9.core.5587a85061e7188a-cgu.0.rcgu.o)
 .rodata..Lanon.a0506fc3c6b36e5783e71ab63da9841e.267
                0x0000000000136d86        0x1 ./gen/../tecsrust_uart_led_sample/target/armv7a-none-eabi/release/libitron.a(core-d049573bc16596f9.core.5587a85061e7188a-cgu.0.rcgu.o)
 .rodata..Lanon.a0506fc3c6b36e5783e71ab63da9841e.268
                0x0000000000136d87        0x2 ./gen/../tecsrust_uart_led_sample/target/armv7a-none-eabi/release/libitron.a(core-d049573bc16596f9.core.5587a85061e7188a-cgu.0.rcgu.o)
 .rodata..Lanon.a0506fc3c6b36e5783e71ab63da9841e.269
                0x0000000000136d89        0x1 ./gen/../tecsrust_uart_led_sample/target/armv7a-none-eabi/release/libitron.a(core-d049573bc16596f9.core.5587a85061e7188a-cgu.0.rcgu.o)
 .rodata..Lanon.a0506fc3c6b36e5783e71ab63da9841e.270
                0x0000000000136d8a        0x2 ./gen/../tecsrust_uart_led_sample/target/armv7a-none-eabi/release/libitron.a(core-d049573bc16596f9.core.5587a85061e7188a-cgu.0.rcgu.o)
 .rodata..Lanon.a0506fc3c6b36e5783e71ab63da9841e.272
                0x0000000000136d8c        0x5 ./gen/../tecsrust_uart_led_sample/target/armv7a-none-eabi/release/libitron.a(core-d049573bc16596f9.core.5587a85061e7188a-cgu.0.rcgu.o)
 .rodata..Lanon.a0506fc3c6b36e5783e71ab63da9841e.273
                0x0000000000136d91        0x1 ./gen/../tecsrust_uart_led_sample/target/armv7a-none-eabi/release/libitron.a(core-d049573bc16596f9.core.5587a85061e7188a-cgu.0.rcgu.o)
 .rodata..Lanon.a0506fc3c6b36e5783e71ab63da9841e.274
                0x0000000000136d92        0x1 ./gen/../tecsrust_uart_led_sample/target/armv7a-none-eabi/release/libitron.a(core-d049573bc16596f9.core.5587a85061e7188a-cgu.0.rcgu.o)
 .rodata..Lanon.a0506fc3c6b36e5783e71ab63da9841e.275
                0x0000000000136d93        0x1 ./gen/../tecsrust_uart_led_sample/target/armv7a-none-eabi/release/libitron.a(core-d049573bc16596f9.core.5587a85061e7188a-cgu.0.rcgu.o)
 .rodata..Lanon.a0506fc3c6b36e5783e71ab63da9841e.276
                0x0000000000136d94        0x3 ./gen/../tecsrust_uart_led_sample/target/armv7a-none-eabi/release/libitron.a(core-d049573bc16596f9.core.5587a85061e7188a-cgu.0.rcgu.o)
 .rodata..Lanon.a0506fc3c6b36e5783e71ab63da9841e.277
                0x0000000000136d97        0x5 ./gen/../tecsrust_uart_led_sample/target/armv7a-none-eabi/release/libitron.a(core-d049573bc16596f9.core.5587a85061e7188a-cgu.0.rcgu.o)
 .rodata..Lanon.a0506fc3c6b36e5783e71ab63da9841e.278
                0x0000000000136d9c        0x3 ./gen/../tecsrust_uart_led_sample/target/armv7a-none-eabi/release/libitron.a(core-d049573bc16596f9.core.5587a85061e7188a-cgu.0.rcgu.o)
 .rodata..Lanon.a0506fc3c6b36e5783e71ab63da9841e.279
                0x0000000000136d9f        0x5 ./gen/../tecsrust_uart_led_sample/target/armv7a-none-eabi/release/libitron.a(core-d049573bc16596f9.core.5587a85061e7188a-cgu.0.rcgu.o)
 .rodata..Lanon.a0506fc3c6b36e5783e71ab63da9841e.280
                0x0000000000136da4        0x1 ./gen/../tecsrust_uart_led_sample/target/armv7a-none-eabi/release/libitron.a(core-d049573bc16596f9.core.5587a85061e7188a-cgu.0.rcgu.o)
 .rodata..Lanon.a0506fc3c6b36e5783e71ab63da9841e.281
                0x0000000000136da5       0x46 ./gen/../tecsrust_uart_led_sample/target/armv7a-none-eabi/release/libitron.a(core-d049573bc16596f9.core.5587a85061e7188a-cgu.0.rcgu.o)
 *fill*         0x0000000000136deb        0x1 
 .rodata..Lanon.a0506fc3c6b36e5783e71ab63da9841e.282
                0x0000000000136dec        0x8 ./gen/../tecsrust_uart_led_sample/target/armv7a-none-eabi/release/libitron.a(core-d049573bc16596f9.core.5587a85061e7188a-cgu.0.rcgu.o)
 .rodata..Lanon.a0506fc3c6b36e5783e71ab63da9841e.284
                0x0000000000136df4       0x10 ./gen/../tecsrust_uart_led_sample/target/armv7a-none-eabi/release/libitron.a(core-d049573bc16596f9.core.5587a85061e7188a-cgu.0.rcgu.o)
 .rodata..Lanon.a0506fc3c6b36e5783e71ab63da9841e.285
                0x0000000000136e04       0x2e ./gen/../tecsrust_uart_led_sample/target/armv7a-none-eabi/release/libitron.a(core-d049573bc16596f9.core.5587a85061e7188a-cgu.0.rcgu.o)
 *fill*         0x0000000000136e32        0x2 
 .rodata..Lanon.a0506fc3c6b36e5783e71ab63da9841e.286
                0x0000000000136e34        0x8 ./gen/../tecsrust_uart_led_sample/target/armv7a-none-eabi/release/libitron.a(core-d049573bc16596f9.core.5587a85061e7188a-cgu.0.rcgu.o)
 .rodata..Lanon.a0506fc3c6b36e5783e71ab63da9841e.287
                0x0000000000136e3c       0x10 ./gen/../tecsrust_uart_led_sample/target/armv7a-none-eabi/release/libitron.a(core-d049573bc16596f9.core.5587a85061e7188a-cgu.0.rcgu.o)
 .rodata..Lanon.a0506fc3c6b36e5783e71ab63da9841e.288
                0x0000000000136e4c       0x2e ./gen/../tecsrust_uart_led_sample/target/armv7a-none-eabi/release/libitron.a(core-d049573bc16596f9.core.5587a85061e7188a-cgu.0.rcgu.o)
 *fill*         0x0000000000136e7a        0x2 
 .rodata..Lanon.a0506fc3c6b36e5783e71ab63da9841e.289
                0x0000000000136e7c        0x8 ./gen/../tecsrust_uart_led_sample/target/armv7a-none-eabi/release/libitron.a(core-d049573bc16596f9.core.5587a85061e7188a-cgu.0.rcgu.o)
 .rodata..Lanon.a0506fc3c6b36e5783e71ab63da9841e.290
                0x0000000000136e84       0x10 ./gen/../tecsrust_uart_led_sample/target/armv7a-none-eabi/release/libitron.a(core-d049573bc16596f9.core.5587a85061e7188a-cgu.0.rcgu.o)
 .rodata..Lanon.a0506fc3c6b36e5783e71ab63da9841e.291
                0x0000000000136e94       0x10 ./gen/../tecsrust_uart_led_sample/target/armv7a-none-eabi/release/libitron.a(core-d049573bc16596f9.core.5587a85061e7188a-cgu.0.rcgu.o)
 .rodata..Lanon.a0506fc3c6b36e5783e71ab63da9841e.292
                0x0000000000136ea4       0x1b ./gen/../tecsrust_uart_led_sample/target/armv7a-none-eabi/release/libitron.a(core-d049573bc16596f9.core.5587a85061e7188a-cgu.0.rcgu.o)
 *fill*         0x0000000000136ebf        0x1 
 .rodata..Lanon.a0506fc3c6b36e5783e71ab63da9841e.293
                0x0000000000136ec0       0x10 ./gen/../tecsrust_uart_led_sample/target/armv7a-none-eabi/release/libitron.a(core-d049573bc16596f9.core.5587a85061e7188a-cgu.0.rcgu.o)
 .rodata..Lanon.a0506fc3c6b36e5783e71ab63da9841e.294
                0x0000000000136ed0        0x2 ./gen/../tecsrust_uart_led_sample/target/armv7a-none-eabi/release/libitron.a(core-d049573bc16596f9.core.5587a85061e7188a-cgu.0.rcgu.o)
 .rodata..Lanon.a0506fc3c6b36e5783e71ab63da9841e.295
                0x0000000000136ed2        0x2 ./gen/../tecsrust_uart_led_sample/target/armv7a-none-eabi/release/libitron.a(core-d049573bc16596f9.core.5587a85061e7188a-cgu.0.rcgu.o)
 .rodata..Lanon.a0506fc3c6b36e5783e71ab63da9841e.296
                0x0000000000136ed4        0x2 ./gen/../tecsrust_uart_led_sample/target/armv7a-none-eabi/release/libitron.a(core-d049573bc16596f9.core.5587a85061e7188a-cgu.0.rcgu.o)
 .rodata..Lanon.a0506fc3c6b36e5783e71ab63da9841e.297
                0x0000000000136ed6       0xc8 ./gen/../tecsrust_uart_led_sample/target/armv7a-none-eabi/release/libitron.a(core-d049573bc16596f9.core.5587a85061e7188a-cgu.0.rcgu.o)
 .rodata..Lanon.a0506fc3c6b36e5783e71ab63da9841e.298
                0x0000000000136f9e       0x1c ./gen/../tecsrust_uart_led_sample/target/armv7a-none-eabi/release/libitron.a(core-d049573bc16596f9.core.5587a85061e7188a-cgu.0.rcgu.o)
 *fill*         0x0000000000136fba        0x2 
 .rodata..Lanon.a0506fc3c6b36e5783e71ab63da9841e.299
                0x0000000000136fbc       0x10 ./gen/../tecsrust_uart_led_sample/target/armv7a-none-eabi/release/libitron.a(core-d049573bc16596f9.core.5587a85061e7188a-cgu.0.rcgu.o)
 .rodata..Lanon.a0506fc3c6b36e5783e71ab63da9841e.300
                0x0000000000136fcc       0x18 ./gen/../tecsrust_uart_led_sample/target/armv7a-none-eabi/release/libitron.a(core-d049573bc16596f9.core.5587a85061e7188a-cgu.0.rcgu.o)
 .rodata..Lanon.a0506fc3c6b36e5783e71ab63da9841e.301
                0x0000000000136fe4       0x18 ./gen/../tecsrust_uart_led_sample/target/armv7a-none-eabi/release/libitron.a(core-d049573bc16596f9.core.5587a85061e7188a-cgu.0.rcgu.o)
 .rodata..Lanon.a0506fc3c6b36e5783e71ab63da9841e.302
                0x0000000000136ffc       0x18 ./gen/../tecsrust_uart_led_sample/target/armv7a-none-eabi/release/libitron.a(core-d049573bc16596f9.core.5587a85061e7188a-cgu.0.rcgu.o)
 .rodata..Lanon.a0506fc3c6b36e5783e71ab63da9841e.303
                0x0000000000137014       0x18 ./gen/../tecsrust_uart_led_sample/target/armv7a-none-eabi/release/libitron.a(core-d049573bc16596f9.core.5587a85061e7188a-cgu.0.rcgu.o)
 .rodata..Lanon.a0506fc3c6b36e5783e71ab63da9841e.304
                0x000000000013702c       0x40 ./gen/../tecsrust_uart_led_sample/target/armv7a-none-eabi/release/libitron.a(core-d049573bc16596f9.core.5587a85061e7188a-cgu.0.rcgu.o)
 .rodata..Lanon.a0506fc3c6b36e5783e71ab63da9841e.305
                0x000000000013706c       0x1b ./gen/../tecsrust_uart_led_sample/target/armv7a-none-eabi/release/libitron.a(core-d049573bc16596f9.core.5587a85061e7188a-cgu.0.rcgu.o)
 *fill*         0x0000000000137087        0x1 
 .rodata..Lanon.a0506fc3c6b36e5783e71ab63da9841e.306
                0x0000000000137088       0x10 ./gen/../tecsrust_uart_led_sample/target/armv7a-none-eabi/release/libitron.a(core-d049573bc16596f9.core.5587a85061e7188a-cgu.0.rcgu.o)
 .rodata..Lanon.a0506fc3c6b36e5783e71ab63da9841e.307
                0x0000000000137098       0x10 ./gen/../tecsrust_uart_led_sample/target/armv7a-none-eabi/release/libitron.a(core-d049573bc16596f9.core.5587a85061e7188a-cgu.0.rcgu.o)
 .rodata..Lanon.a0506fc3c6b36e5783e71ab63da9841e.308
                0x00000000001370a8       0x2d ./gen/../tecsrust_uart_led_sample/target/armv7a-none-eabi/release/libitron.a(core-d049573bc16596f9.core.5587a85061e7188a-cgu.0.rcgu.o)
 .rodata..Lanon.a0506fc3c6b36e5783e71ab63da9841e.309
                0x00000000001370d5        0x5 ./gen/../tecsrust_uart_led_sample/target/armv7a-none-eabi/release/libitron.a(core-d049573bc16596f9.core.5587a85061e7188a-cgu.0.rcgu.o)
 *fill*         0x00000000001370da        0x2 
 .rodata..Lanon.a0506fc3c6b36e5783e71ab63da9841e.311
                0x00000000001370dc       0x10 ./gen/../tecsrust_uart_led_sample/target/armv7a-none-eabi/release/libitron.a(core-d049573bc16596f9.core.5587a85061e7188a-cgu.0.rcgu.o)
 .rodata..Lanon.a0506fc3c6b36e5783e71ab63da9841e.312
                0x00000000001370ec       0x10 ./gen/../tecsrust_uart_led_sample/target/armv7a-none-eabi/release/libitron.a(core-d049573bc16596f9.core.5587a85061e7188a-cgu.0.rcgu.o)
 .rodata..Lanon.a0506fc3c6b36e5783e71ab63da9841e.314
                0x00000000001370fc       0x10 ./gen/../tecsrust_uart_led_sample/target/armv7a-none-eabi/release/libitron.a(core-d049573bc16596f9.core.5587a85061e7188a-cgu.0.rcgu.o)
 .rodata..Lanon.a0506fc3c6b36e5783e71ab63da9841e.315
                0x000000000013710c       0x10 ./gen/../tecsrust_uart_led_sample/target/armv7a-none-eabi/release/libitron.a(core-d049573bc16596f9.core.5587a85061e7188a-cgu.0.rcgu.o)
 .rodata..Lanon.a0506fc3c6b36e5783e71ab63da9841e.316
                0x000000000013711c       0x4c ./gen/../tecsrust_uart_led_sample/target/armv7a-none-eabi/release/libitron.a(core-d049573bc16596f9.core.5587a85061e7188a-cgu.0.rcgu.o)
 .rodata..Lanon.a0506fc3c6b36e5783e71ab63da9841e.317
                0x0000000000137168        0x8 ./gen/../tecsrust_uart_led_sample/target/armv7a-none-eabi/release/libitron.a(core-d049573bc16596f9.core.5587a85061e7188a-cgu.0.rcgu.o)
 .rodata..Lanon.a0506fc3c6b36e5783e71ab63da9841e.318
                0x0000000000137170       0x2f ./gen/../tecsrust_uart_led_sample/target/armv7a-none-eabi/release/libitron.a(core-d049573bc16596f9.core.5587a85061e7188a-cgu.0.rcgu.o)
 *fill*         0x000000000013719f        0x1 
 .rodata..Lanon.a0506fc3c6b36e5783e71ab63da9841e.319
                0x00000000001371a0       0x10 ./gen/../tecsrust_uart_led_sample/target/armv7a-none-eabi/release/libitron.a(core-d049573bc16596f9.core.5587a85061e7188a-cgu.0.rcgu.o)
 .rodata..Lanon.a0506fc3c6b36e5783e71ab63da9841e.320
                0x00000000001371b0        0xb ./gen/../tecsrust_uart_led_sample/target/armv7a-none-eabi/release/libitron.a(core-d049573bc16596f9.core.5587a85061e7188a-cgu.0.rcgu.o)
 .rodata..Lanon.a0506fc3c6b36e5783e71ab63da9841e.321
                0x00000000001371bb       0x31 ./gen/../tecsrust_uart_led_sample/target/armv7a-none-eabi/release/libitron.a(core-d049573bc16596f9.core.5587a85061e7188a-cgu.0.rcgu.o)
 .rodata..Lanon.a0506fc3c6b36e5783e71ab63da9841e.322
                0x00000000001371ec        0x8 ./gen/../tecsrust_uart_led_sample/target/armv7a-none-eabi/release/libitron.a(core-d049573bc16596f9.core.5587a85061e7188a-cgu.0.rcgu.o)
 .rodata..Lanon.a0506fc3c6b36e5783e71ab63da9841e.323
                0x00000000001371f4       0x2c ./gen/../tecsrust_uart_led_sample/target/armv7a-none-eabi/release/libitron.a(core-d049573bc16596f9.core.5587a85061e7188a-cgu.0.rcgu.o)
 .rodata..Lanon.a0506fc3c6b36e5783e71ab63da9841e.324
                0x0000000000137220        0x8 ./gen/../tecsrust_uart_led_sample/target/armv7a-none-eabi/release/libitron.a(core-d049573bc16596f9.core.5587a85061e7188a-cgu.0.rcgu.o)
 .rodata..Lanon.a0506fc3c6b36e5783e71ab63da9841e.325
                0x0000000000137228       0x1f ./gen/../tecsrust_uart_led_sample/target/armv7a-none-eabi/release/libitron.a(core-d049573bc16596f9.core.5587a85061e7188a-cgu.0.rcgu.o)
 *fill*         0x0000000000137247        0x1 
 .rodata..Lanon.a0506fc3c6b36e5783e71ab63da9841e.326
                0x0000000000137248       0x10 ./gen/../tecsrust_uart_led_sample/target/armv7a-none-eabi/release/libitron.a(core-d049573bc16596f9.core.5587a85061e7188a-cgu.0.rcgu.o)
 .rodata..Lanon.a0506fc3c6b36e5783e71ab63da9841e.327
                0x0000000000137258       0x10 ./gen/../tecsrust_uart_led_sample/target/armv7a-none-eabi/release/libitron.a(core-d049573bc16596f9.core.5587a85061e7188a-cgu.0.rcgu.o)
 .rodata..Lanon.a0506fc3c6b36e5783e71ab63da9841e.328
                0x0000000000137268       0x19 ./gen/../tecsrust_uart_led_sample/target/armv7a-none-eabi/release/libitron.a(core-d049573bc16596f9.core.5587a85061e7188a-cgu.0.rcgu.o)
 .rodata..Lanon.a0506fc3c6b36e5783e71ab63da9841e.329
                0x0000000000137281       0x1e ./gen/../tecsrust_uart_led_sample/target/armv7a-none-eabi/release/libitron.a(core-d049573bc16596f9.core.5587a85061e7188a-cgu.0.rcgu.o)
 .rodata..Lanon.a0506fc3c6b36e5783e71ab63da9841e.330
                0x000000000013729f       0x1a ./gen/../tecsrust_uart_led_sample/target/armv7a-none-eabi/release/libitron.a(core-d049573bc16596f9.core.5587a85061e7188a-cgu.0.rcgu.o)
 .rodata..Lanon.a0506fc3c6b36e5783e71ab63da9841e.331
                0x00000000001372b9       0x12 ./gen/../tecsrust_uart_led_sample/target/armv7a-none-eabi/release/libitron.a(core-d049573bc16596f9.core.5587a85061e7188a-cgu.0.rcgu.o)
 *fill*         0x00000000001372cb        0x1 
 .rodata..Lanon.a0506fc3c6b36e5783e71ab63da9841e.332
                0x00000000001372cc       0x10 ./gen/../tecsrust_uart_led_sample/target/armv7a-none-eabi/release/libitron.a(core-d049573bc16596f9.core.5587a85061e7188a-cgu.0.rcgu.o)
 .rodata..Lanon.a0506fc3c6b36e5783e71ab63da9841e.333
                0x00000000001372dc       0x2a ./gen/../tecsrust_uart_led_sample/target/armv7a-none-eabi/release/libitron.a(core-d049573bc16596f9.core.5587a85061e7188a-cgu.0.rcgu.o)
 *fill*         0x0000000000137306        0x2 
 .rodata..Lanon.a0506fc3c6b36e5783e71ab63da9841e.334
                0x0000000000137308        0x8 ./gen/../tecsrust_uart_led_sample/target/armv7a-none-eabi/release/libitron.a(core-d049573bc16596f9.core.5587a85061e7188a-cgu.0.rcgu.o)
 .rodata..Lanon.a0506fc3c6b36e5783e71ab63da9841e.335
                0x0000000000137310       0x29 ./gen/../tecsrust_uart_led_sample/target/armv7a-none-eabi/release/libitron.a(core-d049573bc16596f9.core.5587a85061e7188a-cgu.0.rcgu.o)
 .rodata..Lanon.a0506fc3c6b36e5783e71ab63da9841e.336
                0x0000000000137339        0x6 ./gen/../tecsrust_uart_led_sample/target/armv7a-none-eabi/release/libitron.a(core-d049573bc16596f9.core.5587a85061e7188a-cgu.0.rcgu.o)
 .rodata..Lanon.a0506fc3c6b36e5783e71ab63da9841e.337
                0x000000000013733f        0xb ./gen/../tecsrust_uart_led_sample/target/armv7a-none-eabi/release/libitron.a(core-d049573bc16596f9.core.5587a85061e7188a-cgu.0.rcgu.o)
 .rodata..Lanon.a0506fc3c6b36e5783e71ab63da9841e.338
                0x000000000013734a       0x2a ./gen/../tecsrust_uart_led_sample/target/armv7a-none-eabi/release/libitron.a(core-d049573bc16596f9.core.5587a85061e7188a-cgu.0.rcgu.o)
 .rodata..Lanon.a0506fc3c6b36e5783e71ab63da9841e.339
                0x0000000000137374        0x8 ./gen/../tecsrust_uart_led_sample/target/armv7a-none-eabi/release/libitron.a(core-d049573bc16596f9.core.5587a85061e7188a-cgu.0.rcgu.o)
 .rodata..Lanon.a0506fc3c6b36e5783e71ab63da9841e.340
                0x000000000013737c       0x1b ./gen/../tecsrust_uart_led_sample/target/armv7a-none-eabi/release/libitron.a(core-d049573bc16596f9.core.5587a85061e7188a-cgu.0.rcgu.o)
 .rodata..Lanon.a0506fc3c6b36e5783e71ab63da9841e.341
                0x0000000000137397      0x100 ./gen/../tecsrust_uart_led_sample/target/armv7a-none-eabi/release/libitron.a(core-d049573bc16596f9.core.5587a85061e7188a-cgu.0.rcgu.o)
 .rodata..Lanon.a0506fc3c6b36e5783e71ab63da9841e.342
                0x0000000000137497       0x1f ./gen/../tecsrust_uart_led_sample/target/armv7a-none-eabi/release/libitron.a(core-d049573bc16596f9.core.5587a85061e7188a-cgu.0.rcgu.o)
 *fill*         0x00000000001374b6        0x2 
 .rodata..Lanon.a0506fc3c6b36e5783e71ab63da9841e.343
                0x00000000001374b8       0x10 ./gen/../tecsrust_uart_led_sample/target/armv7a-none-eabi/release/libitron.a(core-d049573bc16596f9.core.5587a85061e7188a-cgu.0.rcgu.o)
 .rodata..Lanon.a0506fc3c6b36e5783e71ab63da9841e.344
                0x00000000001374c8       0x10 ./gen/../tecsrust_uart_led_sample/target/armv7a-none-eabi/release/libitron.a(core-d049573bc16596f9.core.5587a85061e7188a-cgu.0.rcgu.o)
 .rodata..Lanon.a0506fc3c6b36e5783e71ab63da9841e.345
                0x00000000001374d8       0x10 ./gen/../tecsrust_uart_led_sample/target/armv7a-none-eabi/release/libitron.a(core-d049573bc16596f9.core.5587a85061e7188a-cgu.0.rcgu.o)
 .rodata..Lanon.a0506fc3c6b36e5783e71ab63da9841e.346
                0x00000000001374e8       0x10 ./gen/../tecsrust_uart_led_sample/target/armv7a-none-eabi/release/libitron.a(core-d049573bc16596f9.core.5587a85061e7188a-cgu.0.rcgu.o)
 .rodata..Lanon.a0506fc3c6b36e5783e71ab63da9841e.347
                0x00000000001374f8       0x10 ./gen/../tecsrust_uart_led_sample/target/armv7a-none-eabi/release/libitron.a(core-d049573bc16596f9.core.5587a85061e7188a-cgu.0.rcgu.o)
 .rodata..Lanon.a0506fc3c6b36e5783e71ab63da9841e.348
                0x0000000000137508       0x1d ./gen/../tecsrust_uart_led_sample/target/armv7a-none-eabi/release/libitron.a(core-d049573bc16596f9.core.5587a85061e7188a-cgu.0.rcgu.o)
 *fill*         0x0000000000137525        0x3 
 .rodata..Lanon.a0506fc3c6b36e5783e71ab63da9841e.349
                0x0000000000137528       0x10 ./gen/../tecsrust_uart_led_sample/target/armv7a-none-eabi/release/libitron.a(core-d049573bc16596f9.core.5587a85061e7188a-cgu.0.rcgu.o)
 .rodata..Lanon.a0506fc3c6b36e5783e71ab63da9841e.350
                0x0000000000137538        0x2 ./gen/../tecsrust_uart_led_sample/target/armv7a-none-eabi/release/libitron.a(core-d049573bc16596f9.core.5587a85061e7188a-cgu.0.rcgu.o)
 *fill*         0x000000000013753a        0x2 
 .rodata..Lanon.a0506fc3c6b36e5783e71ab63da9841e.351
                0x000000000013753c        0x8 ./gen/../tecsrust_uart_led_sample/target/armv7a-none-eabi/release/libitron.a(core-d049573bc16596f9.core.5587a85061e7188a-cgu.0.rcgu.o)
 .rodata..Lanon.a0506fc3c6b36e5783e71ab63da9841e.352
                0x0000000000137544       0x18 ./gen/../tecsrust_uart_led_sample/target/armv7a-none-eabi/release/libitron.a(core-d049573bc16596f9.core.5587a85061e7188a-cgu.0.rcgu.o)
 .rodata..Lanon.a0506fc3c6b36e5783e71ab63da9841e.353
                0x000000000013755c       0x10 ./gen/../tecsrust_uart_led_sample/target/armv7a-none-eabi/release/libitron.a(core-d049573bc16596f9.core.5587a85061e7188a-cgu.0.rcgu.o)
 .rodata.str1.1
                0x000000000013756c       0x1c ./gen/../tecsrust_uart_led_sample/target/armv7a-none-eabi/release/libitron.a(core-d049573bc16596f9.core.5587a85061e7188a-cgu.0.rcgu.o)
                                          0x1 (size before relaxing)
 .rodata..Lanon.a0506fc3c6b36e5783e71ab63da9841e.355
                0x000000000013756c        0xa ./gen/../tecsrust_uart_led_sample/target/armv7a-none-eabi/release/libitron.a(core-d049573bc16596f9.core.5587a85061e7188a-cgu.0.rcgu.o)
 *fill*         0x0000000000137576        0x2 
 .rodata..Lanon.a0506fc3c6b36e5783e71ab63da9841e.356
                0x0000000000137578       0x10 ./gen/../tecsrust_uart_led_sample/target/armv7a-none-eabi/release/libitron.a(core-d049573bc16596f9.core.5587a85061e7188a-cgu.0.rcgu.o)
 .rodata..Lanon.a0506fc3c6b36e5783e71ab63da9841e.357
                0x0000000000137588        0x6 ./gen/../tecsrust_uart_led_sample/target/armv7a-none-eabi/release/libitron.a(core-d049573bc16596f9.core.5587a85061e7188a-cgu.0.rcgu.o)
 .rodata..Lanon.a0506fc3c6b36e5783e71ab63da9841e.358
                0x000000000013758e       0x16 ./gen/../tecsrust_uart_led_sample/target/armv7a-none-eabi/release/libitron.a(core-d049573bc16596f9.core.5587a85061e7188a-cgu.0.rcgu.o)
 .rodata..Lanon.a0506fc3c6b36e5783e71ab63da9841e.359
                0x00000000001375a4        0x8 ./gen/../tecsrust_uart_led_sample/target/armv7a-none-eabi/release/libitron.a(core-d049573bc16596f9.core.5587a85061e7188a-cgu.0.rcgu.o)
 .rodata..Lanon.a0506fc3c6b36e5783e71ab63da9841e.360
                0x00000000001375ac        0x5 ./gen/../tecsrust_uart_led_sample/target/armv7a-none-eabi/release/libitron.a(core-d049573bc16596f9.core.5587a85061e7188a-cgu.0.rcgu.o)
 .rodata..Lanon.a0506fc3c6b36e5783e71ab63da9841e.361
                0x00000000001375b1        0xe ./gen/../tecsrust_uart_led_sample/target/armv7a-none-eabi/release/libitron.a(core-d049573bc16596f9.core.5587a85061e7188a-cgu.0.rcgu.o)
 .rodata..Lanon.a0506fc3c6b36e5783e71ab63da9841e.364
                0x00000000001375bf        0x1 ./gen/../tecsrust_uart_led_sample/target/armv7a-none-eabi/release/libitron.a(core-d049573bc16596f9.core.5587a85061e7188a-cgu.0.rcgu.o)
 .rodata..Lanon.a0506fc3c6b36e5783e71ab63da9841e.365
                0x00000000001375c0       0x20 ./gen/../tecsrust_uart_led_sample/target/armv7a-none-eabi/release/libitron.a(core-d049573bc16596f9.core.5587a85061e7188a-cgu.0.rcgu.o)
 .rodata..Lanon.a0506fc3c6b36e5783e71ab63da9841e.366
                0x00000000001375e0        0xb ./gen/../tecsrust_uart_led_sample/target/armv7a-none-eabi/release/libitron.a(core-d049573bc16596f9.core.5587a85061e7188a-cgu.0.rcgu.o)
 .rodata..Lanon.a0506fc3c6b36e5783e71ab63da9841e.367
                0x00000000001375eb       0x26 ./gen/../tecsrust_uart_led_sample/target/armv7a-none-eabi/release/libitron.a(core-d049573bc16596f9.core.5587a85061e7188a-cgu.0.rcgu.o)
 .rodata..Lanon.a0506fc3c6b36e5783e71ab63da9841e.369
                0x0000000000137611        0x6 ./gen/../tecsrust_uart_led_sample/target/armv7a-none-eabi/release/libitron.a(core-d049573bc16596f9.core.5587a85061e7188a-cgu.0.rcgu.o)
 *fill*         0x0000000000137617        0x1 
 .rodata..Lanon.a0506fc3c6b36e5783e71ab63da9841e.370
                0x0000000000137618       0x28 ./gen/../tecsrust_uart_led_sample/target/armv7a-none-eabi/release/libitron.a(core-d049573bc16596f9.core.5587a85061e7188a-cgu.0.rcgu.o)
 .rodata..Lanon.a0506fc3c6b36e5783e71ab63da9841e.371
                0x0000000000137640       0x16 ./gen/../tecsrust_uart_led_sample/target/armv7a-none-eabi/release/libitron.a(core-d049573bc16596f9.core.5587a85061e7188a-cgu.0.rcgu.o)
 *fill*         0x0000000000137656        0x2 
 .rodata..Lanon.a0506fc3c6b36e5783e71ab63da9841e.372
                0x0000000000137658       0x18 ./gen/../tecsrust_uart_led_sample/target/armv7a-none-eabi/release/libitron.a(core-d049573bc16596f9.core.5587a85061e7188a-cgu.0.rcgu.o)
 .rodata..Lanon.a0506fc3c6b36e5783e71ab63da9841e.373
                0x0000000000137670       0x10 ./gen/../tecsrust_uart_led_sample/target/armv7a-none-eabi/release/libitron.a(core-d049573bc16596f9.core.5587a85061e7188a-cgu.0.rcgu.o)
 .rodata..Lanon.a0506fc3c6b36e5783e71ab63da9841e.374
                0x0000000000137680        0x2 ./gen/../tecsrust_uart_led_sample/target/armv7a-none-eabi/release/libitron.a(core-d049573bc16596f9.core.5587a85061e7188a-cgu.0.rcgu.o)
 .rodata..Lanon.a0506fc3c6b36e5783e71ab63da9841e.375
                0x0000000000137682        0x3 ./gen/../tecsrust_uart_led_sample/target/armv7a-none-eabi/release/libitron.a(core-d049573bc16596f9.core.5587a85061e7188a-cgu.0.rcgu.o)
 .rodata..Lanon.a0506fc3c6b36e5783e71ab63da9841e.376
                0x0000000000137685        0x2 ./gen/../tecsrust_uart_led_sample/target/armv7a-none-eabi/release/libitron.a(core-d049573bc16596f9.core.5587a85061e7188a-cgu.0.rcgu.o)
 .rodata..Lanon.a0506fc3c6b36e5783e71ab63da9841e.377
                0x0000000000137687        0x1 ./gen/../tecsrust_uart_led_sample/target/armv7a-none-eabi/release/libitron.a(core-d049573bc16596f9.core.5587a85061e7188a-cgu.0.rcgu.o)
 .rodata..Lanon.a0506fc3c6b36e5783e71ab63da9841e.378
                0x0000000000137688       0x18 ./gen/../tecsrust_uart_led_sample/target/armv7a-none-eabi/release/libitron.a(core-d049573bc16596f9.core.5587a85061e7188a-cgu.0.rcgu.o)
 .rodata..Lanon.a0506fc3c6b36e5783e71ab63da9841e.379
                0x00000000001376a0       0x10 ./gen/../tecsrust_uart_led_sample/target/armv7a-none-eabi/release/libitron.a(core-d049573bc16596f9.core.5587a85061e7188a-cgu.0.rcgu.o)
 .rodata..Lanon.a0506fc3c6b36e5783e71ab63da9841e.381
                0x00000000001376b0       0x14 ./gen/../tecsrust_uart_led_sample/target/armv7a-none-eabi/release/libitron.a(core-d049573bc16596f9.core.5587a85061e7188a-cgu.0.rcgu.o)
 .rodata..Lanon.a0506fc3c6b36e5783e71ab63da9841e.382
                0x00000000001376c4       0x10 ./gen/../tecsrust_uart_led_sample/target/armv7a-none-eabi/release/libitron.a(core-d049573bc16596f9.core.5587a85061e7188a-cgu.0.rcgu.o)
 .rodata..Lanon.a0506fc3c6b36e5783e71ab63da9841e.383
                0x00000000001376d4       0x10 ./gen/../tecsrust_uart_led_sample/target/armv7a-none-eabi/release/libitron.a(core-d049573bc16596f9.core.5587a85061e7188a-cgu.0.rcgu.o)
 .rodata..Lanon.a0506fc3c6b36e5783e71ab63da9841e.384
                0x00000000001376e4        0x8 ./gen/../tecsrust_uart_led_sample/target/armv7a-none-eabi/release/libitron.a(core-d049573bc16596f9.core.5587a85061e7188a-cgu.0.rcgu.o)
 .rodata..Lanon.a0506fc3c6b36e5783e71ab63da9841e.385
                0x00000000001376ec       0x18 ./gen/../tecsrust_uart_led_sample/target/armv7a-none-eabi/release/libitron.a(core-d049573bc16596f9.core.5587a85061e7188a-cgu.0.rcgu.o)
 .rodata..Lanon.a0506fc3c6b36e5783e71ab63da9841e.387
                0x0000000000137704        0x8 ./gen/../tecsrust_uart_led_sample/target/armv7a-none-eabi/release/libitron.a(core-d049573bc16596f9.core.5587a85061e7188a-cgu.0.rcgu.o)
 .rodata..Lanon.a0506fc3c6b36e5783e71ab63da9841e.388
                0x000000000013770c       0x10 ./gen/../tecsrust_uart_led_sample/target/armv7a-none-eabi/release/libitron.a(core-d049573bc16596f9.core.5587a85061e7188a-cgu.0.rcgu.o)
 .rodata..Lanon.a0506fc3c6b36e5783e71ab63da9841e.389
                0x000000000013771c       0x3b ./gen/../tecsrust_uart_led_sample/target/armv7a-none-eabi/release/libitron.a(core-d049573bc16596f9.core.5587a85061e7188a-cgu.0.rcgu.o)
 .rodata..Lanon.a0506fc3c6b36e5783e71ab63da9841e.390
                0x0000000000137757       0x48 ./gen/../tecsrust_uart_led_sample/target/armv7a-none-eabi/release/libitron.a(core-d049573bc16596f9.core.5587a85061e7188a-cgu.0.rcgu.o)
 .rodata..Lanon.a0506fc3c6b36e5783e71ab63da9841e.391
                0x000000000013779f       0x25 ./gen/../tecsrust_uart_led_sample/target/armv7a-none-eabi/release/libitron.a(core-d049573bc16596f9.core.5587a85061e7188a-cgu.0.rcgu.o)
 .rodata..Lanon.a0506fc3c6b36e5783e71ab63da9841e.392
                0x00000000001377c4       0x10 ./gen/../tecsrust_uart_led_sample/target/armv7a-none-eabi/release/libitron.a(core-d049573bc16596f9.core.5587a85061e7188a-cgu.0.rcgu.o)
 .rodata..Lanon.a0506fc3c6b36e5783e71ab63da9841e.393
                0x00000000001377d4       0x10 ./gen/../tecsrust_uart_led_sample/target/armv7a-none-eabi/release/libitron.a(core-d049573bc16596f9.core.5587a85061e7188a-cgu.0.rcgu.o)
 .rodata..Lanon.a0506fc3c6b36e5783e71ab63da9841e.394
                0x00000000001377e4       0x58 ./gen/../tecsrust_uart_led_sample/target/armv7a-none-eabi/release/libitron.a(core-d049573bc16596f9.core.5587a85061e7188a-cgu.0.rcgu.o)
 .rodata..Lanon.a0506fc3c6b36e5783e71ab63da9841e.395
                0x000000000013783c       0xd0 ./gen/../tecsrust_uart_led_sample/target/armv7a-none-eabi/release/libitron.a(core-d049573bc16596f9.core.5587a85061e7188a-cgu.0.rcgu.o)
 .rodata..Lanon.a0506fc3c6b36e5783e71ab63da9841e.396
                0x000000000013790c      0x1e6 ./gen/../tecsrust_uart_led_sample/target/armv7a-none-eabi/release/libitron.a(core-d049573bc16596f9.core.5587a85061e7188a-cgu.0.rcgu.o)
 .rodata..Lanon.a0506fc3c6b36e5783e71ab63da9841e.397
                0x0000000000137af2       0x50 ./gen/../tecsrust_uart_led_sample/target/armv7a-none-eabi/release/libitron.a(core-d049573bc16596f9.core.5587a85061e7188a-cgu.0.rcgu.o)
 .rodata..Lanon.a0506fc3c6b36e5783e71ab63da9841e.398
                0x0000000000137b42      0x122 ./gen/../tecsrust_uart_led_sample/target/armv7a-none-eabi/release/libitron.a(core-d049573bc16596f9.core.5587a85061e7188a-cgu.0.rcgu.o)
 .rodata..Lanon.a0506fc3c6b36e5783e71ab63da9841e.399
                0x0000000000137c64      0x129 ./gen/../tecsrust_uart_led_sample/target/armv7a-none-eabi/release/libitron.a(core-d049573bc16596f9.core.5587a85061e7188a-cgu.0.rcgu.o)
 .rodata..Lanon.a0506fc3c6b36e5783e71ab63da9841e.400
                0x0000000000137d8d       0x28 ./gen/../tecsrust_uart_led_sample/target/armv7a-none-eabi/release/libitron.a(core-d049573bc16596f9.core.5587a85061e7188a-cgu.0.rcgu.o)
 *fill*         0x0000000000137db5        0x3 
 .rodata..Lanon.a0506fc3c6b36e5783e71ab63da9841e.401
                0x0000000000137db8       0x10 ./gen/../tecsrust_uart_led_sample/target/armv7a-none-eabi/release/libitron.a(core-d049573bc16596f9.core.5587a85061e7188a-cgu.0.rcgu.o)
 .rodata..Lanon.a0506fc3c6b36e5783e71ab63da9841e.402
                0x0000000000137dc8       0x10 ./gen/../tecsrust_uart_led_sample/target/armv7a-none-eabi/release/libitron.a(core-d049573bc16596f9.core.5587a85061e7188a-cgu.0.rcgu.o)
 .rodata..Lanon.a0506fc3c6b36e5783e71ab63da9841e.403
                0x0000000000137dd8       0x10 ./gen/../tecsrust_uart_led_sample/target/armv7a-none-eabi/release/libitron.a(core-d049573bc16596f9.core.5587a85061e7188a-cgu.0.rcgu.o)
 .rodata..Lanon.a0506fc3c6b36e5783e71ab63da9841e.404
                0x0000000000137de8        0x7 ./gen/../tecsrust_uart_led_sample/target/armv7a-none-eabi/release/libitron.a(core-d049573bc16596f9.core.5587a85061e7188a-cgu.0.rcgu.o)
 *fill*         0x0000000000137def        0x1 
 .rodata..Lanon.a0506fc3c6b36e5783e71ab63da9841e.405
                0x0000000000137df0       0x10 ./gen/../tecsrust_uart_led_sample/target/armv7a-none-eabi/release/libitron.a(core-d049573bc16596f9.core.5587a85061e7188a-cgu.0.rcgu.o)
 .rodata..Lanon.a0506fc3c6b36e5783e71ab63da9841e.406
                0x0000000000137e00        0x5 ./gen/../tecsrust_uart_led_sample/target/armv7a-none-eabi/release/libitron.a(core-d049573bc16596f9.core.5587a85061e7188a-cgu.0.rcgu.o)
 .rodata..Lanon.a0506fc3c6b36e5783e71ab63da9841e.407
                0x0000000000137e05        0x5 ./gen/../tecsrust_uart_led_sample/target/armv7a-none-eabi/release/libitron.a(core-d049573bc16596f9.core.5587a85061e7188a-cgu.0.rcgu.o)
 *fill*         0x0000000000137e0a        0x2 
 .rodata..Lanon.a0506fc3c6b36e5783e71ab63da9841e.408
                0x0000000000137e0c       0x10 ./gen/../tecsrust_uart_led_sample/target/armv7a-none-eabi/release/libitron.a(core-d049573bc16596f9.core.5587a85061e7188a-cgu.0.rcgu.o)
 .rodata..Lanon.a0506fc3c6b36e5783e71ab63da9841e.410
                0x0000000000137e1c       0x10 ./gen/../tecsrust_uart_led_sample/target/armv7a-none-eabi/release/libitron.a(core-d049573bc16596f9.core.5587a85061e7188a-cgu.0.rcgu.o)
 .rodata..Lanon.a0506fc3c6b36e5783e71ab63da9841e.411
                0x0000000000137e2c        0x6 ./gen/../tecsrust_uart_led_sample/target/armv7a-none-eabi/release/libitron.a(core-d049573bc16596f9.core.5587a85061e7188a-cgu.0.rcgu.o)
 .rodata..Lanon.a0506fc3c6b36e5783e71ab63da9841e.412
                0x0000000000137e32        0xa ./gen/../tecsrust_uart_led_sample/target/armv7a-none-eabi/release/libitron.a(core-d049573bc16596f9.core.5587a85061e7188a-cgu.0.rcgu.o)
 .rodata..Lanon.a0506fc3c6b36e5783e71ab63da9841e.413
                0x0000000000137e3c       0x2d ./gen/../tecsrust_uart_led_sample/target/armv7a-none-eabi/release/libitron.a(core-d049573bc16596f9.core.5587a85061e7188a-cgu.0.rcgu.o)
 .rodata..Lanon.a0506fc3c6b36e5783e71ab63da9841e.414
                0x0000000000137e69       0x18 ./gen/../tecsrust_uart_led_sample/target/armv7a-none-eabi/release/libitron.a(core-d049573bc16596f9.core.5587a85061e7188a-cgu.0.rcgu.o)
 .rodata..Lanon.a0506fc3c6b36e5783e71ab63da9841e.415
                0x0000000000137e81      0x100 ./gen/../tecsrust_uart_led_sample/target/armv7a-none-eabi/release/libitron.a(core-d049573bc16596f9.core.5587a85061e7188a-cgu.0.rcgu.o)
 .rodata..Lanon.a0506fc3c6b36e5783e71ab63da9841e.416
                0x0000000000137f81       0x24 ./gen/../tecsrust_uart_led_sample/target/armv7a-none-eabi/release/libitron.a(core-d049573bc16596f9.core.5587a85061e7188a-cgu.0.rcgu.o)
 *fill*         0x0000000000137fa5        0x3 
 .rodata..Lanon.a0506fc3c6b36e5783e71ab63da9841e.418
                0x0000000000137fa8       0x10 ./gen/../tecsrust_uart_led_sample/target/armv7a-none-eabi/release/libitron.a(core-d049573bc16596f9.core.5587a85061e7188a-cgu.0.rcgu.o)
 .rodata..Lanon.a0506fc3c6b36e5783e71ab63da9841e.419
                0x0000000000137fb8       0x1e ./gen/../tecsrust_uart_led_sample/target/armv7a-none-eabi/release/libitron.a(core-d049573bc16596f9.core.5587a85061e7188a-cgu.0.rcgu.o)
 *fill*         0x0000000000137fd6        0x2 
 .rodata..Lanon.a0506fc3c6b36e5783e71ab63da9841e.420
                0x0000000000137fd8       0x10 ./gen/../tecsrust_uart_led_sample/target/armv7a-none-eabi/release/libitron.a(core-d049573bc16596f9.core.5587a85061e7188a-cgu.0.rcgu.o)
 .rodata..Lanon.a0506fc3c6b36e5783e71ab63da9841e.421
                0x0000000000137fe8       0x10 ./gen/../tecsrust_uart_led_sample/target/armv7a-none-eabi/release/libitron.a(core-d049573bc16596f9.core.5587a85061e7188a-cgu.0.rcgu.o)
 .rodata..Lanon.a0506fc3c6b36e5783e71ab63da9841e.422
                0x0000000000137ff8       0x1a ./gen/../tecsrust_uart_led_sample/target/armv7a-none-eabi/release/libitron.a(core-d049573bc16596f9.core.5587a85061e7188a-cgu.0.rcgu.o)
 .rodata..Lanon.a0506fc3c6b36e5783e71ab63da9841e.423
                0x0000000000138012       0x1d ./gen/../tecsrust_uart_led_sample/target/armv7a-none-eabi/release/libitron.a(core-d049573bc16596f9.core.5587a85061e7188a-cgu.0.rcgu.o)
 .rodata..Lanon.a0506fc3c6b36e5783e71ab63da9841e.424
                0x000000000013802f       0x1b ./gen/../tecsrust_uart_led_sample/target/armv7a-none-eabi/release/libitron.a(core-d049573bc16596f9.core.5587a85061e7188a-cgu.0.rcgu.o)
 .rodata..Lanon.a0506fc3c6b36e5783e71ab63da9841e.425
                0x000000000013804a       0x1e ./gen/../tecsrust_uart_led_sample/target/armv7a-none-eabi/release/libitron.a(core-d049573bc16596f9.core.5587a85061e7188a-cgu.0.rcgu.o)
 .rodata..Lanon.a0506fc3c6b36e5783e71ab63da9841e.426
                0x0000000000138068       0x18 ./gen/../tecsrust_uart_led_sample/target/armv7a-none-eabi/release/libitron.a(core-d049573bc16596f9.core.5587a85061e7188a-cgu.0.rcgu.o)
 .rodata..Lanon.a0506fc3c6b36e5783e71ab63da9841e.427
                0x0000000000138080        0x1 ./gen/../tecsrust_uart_led_sample/target/armv7a-none-eabi/release/libitron.a(core-d049573bc16596f9.core.5587a85061e7188a-cgu.0.rcgu.o)
 *fill*         0x0000000000138081        0x3 
 .rodata..Lanon.a0506fc3c6b36e5783e71ab63da9841e.428
                0x0000000000138084        0x8 ./gen/../tecsrust_uart_led_sample/target/armv7a-none-eabi/release/libitron.a(core-d049573bc16596f9.core.5587a85061e7188a-cgu.0.rcgu.o)
 .rodata..Lanon.a0506fc3c6b36e5783e71ab63da9841e.429
                0x000000000013808c       0x18 ./gen/../tecsrust_uart_led_sample/target/armv7a-none-eabi/release/libitron.a(core-d049573bc16596f9.core.5587a85061e7188a-cgu.0.rcgu.o)
 .rodata..Lanon.a0506fc3c6b36e5783e71ab63da9841e.430
                0x00000000001380a4       0x10 ./gen/../tecsrust_uart_led_sample/target/armv7a-none-eabi/release/libitron.a(core-d049573bc16596f9.core.5587a85061e7188a-cgu.0.rcgu.o)
 .rodata..Lanon.a0506fc3c6b36e5783e71ab63da9841e.431
                0x00000000001380b4       0x1c ./gen/../tecsrust_uart_led_sample/target/armv7a-none-eabi/release/libitron.a(core-d049573bc16596f9.core.5587a85061e7188a-cgu.0.rcgu.o)
 .rodata._ZN4core3num7dec2flt5table17POWER_OF_FIVE_12817h60379a77b3c83400E
                0x00000000001380d0     0x28b0 ./gen/../tecsrust_uart_led_sample/target/armv7a-none-eabi/release/libitron.a(core-d049573bc16596f9.core.5587a85061e7188a-cgu.0.rcgu.o)
 .rodata..Lanon.a0506fc3c6b36e5783e71ab63da9841e.432
                0x000000000013a980       0x40 ./gen/../tecsrust_uart_led_sample/target/armv7a-none-eabi/release/libitron.a(core-d049573bc16596f9.core.5587a85061e7188a-cgu.0.rcgu.o)
 .rodata..Lanon.a0506fc3c6b36e5783e71ab63da9841e.433
                0x000000000013a9c0        0x8 ./gen/../tecsrust_uart_led_sample/target/armv7a-none-eabi/release/libitron.a(core-d049573bc16596f9.core.5587a85061e7188a-cgu.0.rcgu.o)
 .rodata..Lanon.a0506fc3c6b36e5783e71ab63da9841e.434
                0x000000000013a9c8       0x18 ./gen/../tecsrust_uart_led_sample/target/armv7a-none-eabi/release/libitron.a(core-d049573bc16596f9.core.5587a85061e7188a-cgu.0.rcgu.o)
 .rodata..Lanon.a0506fc3c6b36e5783e71ab63da9841e.435
                0x000000000013a9e0       0x1c ./gen/../tecsrust_uart_led_sample/target/armv7a-none-eabi/release/libitron.a(core-d049573bc16596f9.core.5587a85061e7188a-cgu.0.rcgu.o)
 .rodata..Lanon.a0506fc3c6b36e5783e71ab63da9841e.436
                0x000000000013a9fc       0x18 ./gen/../tecsrust_uart_led_sample/target/armv7a-none-eabi/release/libitron.a(core-d049573bc16596f9.core.5587a85061e7188a-cgu.0.rcgu.o)
 .rodata..Lanon.a0506fc3c6b36e5783e71ab63da9841e.437
                0x000000000013aa14       0x12 ./gen/../tecsrust_uart_led_sample/target/armv7a-none-eabi/release/libitron.a(core-d049573bc16596f9.core.5587a85061e7188a-cgu.0.rcgu.o)
 .rodata..Lanon.a0506fc3c6b36e5783e71ab63da9841e.438
                0x000000000013aa26       0x13 ./gen/../tecsrust_uart_led_sample/target/armv7a-none-eabi/release/libitron.a(core-d049573bc16596f9.core.5587a85061e7188a-cgu.0.rcgu.o)
 .rodata..Lanon.a0506fc3c6b36e5783e71ab63da9841e.439
                0x000000000013aa39       0x15 ./gen/../tecsrust_uart_led_sample/target/armv7a-none-eabi/release/libitron.a(core-d049573bc16596f9.core.5587a85061e7188a-cgu.0.rcgu.o)
 *fill*         0x000000000013aa4e        0x2 
 .rodata..Lanon.a0506fc3c6b36e5783e71ab63da9841e.440
                0x000000000013aa50       0x18 ./gen/../tecsrust_uart_led_sample/target/armv7a-none-eabi/release/libitron.a(core-d049573bc16596f9.core.5587a85061e7188a-cgu.0.rcgu.o)
 .rodata..Lanon.a0506fc3c6b36e5783e71ab63da9841e.441
                0x000000000013aa68       0x48 ./gen/../tecsrust_uart_led_sample/target/armv7a-none-eabi/release/libitron.a(core-d049573bc16596f9.core.5587a85061e7188a-cgu.0.rcgu.o)
 .rodata..Lanon.a0506fc3c6b36e5783e71ab63da9841e.442
                0x000000000013aab0       0x13 ./gen/../tecsrust_uart_led_sample/target/armv7a-none-eabi/release/libitron.a(core-d049573bc16596f9.core.5587a85061e7188a-cgu.0.rcgu.o)
 *fill*         0x000000000013aac3        0x1 
 .rodata..Lanon.a0506fc3c6b36e5783e71ab63da9841e.443
                0x000000000013aac4       0x18 ./gen/../tecsrust_uart_led_sample/target/armv7a-none-eabi/release/libitron.a(core-d049573bc16596f9.core.5587a85061e7188a-cgu.0.rcgu.o)
 .rodata..Lanon.a0506fc3c6b36e5783e71ab63da9841e.444
                0x000000000013aadc       0x19 ./gen/../tecsrust_uart_led_sample/target/armv7a-none-eabi/release/libitron.a(core-d049573bc16596f9.core.5587a85061e7188a-cgu.0.rcgu.o)
 *fill*         0x000000000013aaf5        0x3 
 .rodata..Lanon.a0506fc3c6b36e5783e71ab63da9841e.445
                0x000000000013aaf8        0x8 ./gen/../tecsrust_uart_led_sample/target/armv7a-none-eabi/release/libitron.a(core-d049573bc16596f9.core.5587a85061e7188a-cgu.0.rcgu.o)
 .rodata..Lanon.a0506fc3c6b36e5783e71ab63da9841e.446
                0x000000000013ab00       0x39 ./gen/../tecsrust_uart_led_sample/target/armv7a-none-eabi/release/libitron.a(core-d049573bc16596f9.core.5587a85061e7188a-cgu.0.rcgu.o)
 *fill*         0x000000000013ab39        0x3 
 .rodata..Lanon.a0506fc3c6b36e5783e71ab63da9841e.447
                0x000000000013ab3c        0x8 ./gen/../tecsrust_uart_led_sample/target/armv7a-none-eabi/release/libitron.a(core-d049573bc16596f9.core.5587a85061e7188a-cgu.0.rcgu.o)
 .rodata..Lanon.a0506fc3c6b36e5783e71ab63da9841e.448
                0x000000000013ab44       0x22 ./gen/../tecsrust_uart_led_sample/target/armv7a-none-eabi/release/libitron.a(core-d049573bc16596f9.core.5587a85061e7188a-cgu.0.rcgu.o)
 *fill*         0x000000000013ab66        0x2 
 .rodata..Lanon.a0506fc3c6b36e5783e71ab63da9841e.449
                0x000000000013ab68        0x8 ./gen/../tecsrust_uart_led_sample/target/armv7a-none-eabi/release/libitron.a(core-d049573bc16596f9.core.5587a85061e7188a-cgu.0.rcgu.o)
 .rodata..Lanon.a0506fc3c6b36e5783e71ab63da9841e.450
                0x000000000013ab70       0x23 ./gen/../tecsrust_uart_led_sample/target/armv7a-none-eabi/release/libitron.a(core-d049573bc16596f9.core.5587a85061e7188a-cgu.0.rcgu.o)
 *fill*         0x000000000013ab93        0x1 
 .rodata..Lanon.a0506fc3c6b36e5783e71ab63da9841e.451
                0x000000000013ab94        0x8 ./gen/../tecsrust_uart_led_sample/target/armv7a-none-eabi/release/libitron.a(core-d049573bc16596f9.core.5587a85061e7188a-cgu.0.rcgu.o)
 .rodata..Lanon.a0506fc3c6b36e5783e71ab63da9841e.452
                0x000000000013ab9c       0x27 ./gen/../tecsrust_uart_led_sample/target/armv7a-none-eabi/release/libitron.a(core-d049573bc16596f9.core.5587a85061e7188a-cgu.0.rcgu.o)
 *fill*         0x000000000013abc3        0x1 
 .rodata..Lanon.a0506fc3c6b36e5783e71ab63da9841e.453
                0x000000000013abc4        0x8 ./gen/../tecsrust_uart_led_sample/target/armv7a-none-eabi/release/libitron.a(core-d049573bc16596f9.core.5587a85061e7188a-cgu.0.rcgu.o)
 .rodata..Lanon.a0506fc3c6b36e5783e71ab63da9841e.454
                0x000000000013abcc       0x3b ./gen/../tecsrust_uart_led_sample/target/armv7a-none-eabi/release/libitron.a(core-d049573bc16596f9.core.5587a85061e7188a-cgu.0.rcgu.o)
 *fill*         0x000000000013ac07        0x1 
 .rodata..Lanon.a0506fc3c6b36e5783e71ab63da9841e.455
                0x000000000013ac08        0x8 ./gen/../tecsrust_uart_led_sample/target/armv7a-none-eabi/release/libitron.a(core-d049573bc16596f9.core.5587a85061e7188a-cgu.0.rcgu.o)
 .rodata..Lanon.a0506fc3c6b36e5783e71ab63da9841e.456
                0x000000000013ac10       0x21 ./gen/../tecsrust_uart_led_sample/target/armv7a-none-eabi/release/libitron.a(core-d049573bc16596f9.core.5587a85061e7188a-cgu.0.rcgu.o)
 *fill*         0x000000000013ac31        0x3 
 .rodata..Lanon.a0506fc3c6b36e5783e71ab63da9841e.457
                0x000000000013ac34        0x8 ./gen/../tecsrust_uart_led_sample/target/armv7a-none-eabi/release/libitron.a(core-d049573bc16596f9.core.5587a85061e7188a-cgu.0.rcgu.o)
 .rodata..Lanon.a0506fc3c6b36e5783e71ab63da9841e.458
                0x000000000013ac3c       0x22 ./gen/../tecsrust_uart_led_sample/target/armv7a-none-eabi/release/libitron.a(core-d049573bc16596f9.core.5587a85061e7188a-cgu.0.rcgu.o)
 *fill*         0x000000000013ac5e        0x2 
 .rodata..Lanon.a0506fc3c6b36e5783e71ab63da9841e.459
                0x000000000013ac60        0x8 ./gen/../tecsrust_uart_led_sample/target/armv7a-none-eabi/release/libitron.a(core-d049573bc16596f9.core.5587a85061e7188a-cgu.0.rcgu.o)
 .rodata..Lanon.a0506fc3c6b36e5783e71ab63da9841e.460
                0x000000000013ac68       0x26 ./gen/../tecsrust_uart_led_sample/target/armv7a-none-eabi/release/libitron.a(core-d049573bc16596f9.core.5587a85061e7188a-cgu.0.rcgu.o)
 *fill*         0x000000000013ac8e        0x2 
 .rodata..Lanon.a0506fc3c6b36e5783e71ab63da9841e.461
                0x000000000013ac90        0x8 ./gen/../tecsrust_uart_led_sample/target/armv7a-none-eabi/release/libitron.a(core-d049573bc16596f9.core.5587a85061e7188a-cgu.0.rcgu.o)
 .rodata..Lanon.a0506fc3c6b36e5783e71ab63da9841e.462
                0x000000000013ac98       0x3a ./gen/../tecsrust_uart_led_sample/target/armv7a-none-eabi/release/libitron.a(core-d049573bc16596f9.core.5587a85061e7188a-cgu.0.rcgu.o)
 *fill*         0x000000000013acd2        0x2 
 .rodata..Lanon.a0506fc3c6b36e5783e71ab63da9841e.463
                0x000000000013acd4        0x8 ./gen/../tecsrust_uart_led_sample/target/armv7a-none-eabi/release/libitron.a(core-d049573bc16596f9.core.5587a85061e7188a-cgu.0.rcgu.o)
 .rodata..Lanon.a0506fc3c6b36e5783e71ab63da9841e.464
                0x000000000013acdc       0x22 ./gen/../tecsrust_uart_led_sample/target/armv7a-none-eabi/release/libitron.a(core-d049573bc16596f9.core.5587a85061e7188a-cgu.0.rcgu.o)
 *fill*         0x000000000013acfe        0x2 
 .rodata..Lanon.a0506fc3c6b36e5783e71ab63da9841e.465
                0x000000000013ad00        0x8 ./gen/../tecsrust_uart_led_sample/target/armv7a-none-eabi/release/libitron.a(core-d049573bc16596f9.core.5587a85061e7188a-cgu.0.rcgu.o)
 .rodata..Lanon.a0506fc3c6b36e5783e71ab63da9841e.466
                0x000000000013ad08       0x23 ./gen/../tecsrust_uart_led_sample/target/armv7a-none-eabi/release/libitron.a(core-d049573bc16596f9.core.5587a85061e7188a-cgu.0.rcgu.o)
 *fill*         0x000000000013ad2b        0x1 
 .rodata..Lanon.a0506fc3c6b36e5783e71ab63da9841e.467
                0x000000000013ad2c        0x8 ./gen/../tecsrust_uart_led_sample/target/armv7a-none-eabi/release/libitron.a(core-d049573bc16596f9.core.5587a85061e7188a-cgu.0.rcgu.o)
 .rodata..Lanon.a0506fc3c6b36e5783e71ab63da9841e.468
                0x000000000013ad34       0x27 ./gen/../tecsrust_uart_led_sample/target/armv7a-none-eabi/release/libitron.a(core-d049573bc16596f9.core.5587a85061e7188a-cgu.0.rcgu.o)
 *fill*         0x000000000013ad5b        0x1 
 .rodata..Lanon.a0506fc3c6b36e5783e71ab63da9841e.469
                0x000000000013ad5c        0x8 ./gen/../tecsrust_uart_led_sample/target/armv7a-none-eabi/release/libitron.a(core-d049573bc16596f9.core.5587a85061e7188a-cgu.0.rcgu.o)
 .rodata..Lanon.a0506fc3c6b36e5783e71ab63da9841e.470
                0x000000000013ad64       0x21 ./gen/../tecsrust_uart_led_sample/target/armv7a-none-eabi/release/libitron.a(core-d049573bc16596f9.core.5587a85061e7188a-cgu.0.rcgu.o)
 *fill*         0x000000000013ad85        0x3 
 .rodata..Lanon.a0506fc3c6b36e5783e71ab63da9841e.471
                0x000000000013ad88        0x8 ./gen/../tecsrust_uart_led_sample/target/armv7a-none-eabi/release/libitron.a(core-d049573bc16596f9.core.5587a85061e7188a-cgu.0.rcgu.o)
 .rodata..Lanon.a0506fc3c6b36e5783e71ab63da9841e.472
                0x000000000013ad90       0x2c ./gen/../tecsrust_uart_led_sample/target/armv7a-none-eabi/release/libitron.a(core-d049573bc16596f9.core.5587a85061e7188a-cgu.0.rcgu.o)
 .rodata..Lanon.a0506fc3c6b36e5783e71ab63da9841e.473
                0x000000000013adbc        0x8 ./gen/../tecsrust_uart_led_sample/target/armv7a-none-eabi/release/libitron.a(core-d049573bc16596f9.core.5587a85061e7188a-cgu.0.rcgu.o)
 .rodata..Lanon.a0506fc3c6b36e5783e71ab63da9841e.474
                0x000000000013adc4        0x1 ./gen/../tecsrust_uart_led_sample/target/armv7a-none-eabi/release/libitron.a(core-d049573bc16596f9.core.5587a85061e7188a-cgu.0.rcgu.o)
 .rodata..Lanon.a0506fc3c6b36e5783e71ab63da9841e.475
                0x000000000013adc5       0x1c ./gen/../tecsrust_uart_led_sample/target/armv7a-none-eabi/release/libitron.a(core-d049573bc16596f9.core.5587a85061e7188a-cgu.0.rcgu.o)
 *fill*         0x000000000013ade1        0x3 
 .rodata..Lanon.a0506fc3c6b36e5783e71ab63da9841e.476
                0x000000000013ade4       0x10 ./gen/../tecsrust_uart_led_sample/target/armv7a-none-eabi/release/libitron.a(core-d049573bc16596f9.core.5587a85061e7188a-cgu.0.rcgu.o)
 .rodata..Lanon.a0506fc3c6b36e5783e71ab63da9841e.477
                0x000000000013adf4       0x10 ./gen/../tecsrust_uart_led_sample/target/armv7a-none-eabi/release/libitron.a(core-d049573bc16596f9.core.5587a85061e7188a-cgu.0.rcgu.o)
 .rodata..Lanon.a0506fc3c6b36e5783e71ab63da9841e.478
                0x000000000013ae04        0x1 ./gen/../tecsrust_uart_led_sample/target/armv7a-none-eabi/release/libitron.a(core-d049573bc16596f9.core.5587a85061e7188a-cgu.0.rcgu.o)
 *fill*         0x000000000013ae05        0x3 
 .rodata..Lanon.a0506fc3c6b36e5783e71ab63da9841e.479
                0x000000000013ae08       0x10 ./gen/../tecsrust_uart_led_sample/target/armv7a-none-eabi/release/libitron.a(core-d049573bc16596f9.core.5587a85061e7188a-cgu.0.rcgu.o)
 .rodata..Lanon.a0506fc3c6b36e5783e71ab63da9841e.480
                0x000000000013ae18        0x1 ./gen/../tecsrust_uart_led_sample/target/armv7a-none-eabi/release/libitron.a(core-d049573bc16596f9.core.5587a85061e7188a-cgu.0.rcgu.o)
 *fill*         0x000000000013ae19        0x3 
 .rodata..Lanon.a0506fc3c6b36e5783e71ab63da9841e.481
                0x000000000013ae1c       0x10 ./gen/../tecsrust_uart_led_sample/target/armv7a-none-eabi/release/libitron.a(core-d049573bc16596f9.core.5587a85061e7188a-cgu.0.rcgu.o)
 .rodata..Lanon.a0506fc3c6b36e5783e71ab63da9841e.482
                0x000000000013ae2c       0x10 ./gen/../tecsrust_uart_led_sample/target/armv7a-none-eabi/release/libitron.a(core-d049573bc16596f9.core.5587a85061e7188a-cgu.0.rcgu.o)
 .rodata..Lanon.a0506fc3c6b36e5783e71ab63da9841e.483
                0x000000000013ae3c       0x10 ./gen/../tecsrust_uart_led_sample/target/armv7a-none-eabi/release/libitron.a(core-d049573bc16596f9.core.5587a85061e7188a-cgu.0.rcgu.o)
 .rodata..Lanon.a0506fc3c6b36e5783e71ab63da9841e.484
                0x000000000013ae4c       0x10 ./gen/../tecsrust_uart_led_sample/target/armv7a-none-eabi/release/libitron.a(core-d049573bc16596f9.core.5587a85061e7188a-cgu.0.rcgu.o)
 .rodata..Lanon.a0506fc3c6b36e5783e71ab63da9841e.485
                0x000000000013ae5c       0x10 ./gen/../tecsrust_uart_led_sample/target/armv7a-none-eabi/release/libitron.a(core-d049573bc16596f9.core.5587a85061e7188a-cgu.0.rcgu.o)
 .rodata..Lanon.a0506fc3c6b36e5783e71ab63da9841e.486
                0x000000000013ae6c        0x5 ./gen/../tecsrust_uart_led_sample/target/armv7a-none-eabi/release/libitron.a(core-d049573bc16596f9.core.5587a85061e7188a-cgu.0.rcgu.o)
 .rodata..Lanon.a0506fc3c6b36e5783e71ab63da9841e.487
                0x000000000013ae71       0x12 ./gen/../tecsrust_uart_led_sample/target/armv7a-none-eabi/release/libitron.a(core-d049573bc16596f9.core.5587a85061e7188a-cgu.0.rcgu.o)
 .rodata..Lanon.a0506fc3c6b36e5783e71ab63da9841e.488
                0x000000000013ae83       0x22 ./gen/../tecsrust_uart_led_sample/target/armv7a-none-eabi/release/libitron.a(core-d049573bc16596f9.core.5587a85061e7188a-cgu.0.rcgu.o)
 *fill*         0x000000000013aea5        0x3 
 .rodata..Lanon.a0506fc3c6b36e5783e71ab63da9841e.489
                0x000000000013aea8       0x10 ./gen/../tecsrust_uart_led_sample/target/armv7a-none-eabi/release/libitron.a(core-d049573bc16596f9.core.5587a85061e7188a-cgu.0.rcgu.o)
 .rodata..Lanon.a0506fc3c6b36e5783e71ab63da9841e.491
                0x000000000013aeb8       0x10 ./gen/../tecsrust_uart_led_sample/target/armv7a-none-eabi/release/libitron.a(core-d049573bc16596f9.core.5587a85061e7188a-cgu.0.rcgu.o)
 .rodata..Lanon.a0506fc3c6b36e5783e71ab63da9841e.492
                0x000000000013aec8       0x16 ./gen/../tecsrust_uart_led_sample/target/armv7a-none-eabi/release/libitron.a(core-d049573bc16596f9.core.5587a85061e7188a-cgu.0.rcgu.o)
 .rodata..Lanon.a0506fc3c6b36e5783e71ab63da9841e.493
                0x000000000013aede        0xd ./gen/../tecsrust_uart_led_sample/target/armv7a-none-eabi/release/libitron.a(core-d049573bc16596f9.core.5587a85061e7188a-cgu.0.rcgu.o)
 *fill*         0x000000000013aeeb        0x1 
 .rodata..Lanon.a0506fc3c6b36e5783e71ab63da9841e.494
                0x000000000013aeec       0x10 ./gen/../tecsrust_uart_led_sample/target/armv7a-none-eabi/release/libitron.a(core-d049573bc16596f9.core.5587a85061e7188a-cgu.0.rcgu.o)
 .rodata..Lanon.a0506fc3c6b36e5783e71ab63da9841e.495
                0x000000000013aefc       0x26 ./gen/../tecsrust_uart_led_sample/target/armv7a-none-eabi/release/libitron.a(core-d049573bc16596f9.core.5587a85061e7188a-cgu.0.rcgu.o)
 .rodata..Lanon.a0506fc3c6b36e5783e71ab63da9841e.496
                0x000000000013af22       0x2b ./gen/../tecsrust_uart_led_sample/target/armv7a-none-eabi/release/libitron.a(core-d049573bc16596f9.core.5587a85061e7188a-cgu.0.rcgu.o)
 *fill*         0x000000000013af4d        0x3 
 .rodata..Lanon.a0506fc3c6b36e5783e71ab63da9841e.497
                0x000000000013af50       0x18 ./gen/../tecsrust_uart_led_sample/target/armv7a-none-eabi/release/libitron.a(core-d049573bc16596f9.core.5587a85061e7188a-cgu.0.rcgu.o)
 .rodata._ZN4core7unicode12unicode_data10alphabetic17SHORT_OFFSET_RUNS17he6009c709dd16101E
                0x000000000013af68       0xd4 ./gen/../tecsrust_uart_led_sample/target/armv7a-none-eabi/release/libitron.a(core-d049573bc16596f9.core.5587a85061e7188a-cgu.0.rcgu.o)
 .rodata._ZN4core7unicode12unicode_data14case_ignorable17SHORT_OFFSET_RUNS17h4fbf63569f64a625E
                0x000000000013b03c       0x94 ./gen/../tecsrust_uart_led_sample/target/armv7a-none-eabi/release/libitron.a(core-d049573bc16596f9.core.5587a85061e7188a-cgu.0.rcgu.o)
 .rodata._ZN4core7unicode12unicode_data5cased17SHORT_OFFSET_RUNS17h7a479c119684b2a6E
                0x000000000013b0d0       0x58 ./gen/../tecsrust_uart_led_sample/target/armv7a-none-eabi/release/libitron.a(core-d049573bc16596f9.core.5587a85061e7188a-cgu.0.rcgu.o)
 .rodata._ZN4core7unicode12unicode_data15grapheme_extend17SHORT_OFFSET_RUNS17hee57a88206e414ebE
                0x000000000013b128       0x88 ./gen/../tecsrust_uart_led_sample/target/armv7a-none-eabi/release/libitron.a(core-d049573bc16596f9.core.5587a85061e7188a-cgu.0.rcgu.o)
 .rodata._ZN4core7unicode12unicode_data9lowercase19BITSET_INDEX_CHUNKS17h4f138acca8fa2dc8E
                0x000000000013b1b0      0x140 ./gen/../tecsrust_uart_led_sample/target/armv7a-none-eabi/release/libitron.a(core-d049573bc16596f9.core.5587a85061e7188a-cgu.0.rcgu.o)
                0x000000000013b1b0                core::unicode::unicode_data::lowercase::BITSET_INDEX_CHUNKS
 .rodata._ZN4core7unicode12unicode_data9lowercase16BITSET_CANONICAL17h84c1f118f954263cE
                0x000000000013b2f0      0x1c0 ./gen/../tecsrust_uart_led_sample/target/armv7a-none-eabi/release/libitron.a(core-d049573bc16596f9.core.5587a85061e7188a-cgu.0.rcgu.o)
                0x000000000013b2f0                core::unicode::unicode_data::lowercase::BITSET_CANONICAL
 .rodata._ZN4core7unicode12unicode_data9lowercase14BITSET_MAPPING17h458e7a7802856e65E
                0x000000000013b4b0       0x2c ./gen/../tecsrust_uart_led_sample/target/armv7a-none-eabi/release/libitron.a(core-d049573bc16596f9.core.5587a85061e7188a-cgu.0.rcgu.o)
                0x000000000013b4b0                core::unicode::unicode_data::lowercase::BITSET_MAPPING
 .rodata._ZN4core7unicode12unicode_data1n17SHORT_OFFSET_RUNS17hbac430b5adf8ef6aE
                0x000000000013b4dc       0xa8 ./gen/../tecsrust_uart_led_sample/target/armv7a-none-eabi/release/libitron.a(core-d049573bc16596f9.core.5587a85061e7188a-cgu.0.rcgu.o)
 .rodata._ZN4core7unicode12unicode_data9uppercase19BITSET_INDEX_CHUNKS17h5ca318c69d422039E
                0x000000000013b584      0x110 ./gen/../tecsrust_uart_led_sample/target/armv7a-none-eabi/release/libitron.a(core-d049573bc16596f9.core.5587a85061e7188a-cgu.0.rcgu.o)
                0x000000000013b584                core::unicode::unicode_data::uppercase::BITSET_INDEX_CHUNKS
 *fill*         0x000000000013b694        0x4 
 .rodata._ZN4core7unicode12unicode_data9uppercase16BITSET_CANONICAL17hb8eb186001405e7eE
                0x000000000013b698      0x160 ./gen/../tecsrust_uart_led_sample/target/armv7a-none-eabi/release/libitron.a(core-d049573bc16596f9.core.5587a85061e7188a-cgu.0.rcgu.o)
                0x000000000013b698                core::unicode::unicode_data::uppercase::BITSET_CANONICAL
 .rodata._ZN4core7unicode12unicode_data9uppercase14BITSET_MAPPING17h940f90362d1b786fE
                0x000000000013b7f8       0x32 ./gen/../tecsrust_uart_led_sample/target/armv7a-none-eabi/release/libitron.a(core-d049573bc16596f9.core.5587a85061e7188a-cgu.0.rcgu.o)
                0x000000000013b7f8                core::unicode::unicode_data::uppercase::BITSET_MAPPING
 *fill*         0x000000000013b82a        0x2 
 .rodata..Lanon.a0506fc3c6b36e5783e71ab63da9841e.498
                0x000000000013b82c       0x10 ./gen/../tecsrust_uart_led_sample/target/armv7a-none-eabi/release/libitron.a(core-d049573bc16596f9.core.5587a85061e7188a-cgu.0.rcgu.o)
 .rodata..Lanon.a0506fc3c6b36e5783e71ab63da9841e.499
                0x000000000013b83c       0x10 ./gen/../tecsrust_uart_led_sample/target/armv7a-none-eabi/release/libitron.a(core-d049573bc16596f9.core.5587a85061e7188a-cgu.0.rcgu.o)
 .rodata..Lanon.a0506fc3c6b36e5783e71ab63da9841e.500
                0x000000000013b84c     0x2cd0 ./gen/../tecsrust_uart_led_sample/target/armv7a-none-eabi/release/libitron.a(core-d049573bc16596f9.core.5587a85061e7188a-cgu.0.rcgu.o)
 .rodata..Lanon.a0506fc3c6b36e5783e71ab63da9841e.501
                0x000000000013e51c     0x2fb0 ./gen/../tecsrust_uart_led_sample/target/armv7a-none-eabi/release/libitron.a(core-d049573bc16596f9.core.5587a85061e7188a-cgu.0.rcgu.o)
 .rodata..Lanon.a0506fc3c6b36e5783e71ab63da9841e.502
                0x00000000001414cc      0x4c8 ./gen/../tecsrust_uart_led_sample/target/armv7a-none-eabi/release/libitron.a(core-d049573bc16596f9.core.5587a85061e7188a-cgu.0.rcgu.o)
 .rodata..Lanon.a0506fc3c6b36e5783e71ab63da9841e.503
                0x0000000000141994       0x14 ./gen/../tecsrust_uart_led_sample/target/armv7a-none-eabi/release/libitron.a(core-d049573bc16596f9.core.5587a85061e7188a-cgu.0.rcgu.o)
 .rodata..Lswitch.table._ZN70_$LT$core..num..error..ParseIntError$u20$as$u20$core..fmt..Display$GT$3fmt17hbaea7be47c23092bE
                0x00000000001419a8       0x14 ./gen/../tecsrust_uart_led_sample/target/armv7a-none-eabi/release/libitron.a(core-d049573bc16596f9.core.5587a85061e7188a-cgu.0.rcgu.o)
 .rodata..Lswitch.table._ZN70_$LT$core..num..error..ParseIntError$u20$as$u20$core..fmt..Display$GT$3fmt17hbaea7be47c23092bE.269
                0x00000000001419bc       0x14 ./gen/../tecsrust_uart_led_sample/target/armv7a-none-eabi/release/libitron.a(core-d049573bc16596f9.core.5587a85061e7188a-cgu.0.rcgu.o)
 .rodata..Lswitch.table._ZN72_$LT$core..net..parser..AddrParseError$u20$as$u20$core..fmt..Display$GT$3fmt17hd7f7df04664d2864E
                0x00000000001419d0       0x18 ./gen/../tecsrust_uart_led_sample/target/armv7a-none-eabi/release/libitron.a(core-d049573bc16596f9.core.5587a85061e7188a-cgu.0.rcgu.o)
 .rodata..Lswitch.table._ZN72_$LT$core..net..parser..AddrParseError$u20$as$u20$core..fmt..Display$GT$3fmt17hd7f7df04664d2864E.270
                0x00000000001419e8       0x18 ./gen/../tecsrust_uart_led_sample/target/armv7a-none-eabi/release/libitron.a(core-d049573bc16596f9.core.5587a85061e7188a-cgu.0.rcgu.o)
 .rodata..Lswitch.table._ZN4core9panicking19assert_failed_inner17h1f0479933a2bc628E
                0x0000000000141a00        0xc ./gen/../tecsrust_uart_led_sample/target/armv7a-none-eabi/release/libitron.a(core-d049573bc16596f9.core.5587a85061e7188a-cgu.0.rcgu.o)
 .rodata..Lswitch.table._ZN4core9panicking19assert_failed_inner17h1f0479933a2bc628E.271
                0x0000000000141a0c        0xc ./gen/../tecsrust_uart_led_sample/target/armv7a-none-eabi/release/libitron.a(core-d049573bc16596f9.core.5587a85061e7188a-cgu.0.rcgu.o)
 .rodata.str1.4
                0x0000000000141a18       0x83 ./libkernel.a(gic_kernel_impl.o)
 *fill*         0x0000000000141a9b        0x1 
 .rodata.str1.4
                0x0000000000141a9c      0x305 ./libkernel.a(core_kernel_impl.o)
 *fill*         0x0000000000141da1        0x3 
 .rodata.str1.4
                0x0000000000141da4       0x42 ./libkernel.a(startup.o)
 *fill*         0x0000000000141de6        0x2 
 .rodata.str1.4
                0x0000000000141de8       0x37 ./libkernel.a(task.o)
 *fill*         0x0000000000141e1f        0x1 
 .rodata.str1.4
                0x0000000000141e20       0x75 ./libkernel.a(wait.o)
                                         0xaf (size before relaxing)
 *fill*         0x0000000000141e95        0x3 
 .rodata.str1.4
                0x0000000000141e98       0x56 ./libkernel.a(time_event.o)
                                         0x7e (size before relaxing)
 .rodata.str1.4
                0x0000000000141eee       0x34 ./libkernel.a(task_sync.o)
 .rodata.str1.4
                0x0000000000141eee       0x37 ./libkernel.a(semaphore.o)
 .rodata.str1.4
                0x0000000000141eee       0x37 ./libkernel.a(dataqueue.o)
 .rodata.str1.4
                0x0000000000141eee       0x6c ./libkernel.a(mutex.o)
                0x0000000000141f5c                . = ALIGN (0x4)
 *fill*         0x0000000000141eee        0x2 
                0x0000000000141ef0                _ctor_list = .
 *(SORT_BY_NAME(.init_array.*))
 *(.init_array)
                0x0000000000141ef0        0x4 LONG 0x0
                0x0000000000141ef4                _dtor_list = .
 *(.fini_array)
 *(SORT_BY_NAME(.fini_array.*))
                0x0000000000141ef4        0x4 LONG 0x0
                0x0000000000141ef8                __end_rodata = .

.preinit_array  0x0000000000141ef8        0x0
                [!provide]                        PROVIDE (__preinit_array_start = .)
 *(.preinit_array)
                [!provide]                        PROVIDE (__preinit_array_end = .)

.init_array     0x0000000000141ef8        0x0
                [!provide]                        PROVIDE (__init_array_start = .)
 *(SORT_BY_NAME(.init_array.*))
 *(.init_array)
                [!provide]                        PROVIDE (__init_array_end = .)

.fini_array     0x0000000000141ef8        0x0
                [!provide]                        PROVIDE (__fini_array_start = .)
 *(SORT_BY_NAME(.fini_array.*))
 *(.fini_array)
                [!provide]                        PROVIDE (__fini_array_end = .)

.ARM.exidx      0x0000000000141ef8        0x8
                0x0000000000141ef8                __exidx_start = .
 *(.ARM.exidx* .gnu.linkonce.armexidx.*)
 .ARM.exidx.text._ZN68_$LT$itron..error..Error$LT$Kind$GT$$u20$as$u20$core..fmt..Debug$GT$3fmt17hbf27c1f9f33347bfE
                0x0000000000141ef8        0x8 ./gen/../tecsrust_uart_led_sample/target/armv7a-none-eabi/release/libitron.a(itron-45c5fd98eb955c4a.itron.9d87066d26af0b75-cgu.0.rcgu.o)
 .ARM.exidx.text._RNvCsgYTF1aGAkck_7___rustc17rust_begin_unwind
                0x0000000000141f00        0x0 ./gen/../tecsrust_uart_led_sample/target/armv7a-none-eabi/release/libitron.a(itron-45c5fd98eb955c4a.itron.9d87066d26af0b75-cgu.0.rcgu.o)
                                          0x8 (size before relaxing)
 .ARM.exidx.text.tecs_rust_start_r_processor1_symmetric_uart_task
                0x0000000000141f00        0x0 ./gen/../tecsrust_uart_led_sample/target/armv7a-none-eabi/release/libitron.a(itron-45c5fd98eb955c4a.itron.9d87066d26af0b75-cgu.0.rcgu.o)
                                          0x8 (size before relaxing)
 .ARM.exidx.text.tecs_rust_start_r_processor2_symmetric_button_task
                0x0000000000141f00        0x0 ./gen/../tecsrust_uart_led_sample/target/armv7a-none-eabi/release/libitron.a(itron-45c5fd98eb955c4a.itron.9d87066d26af0b75-cgu.0.rcgu.o)
                                          0x8 (size before relaxing)
 .ARM.exidx.text.tecs_rust_start_r_processor1_symmetric_uart_isr
                0x0000000000141f00        0x0 ./gen/../tecsrust_uart_led_sample/target/armv7a-none-eabi/release/libitron.a(itron-45c5fd98eb955c4a.itron.9d87066d26af0b75-cgu.0.rcgu.o)
                                          0x8 (size before relaxing)
 .ARM.exidx.text.tecs_rust_start_r_processor1_symmetric_uart_ini
                0x0000000000141f00        0x0 ./gen/../tecsrust_uart_led_sample/target/armv7a-none-eabi/release/libitron.a(itron-45c5fd98eb955c4a.itron.9d87066d26af0b75-cgu.0.rcgu.o)
                                          0x8 (size before relaxing)
 .ARM.exidx.text._ZN4core3fmt3num50_$LT$impl$u20$core..fmt..Debug$u20$for$u20$i32$GT$3fmt17h7a0e08473eadbc5bE
                0x0000000000141f00        0x0 ./gen/../tecsrust_uart_led_sample/target/armv7a-none-eabi/release/libitron.a(itron-fbcb73bf0b635dd5.itron.68e737fdf62a80e5-cgu.0.rcgu.o)
                                          0x8 (size before relaxing)
 .ARM.exidx.text._ZN75_$LT$core..num..nonzero..NonZero$LT$T$GT$$u20$as$u20$core..fmt..Display$GT$3fmt17h850f84802fa3eaddE
                0x0000000000141f00        0x0 ./gen/../tecsrust_uart_led_sample/target/armv7a-none-eabi/release/libitron.a(itron-fbcb73bf0b635dd5.itron.68e737fdf62a80e5-cgu.0.rcgu.o)
                                          0x8 (size before relaxing)
 .ARM.exidx.text._ZN60_$LT$itron..error..ErrorCode$u20$as$u20$core..fmt..Debug$GT$3fmt17hf3b2cd5bb64ff3e9E
                0x0000000000141f00        0x0 ./gen/../tecsrust_uart_led_sample/target/armv7a-none-eabi/release/libitron.a(itron-fbcb73bf0b635dd5.itron.68e737fdf62a80e5-cgu.0.rcgu.o)
                                          0x8 (size before relaxing)
 .ARM.exidx.text._ZN67_$LT$itron..dataqueue..DataqueueRef$u20$as$u20$core..fmt..Debug$GT$3fmt17h5b31219d7835aa6dE
                0x0000000000141f00        0x0 ./gen/../tecsrust_uart_led_sample/target/armv7a-none-eabi/release/libitron.a(itron-fbcb73bf0b635dd5.itron.68e737fdf62a80e5-cgu.0.rcgu.o)
                                          0x8 (size before relaxing)
 .ARM.exidx.text._ZN69_$LT$itron..memorypool..MemoryPoolRef$u20$as$u20$core..fmt..Debug$GT$3fmt17h802347f6fdaf37b2E
                0x0000000000141f00        0x0 ./gen/../tecsrust_uart_led_sample/target/armv7a-none-eabi/release/libitron.a(itron-fbcb73bf0b635dd5.itron.68e737fdf62a80e5-cgu.0.rcgu.o)
                                          0x8 (size before relaxing)
 .ARM.exidx.text._ZN59_$LT$itron..mutex..MutexRef$u20$as$u20$core..fmt..Debug$GT$3fmt17h6a8d309fd5365a8bE
                0x0000000000141f00        0x0 ./gen/../tecsrust_uart_led_sample/target/armv7a-none-eabi/release/libitron.a(itron-fbcb73bf0b635dd5.itron.68e737fdf62a80e5-cgu.0.rcgu.o)
                                          0x8 (size before relaxing)
 .ARM.exidx.text._ZN64_$LT$itron..processor..Processor$u20$as$u20$core..fmt..Debug$GT$3fmt17hc75d9d03a1c196fbE
                0x0000000000141f00        0x0 ./gen/../tecsrust_uart_led_sample/target/armv7a-none-eabi/release/libitron.a(itron-fbcb73bf0b635dd5.itron.68e737fdf62a80e5-cgu.0.rcgu.o)
                                          0x8 (size before relaxing)
 .ARM.exidx.text._ZN67_$LT$itron..semaphore..SemaphoreRef$u20$as$u20$core..fmt..Debug$GT$3fmt17haf2e3079afc34cfaE
                0x0000000000141f00        0x0 ./gen/../tecsrust_uart_led_sample/target/armv7a-none-eabi/release/libitron.a(itron-fbcb73bf0b635dd5.itron.68e737fdf62a80e5-cgu.0.rcgu.o)
                                          0x8 (size before relaxing)
 .ARM.exidx.text._ZN57_$LT$itron..task..TaskRef$u20$as$u20$core..fmt..Debug$GT$3fmt17h29082a565a1f7a0fE
                0x0000000000141f00        0x0 ./gen/../tecsrust_uart_led_sample/target/armv7a-none-eabi/release/libitron.a(itron-fbcb73bf0b635dd5.itron.68e737fdf62a80e5-cgu.0.rcgu.o)
                                          0x8 (size before relaxing)
 .ARM.exidx.text._ZN5itron4task7current17he5bb96fe6f36c460E
                0x0000000000141f00        0x0 ./gen/../tecsrust_uart_led_sample/target/armv7a-none-eabi/release/libitron.a(itron-fbcb73bf0b635dd5.itron.68e737fdf62a80e5-cgu.0.rcgu.o)
                                          0x8 (size before relaxing)
 .ARM.exidx.text._ZN4core3num7dec2flt11decimal_seq10DecimalSeq4trim17h5efee5ea5ccf409eE
                0x0000000000141f00        0x0 ./gen/../tecsrust_uart_led_sample/target/armv7a-none-eabi/release/libitron.a(core-d049573bc16596f9.core.5587a85061e7188a-cgu.0.rcgu.o)
                                          0x8 (size before relaxing)
 .ARM.exidx.text._ZN4core3num7dec2flt11decimal_seq10DecimalSeq5round17h25fcaa510171f10cE
                0x0000000000141f00        0x0 ./gen/../tecsrust_uart_led_sample/target/armv7a-none-eabi/release/libitron.a(core-d049573bc16596f9.core.5587a85061e7188a-cgu.0.rcgu.o)
                                          0x8 (size before relaxing)
 .ARM.exidx.text._ZN4core3num7dec2flt11decimal_seq10DecimalSeq10left_shift17hc6cf7434fa18fb28E
                0x0000000000141f00        0x0 ./gen/../tecsrust_uart_led_sample/target/armv7a-none-eabi/release/libitron.a(core-d049573bc16596f9.core.5587a85061e7188a-cgu.0.rcgu.o)
                                          0x8 (size before relaxing)
 .ARM.exidx.text._ZN4core3num7dec2flt11decimal_seq10DecimalSeq11right_shift17hb4403252d794ad85E
                0x0000000000141f00        0x0 ./gen/../tecsrust_uart_led_sample/target/armv7a-none-eabi/release/libitron.a(core-d049573bc16596f9.core.5587a85061e7188a-cgu.0.rcgu.o)
                                          0x8 (size before relaxing)
 .ARM.exidx.text._ZN4core3num7dec2flt11decimal_seq17parse_decimal_seq17h720ae35c33f1ca0cE
                0x0000000000141f00        0x0 ./gen/../tecsrust_uart_led_sample/target/armv7a-none-eabi/release/libitron.a(core-d049573bc16596f9.core.5587a85061e7188a-cgu.0.rcgu.o)
                                          0x8 (size before relaxing)
 .ARM.exidx.text._ZN59_$LT$f32$u20$as$u20$core..num..dec2flt..float..RawFloat$GT$15pow10_fast_path17h6e48b725f9e4ea17E
                0x0000000000141f00        0x0 ./gen/../tecsrust_uart_led_sample/target/armv7a-none-eabi/release/libitron.a(core-d049573bc16596f9.core.5587a85061e7188a-cgu.0.rcgu.o)
                                          0x8 (size before relaxing)
 .ARM.exidx.text._ZN59_$LT$f64$u20$as$u20$core..num..dec2flt..float..RawFloat$GT$15pow10_fast_path17h11f46422e910817bE
                0x0000000000141f00        0x0 ./gen/../tecsrust_uart_led_sample/target/armv7a-none-eabi/release/libitron.a(core-d049573bc16596f9.core.5587a85061e7188a-cgu.0.rcgu.o)
                                          0x8 (size before relaxing)
 .ARM.exidx.text._ZN4core3num7dec2flt6lemire13compute_float17h16a9ae03feeaa31dE
                0x0000000000141f00        0x0 ./gen/../tecsrust_uart_led_sample/target/armv7a-none-eabi/release/libitron.a(core-d049573bc16596f9.core.5587a85061e7188a-cgu.0.rcgu.o)
                                          0x8 (size before relaxing)
 .ARM.exidx.text._ZN4core3num7dec2flt6lemire13compute_float17h6afe090d7f4e8ea6E
                0x0000000000141f00        0x0 ./gen/../tecsrust_uart_led_sample/target/armv7a-none-eabi/release/libitron.a(core-d049573bc16596f9.core.5587a85061e7188a-cgu.0.rcgu.o)
                                          0x8 (size before relaxing)
 .ARM.exidx.text._ZN4core3num7dec2flt6lemire13compute_float17ha99c48ca86bcebfaE
                0x0000000000141f00        0x0 ./gen/../tecsrust_uart_led_sample/target/armv7a-none-eabi/release/libitron.a(core-d049573bc16596f9.core.5587a85061e7188a-cgu.0.rcgu.o)
                                          0x8 (size before relaxing)
 .ARM.exidx.text._ZN4core3num7dec2flt6lemire22compute_product_approx17h46540bfe977aa735E
                0x0000000000141f00        0x0 ./gen/../tecsrust_uart_led_sample/target/armv7a-none-eabi/release/libitron.a(core-d049573bc16596f9.core.5587a85061e7188a-cgu.0.rcgu.o)
                                          0x8 (size before relaxing)
 .ARM.exidx.text._ZN4core3num7dec2flt5parse12parse_number17hac599539be123f0aE
                0x0000000000141f00        0x0 ./gen/../tecsrust_uart_led_sample/target/armv7a-none-eabi/release/libitron.a(core-d049573bc16596f9.core.5587a85061e7188a-cgu.0.rcgu.o)
                                          0x8 (size before relaxing)
 .ARM.exidx.text._ZN74_$LT$core..num..dec2flt..ParseFloatError$u20$as$u20$core..fmt..Display$GT$3fmt17he75ae9ab1989a457E
                0x0000000000141f00        0x0 ./gen/../tecsrust_uart_led_sample/target/armv7a-none-eabi/release/libitron.a(core-d049573bc16596f9.core.5587a85061e7188a-cgu.0.rcgu.o)
                                          0x8 (size before relaxing)
 .ARM.exidx.text._ZN4core3num9diy_float2Fp3mul17h224020beff8dcf6eE
                0x0000000000141f00        0x0 ./gen/../tecsrust_uart_led_sample/target/armv7a-none-eabi/release/libitron.a(core-d049573bc16596f9.core.5587a85061e7188a-cgu.0.rcgu.o)
                                          0x8 (size before relaxing)
 .ARM.exidx.text._ZN4core3num9diy_float2Fp9normalize17h769495316c3164f0E
                0x0000000000141f00        0x0 ./gen/../tecsrust_uart_led_sample/target/armv7a-none-eabi/release/libitron.a(core-d049573bc16596f9.core.5587a85061e7188a-cgu.0.rcgu.o)
                                          0x8 (size before relaxing)
 .ARM.exidx.text._ZN4core3num9diy_float2Fp12normalize_to17h65a8e137fe2a9b34E
                0x0000000000141f00        0x0 ./gen/../tecsrust_uart_led_sample/target/armv7a-none-eabi/release/libitron.a(core-d049573bc16596f9.core.5587a85061e7188a-cgu.0.rcgu.o)
                                          0x8 (size before relaxing)
 .ARM.exidx.text._ZN4core3num7flt2dec9estimator23estimate_scaling_factor17h5aed770e3586ed17E
                0x0000000000141f00        0x0 ./gen/../tecsrust_uart_led_sample/target/armv7a-none-eabi/release/libitron.a(core-d049573bc16596f9.core.5587a85061e7188a-cgu.0.rcgu.o)
                                          0x8 (size before relaxing)
 .ARM.exidx.text._ZN4core3num7flt2dec8strategy6dragon9mul_pow1017h8de41a198f06ceffE
                0x0000000000141f00        0x0 ./gen/../tecsrust_uart_led_sample/target/armv7a-none-eabi/release/libitron.a(core-d049573bc16596f9.core.5587a85061e7188a-cgu.0.rcgu.o)
                                          0x8 (size before relaxing)
 .ARM.exidx.text._ZN4core3num7flt2dec8strategy6dragon15format_shortest17hb5e0ae7b6971114eE
                0x0000000000141f00        0x0 ./gen/../tecsrust_uart_led_sample/target/armv7a-none-eabi/release/libitron.a(core-d049573bc16596f9.core.5587a85061e7188a-cgu.0.rcgu.o)
                                          0x8 (size before relaxing)
 .ARM.exidx.text._ZN4core3num7flt2dec8strategy6dragon12format_exact17h413b0182ae77793eE
                0x0000000000141f00        0x0 ./gen/../tecsrust_uart_led_sample/target/armv7a-none-eabi/release/libitron.a(core-d049573bc16596f9.core.5587a85061e7188a-cgu.0.rcgu.o)
                                          0x8 (size before relaxing)
 .ARM.exidx.text._ZN4core3num7flt2dec8strategy5grisu12cached_power17h40510fc142d30e5bE
                0x0000000000141f00        0x0 ./gen/../tecsrust_uart_led_sample/target/armv7a-none-eabi/release/libitron.a(core-d049573bc16596f9.core.5587a85061e7188a-cgu.0.rcgu.o)
                                          0x8 (size before relaxing)
 .ARM.exidx.text._ZN4core3num7flt2dec8strategy5grisu19format_shortest_opt17ha7dc55675409a111E
                0x0000000000141f00        0x0 ./gen/../tecsrust_uart_led_sample/target/armv7a-none-eabi/release/libitron.a(core-d049573bc16596f9.core.5587a85061e7188a-cgu.0.rcgu.o)
                                          0x8 (size before relaxing)
 .ARM.exidx.text._ZN4core3num7flt2dec8strategy5grisu15format_shortest17hcc7bcdc55f306e7cE
                0x0000000000141f00        0x0 ./gen/../tecsrust_uart_led_sample/target/armv7a-none-eabi/release/libitron.a(core-d049573bc16596f9.core.5587a85061e7188a-cgu.0.rcgu.o)
                                          0x8 (size before relaxing)
 .ARM.exidx.text._ZN4core3num7flt2dec8strategy5grisu16format_exact_opt17h10c7733a2f424f87E
                0x0000000000141f00        0x0 ./gen/../tecsrust_uart_led_sample/target/armv7a-none-eabi/release/libitron.a(core-d049573bc16596f9.core.5587a85061e7188a-cgu.0.rcgu.o)
                                          0x8 (size before relaxing)
 .ARM.exidx.text._ZN4core3num7flt2dec8strategy5grisu16format_exact_opt14possibly_round17h324fa6da31e0b7a0E
                0x0000000000141f00        0x0 ./gen/../tecsrust_uart_led_sample/target/armv7a-none-eabi/release/libitron.a(core-d049573bc16596f9.core.5587a85061e7188a-cgu.0.rcgu.o)
                                          0x8 (size before relaxing)
 .ARM.exidx.text._ZN4core3num7flt2dec8strategy5grisu12format_exact17h78d277690b9100bfE
                0x0000000000141f00        0x0 ./gen/../tecsrust_uart_led_sample/target/armv7a-none-eabi/release/libitron.a(core-d049573bc16596f9.core.5587a85061e7188a-cgu.0.rcgu.o)
                                          0x8 (size before relaxing)
 .ARM.exidx.text._ZN4core3num7flt2dec8round_up17hdfef968791b3b8f1E
                0x0000000000141f00        0x0 ./gen/../tecsrust_uart_led_sample/target/armv7a-none-eabi/release/libitron.a(core-d049573bc16596f9.core.5587a85061e7188a-cgu.0.rcgu.o)
                                          0x8 (size before relaxing)
 .ARM.exidx.text._ZN4core3num7flt2dec17digits_to_dec_str17h4ef03e8f4c666413E
                0x0000000000141f00        0x0 ./gen/../tecsrust_uart_led_sample/target/armv7a-none-eabi/release/libitron.a(core-d049573bc16596f9.core.5587a85061e7188a-cgu.0.rcgu.o)
                                          0x8 (size before relaxing)
 .ARM.exidx.text._ZN4core3num7flt2dec17digits_to_exp_str17hc40222548b9d8bc0E
                0x0000000000141f00        0x0 ./gen/../tecsrust_uart_led_sample/target/armv7a-none-eabi/release/libitron.a(core-d049573bc16596f9.core.5587a85061e7188a-cgu.0.rcgu.o)
                                          0x8 (size before relaxing)
 .ARM.exidx.text._ZN4core3num3fmt4Part5write17h5157de02cd0761b1E
                0x0000000000141f00        0x0 ./gen/../tecsrust_uart_led_sample/target/armv7a-none-eabi/release/libitron.a(core-d049573bc16596f9.core.5587a85061e7188a-cgu.0.rcgu.o)
                                          0x8 (size before relaxing)
 .ARM.exidx.text._ZN4core3num3fmt9Formatted3len17ha07e1e9353604e1bE
                0x0000000000141f00        0x0 ./gen/../tecsrust_uart_led_sample/target/armv7a-none-eabi/release/libitron.a(core-d049573bc16596f9.core.5587a85061e7188a-cgu.0.rcgu.o)
                                          0x8 (size before relaxing)
 .ARM.exidx.text._ZN4core3num3fmt9Formatted5write17h99ed3f4f2997298bE
                0x0000000000141f00        0x0 ./gen/../tecsrust_uart_led_sample/target/armv7a-none-eabi/release/libitron.a(core-d049573bc16596f9.core.5587a85061e7188a-cgu.0.rcgu.o)
                                          0x8 (size before relaxing)
 .ARM.exidx.text._ZN72_$LT$core..num..error..TryFromIntError$u20$as$u20$core..fmt..Display$GT$3fmt17hce3ba6a6f2a6094bE
                0x0000000000141f00        0x0 ./gen/../tecsrust_uart_led_sample/target/armv7a-none-eabi/release/libitron.a(core-d049573bc16596f9.core.5587a85061e7188a-cgu.0.rcgu.o)
                                          0x8 (size before relaxing)
 .ARM.exidx.text._ZN70_$LT$core..num..error..ParseIntError$u20$as$u20$core..fmt..Display$GT$3fmt17hbaea7be47c23092bE
                0x0000000000141f00        0x0 ./gen/../tecsrust_uart_led_sample/target/armv7a-none-eabi/release/libitron.a(core-d049573bc16596f9.core.5587a85061e7188a-cgu.0.rcgu.o)
                                          0x8 (size before relaxing)
 .ARM.exidx.text.unlikely._ZN4core3num9int_log1030panic_for_nonpositive_argument17h1277070ab48dc16bE
                0x0000000000141f00        0x0 ./gen/../tecsrust_uart_led_sample/target/armv7a-none-eabi/release/libitron.a(core-d049573bc16596f9.core.5587a85061e7188a-cgu.0.rcgu.o)
                                          0x8 (size before relaxing)
 .ARM.exidx.text.unlikely._ZN4core3num8int_sqrt27panic_for_negative_argument17h646ece1cae3b97dbE
                0x0000000000141f00        0x0 ./gen/../tecsrust_uart_led_sample/target/armv7a-none-eabi/release/libitron.a(core-d049573bc16596f9.core.5587a85061e7188a-cgu.0.rcgu.o)
                                          0x8 (size before relaxing)
 .ARM.exidx.text.unlikely._ZN4core3num14overflow_panic3add17hf194787efb41c60bE
                0x0000000000141f00        0x0 ./gen/../tecsrust_uart_led_sample/target/armv7a-none-eabi/release/libitron.a(core-d049573bc16596f9.core.5587a85061e7188a-cgu.0.rcgu.o)
                                          0x8 (size before relaxing)
 .ARM.exidx.text.unlikely._ZN4core3num14overflow_panic3sub17he2e76c1521f0700fE
                0x0000000000141f00        0x0 ./gen/../tecsrust_uart_led_sample/target/armv7a-none-eabi/release/libitron.a(core-d049573bc16596f9.core.5587a85061e7188a-cgu.0.rcgu.o)
                                          0x8 (size before relaxing)
 .ARM.exidx.text.unlikely._ZN4core3num14overflow_panic3mul17h60bfb5e03c5b71e3E
                0x0000000000141f00        0x0 ./gen/../tecsrust_uart_led_sample/target/armv7a-none-eabi/release/libitron.a(core-d049573bc16596f9.core.5587a85061e7188a-cgu.0.rcgu.o)
                                          0x8 (size before relaxing)
 .ARM.exidx.text.unlikely._ZN4core3num14overflow_panic3div17h31ae6e9c5fc383d9E
                0x0000000000141f00        0x0 ./gen/../tecsrust_uart_led_sample/target/armv7a-none-eabi/release/libitron.a(core-d049573bc16596f9.core.5587a85061e7188a-cgu.0.rcgu.o)
                                          0x8 (size before relaxing)
 .ARM.exidx.text.unlikely._ZN4core3num14overflow_panic3rem17h60333cfee06b13cdE
                0x0000000000141f00        0x0 ./gen/../tecsrust_uart_led_sample/target/armv7a-none-eabi/release/libitron.a(core-d049573bc16596f9.core.5587a85061e7188a-cgu.0.rcgu.o)
                                          0x8 (size before relaxing)
 .ARM.exidx.text.unlikely._ZN4core3num14overflow_panic3neg17h94a197b7d7b20279E
                0x0000000000141f00        0x0 ./gen/../tecsrust_uart_led_sample/target/armv7a-none-eabi/release/libitron.a(core-d049573bc16596f9.core.5587a85061e7188a-cgu.0.rcgu.o)
                                          0x8 (size before relaxing)
 .ARM.exidx.text.unlikely._ZN4core3num14overflow_panic3shr17h1944cb74e27c390cE
                0x0000000000141f00        0x0 ./gen/../tecsrust_uart_led_sample/target/armv7a-none-eabi/release/libitron.a(core-d049573bc16596f9.core.5587a85061e7188a-cgu.0.rcgu.o)
                                          0x8 (size before relaxing)
 .ARM.exidx.text.unlikely._ZN4core3num14overflow_panic3shl17hc7ecc243b6763a66E
                0x0000000000141f00        0x0 ./gen/../tecsrust_uart_led_sample/target/armv7a-none-eabi/release/libitron.a(core-d049573bc16596f9.core.5587a85061e7188a-cgu.0.rcgu.o)
                                          0x8 (size before relaxing)
 .ARM.exidx.text.unlikely._ZN4core3num22from_ascii_radix_panic17h345174f03d72ebe3E
                0x0000000000141f00        0x0 ./gen/../tecsrust_uart_led_sample/target/armv7a-none-eabi/release/libitron.a(core-d049573bc16596f9.core.5587a85061e7188a-cgu.0.rcgu.o)
                                          0x8 (size before relaxing)
 .ARM.exidx.text._ZN76_$LT$core..mem..transmutability..Assume$u20$as$u20$core..ops..arith..Sub$GT$3sub17h21ed15b6645713d8E
                0x0000000000141f00        0x0 ./gen/../tecsrust_uart_led_sample/target/armv7a-none-eabi/release/libitron.a(core-d049573bc16596f9.core.5587a85061e7188a-cgu.0.rcgu.o)
                                          0x8 (size before relaxing)
 .ARM.exidx.text._ZN68_$LT$core..ptr..alignment..Alignment$u20$as$u20$core..fmt..Debug$GT$3fmt17hd2f4df9dbd6e2f86E
                0x0000000000141f00        0x0 ./gen/../tecsrust_uart_led_sample/target/armv7a-none-eabi/release/libitron.a(core-d049573bc16596f9.core.5587a85061e7188a-cgu.0.rcgu.o)
                                          0x8 (size before relaxing)
 .ARM.exidx.text._ZN69_$LT$core..ffi..c_str..CStr$u20$as$u20$core..clone..CloneToUninit$GT$15clone_to_uninit17h80a4ef3d92070d94E
                0x0000000000141f00        0x0 ./gen/../tecsrust_uart_led_sample/target/armv7a-none-eabi/release/libitron.a(core-d049573bc16596f9.core.5587a85061e7188a-cgu.0.rcgu.o)
                                          0x8 (size before relaxing)
 .ARM.exidx.text._ZN57_$LT$core..error..Request$u20$as$u20$core..fmt..Debug$GT$3fmt17h5f561f753496d82cE
                0x0000000000141f00        0x0 ./gen/../tecsrust_uart_led_sample/target/armv7a-none-eabi/release/libitron.a(core-d049573bc16596f9.core.5587a85061e7188a-cgu.0.rcgu.o)
                                          0x8 (size before relaxing)
 .ARM.exidx.text._ZN78_$LT$core..error..Source$u20$as$u20$core..iter..traits..iterator..Iterator$GT$4next17h4a1fc4a2554e7eceE
                0x0000000000141f00        0x0 ./gen/../tecsrust_uart_led_sample/target/armv7a-none-eabi/release/libitron.a(core-d049573bc16596f9.core.5587a85061e7188a-cgu.0.rcgu.o)
                                          0x8 (size before relaxing)
 .ARM.exidx.text._ZN64_$LT$core..ops..range..RangeFull$u20$as$u20$core..fmt..Debug$GT$3fmt17h424403ffd1288619E
                0x0000000000141f00        0x0 ./gen/../tecsrust_uart_led_sample/target/armv7a-none-eabi/release/libitron.a(core-d049573bc16596f9.core.5587a85061e7188a-cgu.0.rcgu.o)
                                          0x8 (size before relaxing)
 .ARM.exidx.text._ZN71_$LT$core..ops..range..Range$LT$Idx$GT$$u20$as$u20$core..fmt..Debug$GT$3fmt17ha953e6102122b0f8E
                0x0000000000141f00        0x0 ./gen/../tecsrust_uart_led_sample/target/armv7a-none-eabi/release/libitron.a(core-d049573bc16596f9.core.5587a85061e7188a-cgu.0.rcgu.o)
                                          0x8 (size before relaxing)
 .ARM.exidx.text._ZN105_$LT$dyn$u20$core..any..Any$u2b$core..marker..Sync$u2b$core..marker..Send$u20$as$u20$core..fmt..Debug$GT$3fmt17habd8592b3ad60da5E
                0x0000000000141f00        0x0 ./gen/../tecsrust_uart_led_sample/target/armv7a-none-eabi/release/libitron.a(core-d049573bc16596f9.core.5587a85061e7188a-cgu.0.rcgu.o)
                                          0x8 (size before relaxing)
 .ARM.exidx.text._ZN54_$LT$core..any..TypeId$u20$as$u20$core..fmt..Debug$GT$3fmt17h85ceed27d8f181fdE
                0x0000000000141f00        0x0 ./gen/../tecsrust_uart_led_sample/target/armv7a-none-eabi/release/libitron.a(core-d049573bc16596f9.core.5587a85061e7188a-cgu.0.rcgu.o)
                                          0x8 (size before relaxing)
 .ARM.exidx.text._ZN73_$LT$core..ascii..ascii_char..AsciiChar$u20$as$u20$core..fmt..Display$GT$3fmt17h8431bf4e4f9d1f68E
                0x0000000000141f00        0x0 ./gen/../tecsrust_uart_led_sample/target/armv7a-none-eabi/release/libitron.a(core-d049573bc16596f9.core.5587a85061e7188a-cgu.0.rcgu.o)
                                          0x8 (size before relaxing)
 .ARM.exidx.text._ZN71_$LT$core..ascii..ascii_char..AsciiChar$u20$as$u20$core..fmt..Debug$GT$3fmt17h177c64a4e196f32cE
                0x0000000000141f00        0x0 ./gen/../tecsrust_uart_led_sample/target/armv7a-none-eabi/release/libitron.a(core-d049573bc16596f9.core.5587a85061e7188a-cgu.0.rcgu.o)
                                          0x8 (size before relaxing)
 .ARM.exidx.text._ZN4core5ascii14escape_default17h981d8e307eaaa916E
                0x0000000000141f00        0x0 ./gen/../tecsrust_uart_led_sample/target/armv7a-none-eabi/release/libitron.a(core-d049573bc16596f9.core.5587a85061e7188a-cgu.0.rcgu.o)
                                          0x8 (size before relaxing)
 .ARM.exidx.text._ZN65_$LT$core..ascii..EscapeDefault$u20$as$u20$core..fmt..Display$GT$3fmt17he735515427ec3f2cE
                0x0000000000141f00        0x0 ./gen/../tecsrust_uart_led_sample/target/armv7a-none-eabi/release/libitron.a(core-d049573bc16596f9.core.5587a85061e7188a-cgu.0.rcgu.o)
                                          0x8 (size before relaxing)
 .ARM.exidx.text._ZN63_$LT$core..ascii..EscapeDefault$u20$as$u20$core..fmt..Debug$GT$3fmt17h46f02f61de5321cbE
                0x0000000000141f00        0x0 ./gen/../tecsrust_uart_led_sample/target/armv7a-none-eabi/release/libitron.a(core-d049573bc16596f9.core.5587a85061e7188a-cgu.0.rcgu.o)
                                          0x8 (size before relaxing)
 .ARM.exidx.text._ZN56_$LT$core..bstr..ByteStr$u20$as$u20$core..fmt..Debug$GT$3fmt17h8b572b2661a1de36E
                0x0000000000141f00        0x0 ./gen/../tecsrust_uart_led_sample/target/armv7a-none-eabi/release/libitron.a(core-d049573bc16596f9.core.5587a85061e7188a-cgu.0.rcgu.o)
                                          0x8 (size before relaxing)
 .ARM.exidx.text._ZN58_$LT$core..bstr..ByteStr$u20$as$u20$core..fmt..Display$GT$3fmt17he4ae28f23ce65a58E
                0x0000000000141f00        0x0 ./gen/../tecsrust_uart_led_sample/target/armv7a-none-eabi/release/libitron.a(core-d049573bc16596f9.core.5587a85061e7188a-cgu.0.rcgu.o)
                                          0x8 (size before relaxing)
 .ARM.exidx.text.unlikely._ZN4core4cell4lazy14panic_poisoned17h8eb5d443042c4736E
                0x0000000000141f00        0x0 ./gen/../tecsrust_uart_led_sample/target/armv7a-none-eabi/release/libitron.a(core-d049573bc16596f9.core.5587a85061e7188a-cgu.0.rcgu.o)
                                          0x8 (size before relaxing)
 .ARM.exidx.text._ZN60_$LT$core..cell..BorrowError$u20$as$u20$core..fmt..Debug$GT$3fmt17h56da770da5e11014E
                0x0000000000141f00        0x0 ./gen/../tecsrust_uart_led_sample/target/armv7a-none-eabi/release/libitron.a(core-d049573bc16596f9.core.5587a85061e7188a-cgu.0.rcgu.o)
                                          0x8 (size before relaxing)
 .ARM.exidx.text._ZN62_$LT$core..cell..BorrowError$u20$as$u20$core..fmt..Display$GT$3fmt17h649aaf4112417b69E
                0x0000000000141f00        0x0 ./gen/../tecsrust_uart_led_sample/target/armv7a-none-eabi/release/libitron.a(core-d049573bc16596f9.core.5587a85061e7188a-cgu.0.rcgu.o)
                                          0x8 (size before relaxing)
 .ARM.exidx.text._ZN63_$LT$core..cell..BorrowMutError$u20$as$u20$core..fmt..Debug$GT$3fmt17h5dd54cc4ab093714E
                0x0000000000141f00        0x0 ./gen/../tecsrust_uart_led_sample/target/armv7a-none-eabi/release/libitron.a(core-d049573bc16596f9.core.5587a85061e7188a-cgu.0.rcgu.o)
                                          0x8 (size before relaxing)
 .ARM.exidx.text._ZN65_$LT$core..cell..BorrowMutError$u20$as$u20$core..fmt..Display$GT$3fmt17h2f7647931a1ef38bE
                0x0000000000141f00        0x0 ./gen/../tecsrust_uart_led_sample/target/armv7a-none-eabi/release/libitron.a(core-d049573bc16596f9.core.5587a85061e7188a-cgu.0.rcgu.o)
                                          0x8 (size before relaxing)
 .ARM.exidx.text.unlikely._ZN4core4cell22panic_already_borrowed17h058b49ead05ac00bE
                0x0000000000141f00        0x0 ./gen/../tecsrust_uart_led_sample/target/armv7a-none-eabi/release/libitron.a(core-d049573bc16596f9.core.5587a85061e7188a-cgu.0.rcgu.o)
                                          0x8 (size before relaxing)
 .ARM.exidx.text.unlikely._ZN4core4cell30panic_already_mutably_borrowed17h9c448cf1bc13461aE
                0x0000000000141f00        0x0 ./gen/../tecsrust_uart_led_sample/target/armv7a-none-eabi/release/libitron.a(core-d049573bc16596f9.core.5587a85061e7188a-cgu.0.rcgu.o)
                                          0x8 (size before relaxing)
 .ARM.exidx.text._ZN74_$LT$core..char..convert..ParseCharError$u20$as$u20$core..fmt..Display$GT$3fmt17hcaa7912ed162bf56E
                0x0000000000141f00        0x0 ./gen/../tecsrust_uart_led_sample/target/armv7a-none-eabi/release/libitron.a(core-d049573bc16596f9.core.5587a85061e7188a-cgu.0.rcgu.o)
                                          0x8 (size before relaxing)
 .ARM.exidx.text._ZN76_$LT$core..char..convert..CharTryFromError$u20$as$u20$core..fmt..Display$GT$3fmt17h19f1ba4eab42fadcE
                0x0000000000141f00        0x0 ./gen/../tecsrust_uart_led_sample/target/armv7a-none-eabi/release/libitron.a(core-d049573bc16596f9.core.5587a85061e7188a-cgu.0.rcgu.o)
                                          0x8 (size before relaxing)
 .ARM.exidx.text._ZN75_$LT$core..char..decode..DecodeUtf16Error$u20$as$u20$core..fmt..Display$GT$3fmt17hdcf3babdf2cfe76aE
                0x0000000000141f00        0x0 ./gen/../tecsrust_uart_led_sample/target/armv7a-none-eabi/release/libitron.a(core-d049573bc16596f9.core.5587a85061e7188a-cgu.0.rcgu.o)
                                          0x8 (size before relaxing)
 .ARM.exidx.text._ZN4core4char7methods22_$LT$impl$u20$char$GT$16escape_debug_ext17hd46ad63d40b7f951E
                0x0000000000141f00        0x0 ./gen/../tecsrust_uart_led_sample/target/armv7a-none-eabi/release/libitron.a(core-d049573bc16596f9.core.5587a85061e7188a-cgu.0.rcgu.o)
                                          0x8 (size before relaxing)
 .ARM.exidx.text._ZN64_$LT$core..char..EscapeDefault$u20$as$u20$core..fmt..Display$GT$3fmt17h38aec28b84124e92E
                0x0000000000141f00        0x0 ./gen/../tecsrust_uart_led_sample/target/armv7a-none-eabi/release/libitron.a(core-d049573bc16596f9.core.5587a85061e7188a-cgu.0.rcgu.o)
                                          0x8 (size before relaxing)
 .ARM.exidx.text._ZN62_$LT$core..char..EscapeDebug$u20$as$u20$core..fmt..Display$GT$3fmt17hafc69afb2cba63d2E
                0x0000000000141f00        0x0 ./gen/../tecsrust_uart_led_sample/target/armv7a-none-eabi/release/libitron.a(core-d049573bc16596f9.core.5587a85061e7188a-cgu.0.rcgu.o)
                                          0x8 (size before relaxing)
 .ARM.exidx.text._ZN86_$LT$core..char..CaseMappingIter$u20$as$u20$core..iter..traits..iterator..Iterator$GT$4next17h387613f301dd4fd8E
                0x0000000000141f00        0x0 ./gen/../tecsrust_uart_led_sample/target/armv7a-none-eabi/release/libitron.a(core-d049573bc16596f9.core.5587a85061e7188a-cgu.0.rcgu.o)
                                          0x8 (size before relaxing)
 .ARM.exidx.text._ZN86_$LT$core..char..CaseMappingIter$u20$as$u20$core..iter..traits..iterator..Iterator$GT$5count17h9c99394d14e09439E
                0x0000000000141f00        0x0 ./gen/../tecsrust_uart_led_sample/target/armv7a-none-eabi/release/libitron.a(core-d049573bc16596f9.core.5587a85061e7188a-cgu.0.rcgu.o)
                                          0x8 (size before relaxing)
 .ARM.exidx.text._ZN86_$LT$core..char..CaseMappingIter$u20$as$u20$core..iter..traits..iterator..Iterator$GT$4last17h4812d7f7192ee524E
                0x0000000000141f00        0x0 ./gen/../tecsrust_uart_led_sample/target/armv7a-none-eabi/release/libitron.a(core-d049573bc16596f9.core.5587a85061e7188a-cgu.0.rcgu.o)
                                          0x8 (size before relaxing)
 .ARM.exidx.text._ZN86_$LT$core..char..CaseMappingIter$u20$as$u20$core..iter..traits..iterator..Iterator$GT$10advance_by17h0f8a06432075b566E
                0x0000000000141f00        0x0 ./gen/../tecsrust_uart_led_sample/target/armv7a-none-eabi/release/libitron.a(core-d049573bc16596f9.core.5587a85061e7188a-cgu.0.rcgu.o)
                                          0x8 (size before relaxing)
 .ARM.exidx.text._ZN86_$LT$core..char..CaseMappingIter$u20$as$u20$core..iter..traits..iterator..Iterator$GT$24__iterator_get_unchecked17hee300516a572f4b8E
                0x0000000000141f00        0x0 ./gen/../tecsrust_uart_led_sample/target/armv7a-none-eabi/release/libitron.a(core-d049573bc16596f9.core.5587a85061e7188a-cgu.0.rcgu.o)
                                          0x8 (size before relaxing)
 .ARM.exidx.text._ZN101_$LT$core..char..CaseMappingIter$u20$as$u20$core..iter..traits..double_ended..DoubleEndedIterator$GT$9next_back17h0013dfa0a23bb5c3E
                0x0000000000141f00        0x0 ./gen/../tecsrust_uart_led_sample/target/armv7a-none-eabi/release/libitron.a(core-d049573bc16596f9.core.5587a85061e7188a-cgu.0.rcgu.o)
                                          0x8 (size before relaxing)
 .ARM.exidx.text._ZN101_$LT$core..char..CaseMappingIter$u20$as$u20$core..iter..traits..double_ended..DoubleEndedIterator$GT$15advance_back_by17h0e7ec4b92a9eb744E
                0x0000000000141f00        0x0 ./gen/../tecsrust_uart_led_sample/target/armv7a-none-eabi/release/libitron.a(core-d049573bc16596f9.core.5587a85061e7188a-cgu.0.rcgu.o)
                                          0x8 (size before relaxing)
 .ARM.exidx.text._ZN67_$LT$core..char..TryFromCharError$u20$as$u20$core..fmt..Display$GT$3fmt17hbf1b0a686f8a1a69E
                0x0000000000141f00        0x0 ./gen/../tecsrust_uart_led_sample/target/armv7a-none-eabi/release/libitron.a(core-d049573bc16596f9.core.5587a85061e7188a-cgu.0.rcgu.o)
                                          0x8 (size before relaxing)
 .ARM.exidx.text._ZN79_$LT$core..ffi..c_str..FromBytesUntilNulError$u20$as$u20$core..fmt..Display$GT$3fmt17h71f2c90ca2a80addE
                0x0000000000141f00        0x0 ./gen/../tecsrust_uart_led_sample/target/armv7a-none-eabi/release/libitron.a(core-d049573bc16596f9.core.5587a85061e7188a-cgu.0.rcgu.o)
                                          0x8 (size before relaxing)
 .ARM.exidx.text._ZN59_$LT$core..ffi..c_str..CStr$u20$as$u20$core..fmt..Debug$GT$3fmt17h36ba4289086816d4E
                0x0000000000141f00        0x0 ./gen/../tecsrust_uart_led_sample/target/armv7a-none-eabi/release/libitron.a(core-d049573bc16596f9.core.5587a85061e7188a-cgu.0.rcgu.o)
                                          0x8 (size before relaxing)
 .ARM.exidx.text._ZN78_$LT$core..ffi..c_str..FromBytesWithNulError$u20$as$u20$core..fmt..Display$GT$3fmt17hd6785df6bd44c25dE
                0x0000000000141f00        0x0 ./gen/../tecsrust_uart_led_sample/target/armv7a-none-eabi/release/libitron.a(core-d049573bc16596f9.core.5587a85061e7188a-cgu.0.rcgu.o)
                                          0x8 (size before relaxing)
 .ARM.exidx.text._ZN4core3ffi5c_str4CStr20from_bytes_until_nul17h223b6a3545723cc2E
                0x0000000000141f00        0x0 ./gen/../tecsrust_uart_led_sample/target/armv7a-none-eabi/release/libitron.a(core-d049573bc16596f9.core.5587a85061e7188a-cgu.0.rcgu.o)
                                          0x8 (size before relaxing)
 .ARM.exidx.text._ZN4core3ffi5c_str4CStr19from_bytes_with_nul17h924bc5b5323bf05eE
                0x0000000000141f00        0x0 ./gen/../tecsrust_uart_led_sample/target/armv7a-none-eabi/release/libitron.a(core-d049573bc16596f9.core.5587a85061e7188a-cgu.0.rcgu.o)
                                          0x8 (size before relaxing)
 .ARM.exidx.text._ZN4core3ffi5c_str4CStr6to_str17hc1faa40fb638a30eE
                0x0000000000141f00        0x0 ./gen/../tecsrust_uart_led_sample/target/armv7a-none-eabi/release/libitron.a(core-d049573bc16596f9.core.5587a85061e7188a-cgu.0.rcgu.o)
                                          0x8 (size before relaxing)
 .ARM.exidx.text._ZN67_$LT$core..ffi..va_list..VaListImpl$u20$as$u20$core..fmt..Debug$GT$3fmt17hd26f911d47b97956E
                0x0000000000141f00        0x0 ./gen/../tecsrust_uart_led_sample/target/armv7a-none-eabi/release/libitron.a(core-d049573bc16596f9.core.5587a85061e7188a-cgu.0.rcgu.o)
                                          0x8 (size before relaxing)
 .ARM.exidx.text._ZN54_$LT$core..ffi..c_void$u20$as$u20$core..fmt..Debug$GT$3fmt17h3b27b77d454a7b00E
                0x0000000000141f00        0x0 ./gen/../tecsrust_uart_led_sample/target/armv7a-none-eabi/release/libitron.a(core-d049573bc16596f9.core.5587a85061e7188a-cgu.0.rcgu.o)
                                          0x8 (size before relaxing)
 .ARM.exidx.text._ZN72_$LT$core..io..borrowed_buf..BorrowedBuf$u20$as$u20$core..fmt..Debug$GT$3fmt17h8c5373e369933a1eE
                0x0000000000141f00        0x0 ./gen/../tecsrust_uart_led_sample/target/armv7a-none-eabi/release/libitron.a(core-d049573bc16596f9.core.5587a85061e7188a-cgu.0.rcgu.o)
                                          0x8 (size before relaxing)
 .ARM.exidx.text._ZN86_$LT$core..net..display_buffer..DisplayBuffer$LT$_$GT$$u20$as$u20$core..fmt..Write$GT$9write_str17h297baed95332eae7E
                0x0000000000141f00        0x0 ./gen/../tecsrust_uart_led_sample/target/armv7a-none-eabi/release/libitron.a(core-d049573bc16596f9.core.5587a85061e7188a-cgu.0.rcgu.o)
                                          0x8 (size before relaxing)
 .ARM.exidx.text._ZN86_$LT$core..net..display_buffer..DisplayBuffer$LT$_$GT$$u20$as$u20$core..fmt..Write$GT$9write_str17h839f220912462241E
                0x0000000000141f00        0x0 ./gen/../tecsrust_uart_led_sample/target/armv7a-none-eabi/release/libitron.a(core-d049573bc16596f9.core.5587a85061e7188a-cgu.0.rcgu.o)
                                          0x8 (size before relaxing)
 .ARM.exidx.text._ZN86_$LT$core..net..display_buffer..DisplayBuffer$LT$_$GT$$u20$as$u20$core..fmt..Write$GT$9write_str17h8badf8473d9a4002E
                0x0000000000141f00        0x0 ./gen/../tecsrust_uart_led_sample/target/armv7a-none-eabi/release/libitron.a(core-d049573bc16596f9.core.5587a85061e7188a-cgu.0.rcgu.o)
                                          0x8 (size before relaxing)
 .ARM.exidx.text._ZN86_$LT$core..net..display_buffer..DisplayBuffer$LT$_$GT$$u20$as$u20$core..fmt..Write$GT$9write_str17hd35c8bb425293b8bE
                0x0000000000141f00        0x0 ./gen/../tecsrust_uart_led_sample/target/armv7a-none-eabi/release/libitron.a(core-d049573bc16596f9.core.5587a85061e7188a-cgu.0.rcgu.o)
                                          0x8 (size before relaxing)
 .ARM.exidx.text._ZN65_$LT$core..net..ip_addr..IpAddr$u20$as$u20$core..fmt..Display$GT$3fmt17h3168c33a3915df90E
                0x0000000000141f00        0x0 ./gen/../tecsrust_uart_led_sample/target/armv7a-none-eabi/release/libitron.a(core-d049573bc16596f9.core.5587a85061e7188a-cgu.0.rcgu.o)
                                          0x8 (size before relaxing)
 .ARM.exidx.text._ZN63_$LT$core..net..ip_addr..IpAddr$u20$as$u20$core..fmt..Debug$GT$3fmt17hfda05f36d5a749a6E
                0x0000000000141f00        0x0 ./gen/../tecsrust_uart_led_sample/target/armv7a-none-eabi/release/libitron.a(core-d049573bc16596f9.core.5587a85061e7188a-cgu.0.rcgu.o)
                                          0x8 (size before relaxing)
 .ARM.exidx.text._ZN67_$LT$core..net..ip_addr..Ipv4Addr$u20$as$u20$core..fmt..Display$GT$3fmt17h8a7f4864e9af7f6bE
                0x0000000000141f00        0x0 ./gen/../tecsrust_uart_led_sample/target/armv7a-none-eabi/release/libitron.a(core-d049573bc16596f9.core.5587a85061e7188a-cgu.0.rcgu.o)
                                          0x8 (size before relaxing)
 .ARM.exidx.text._ZN65_$LT$core..net..ip_addr..Ipv4Addr$u20$as$u20$core..fmt..Debug$GT$3fmt17h6a51679a1ff6e7e2E
                0x0000000000141f00        0x0 ./gen/../tecsrust_uart_led_sample/target/armv7a-none-eabi/release/libitron.a(core-d049573bc16596f9.core.5587a85061e7188a-cgu.0.rcgu.o)
                                          0x8 (size before relaxing)
 .ARM.exidx.text._ZN67_$LT$core..net..ip_addr..Ipv6Addr$u20$as$u20$core..fmt..Display$GT$3fmt17ha09719cd9f4aecf6E
                0x0000000000141f00        0x0 ./gen/../tecsrust_uart_led_sample/target/armv7a-none-eabi/release/libitron.a(core-d049573bc16596f9.core.5587a85061e7188a-cgu.0.rcgu.o)
                                          0x8 (size before relaxing)
 .ARM.exidx.text._ZN67_$LT$core..net..ip_addr..Ipv6Addr$u20$as$u20$core..fmt..Display$GT$3fmt12fmt_subslice17hba89c8432023046dE
                0x0000000000141f00        0x0 ./gen/../tecsrust_uart_led_sample/target/armv7a-none-eabi/release/libitron.a(core-d049573bc16596f9.core.5587a85061e7188a-cgu.0.rcgu.o)
                                          0x8 (size before relaxing)
 .ARM.exidx.text._ZN65_$LT$core..net..ip_addr..Ipv6Addr$u20$as$u20$core..fmt..Debug$GT$3fmt17hd7b6c05483d437dbE
                0x0000000000141f00        0x0 ./gen/../tecsrust_uart_led_sample/target/armv7a-none-eabi/release/libitron.a(core-d049573bc16596f9.core.5587a85061e7188a-cgu.0.rcgu.o)
                                          0x8 (size before relaxing)
 .ARM.exidx.text._ZN4core3net6parser6Parser11read_number28_$u7b$$u7b$closure$u7d$$u7d$17hcfdf77b7d41ca56bE
                0x0000000000141f00        0x0 ./gen/../tecsrust_uart_led_sample/target/armv7a-none-eabi/release/libitron.a(core-d049573bc16596f9.core.5587a85061e7188a-cgu.0.rcgu.o)
                                          0x8 (size before relaxing)
 .ARM.exidx.text._ZN4core3net6parser6Parser14read_ipv4_addr17h3efba67ec1312042E
                0x0000000000141f00        0x0 ./gen/../tecsrust_uart_led_sample/target/armv7a-none-eabi/release/libitron.a(core-d049573bc16596f9.core.5587a85061e7188a-cgu.0.rcgu.o)
                                          0x8 (size before relaxing)
 .ARM.exidx.text._ZN4core3net6parser6Parser14read_ipv6_addr17h54c8b5ef622aafb8E
                0x0000000000141f00        0x0 ./gen/../tecsrust_uart_led_sample/target/armv7a-none-eabi/release/libitron.a(core-d049573bc16596f9.core.5587a85061e7188a-cgu.0.rcgu.o)
                                          0x8 (size before relaxing)
 .ARM.exidx.text._ZN4core3net6parser6Parser14read_ipv6_addr11read_groups17h16f736446e4eaddeE
                0x0000000000141f00        0x0 ./gen/../tecsrust_uart_led_sample/target/armv7a-none-eabi/release/libitron.a(core-d049573bc16596f9.core.5587a85061e7188a-cgu.0.rcgu.o)
                                          0x8 (size before relaxing)
 .ARM.exidx.text._ZN4core3net6parser6Parser19read_socket_addr_v617hb4d45e4b5ba1a4d4E
                0x0000000000141f00        0x0 ./gen/../tecsrust_uart_led_sample/target/armv7a-none-eabi/release/libitron.a(core-d049573bc16596f9.core.5587a85061e7188a-cgu.0.rcgu.o)
                                          0x8 (size before relaxing)
 .ARM.exidx.text._ZN4core3net6parser44_$LT$impl$u20$core..net..ip_addr..IpAddr$GT$11parse_ascii17hd7ed4f332f3caa79E
                0x0000000000141f00        0x0 ./gen/../tecsrust_uart_led_sample/target/armv7a-none-eabi/release/libitron.a(core-d049573bc16596f9.core.5587a85061e7188a-cgu.0.rcgu.o)
                                          0x8 (size before relaxing)
 .ARM.exidx.text._ZN4core3net6parser83_$LT$impl$u20$core..str..traits..FromStr$u20$for$u20$core..net..ip_addr..IpAddr$GT$8from_str17h49e46cb50b46901eE
                0x0000000000141f00        0x0 ./gen/../tecsrust_uart_led_sample/target/armv7a-none-eabi/release/libitron.a(core-d049573bc16596f9.core.5587a85061e7188a-cgu.0.rcgu.o)
                                          0x8 (size before relaxing)
 .ARM.exidx.text._ZN4core3net6parser46_$LT$impl$u20$core..net..ip_addr..Ipv4Addr$GT$11parse_ascii17h8028e1785cb7be5fE
                0x0000000000141f00        0x0 ./gen/../tecsrust_uart_led_sample/target/armv7a-none-eabi/release/libitron.a(core-d049573bc16596f9.core.5587a85061e7188a-cgu.0.rcgu.o)
                                          0x8 (size before relaxing)
 .ARM.exidx.text._ZN4core3net6parser85_$LT$impl$u20$core..str..traits..FromStr$u20$for$u20$core..net..ip_addr..Ipv4Addr$GT$8from_str17hc3217d4e0e33b7d5E
                0x0000000000141f00        0x0 ./gen/../tecsrust_uart_led_sample/target/armv7a-none-eabi/release/libitron.a(core-d049573bc16596f9.core.5587a85061e7188a-cgu.0.rcgu.o)
                                          0x8 (size before relaxing)
 .ARM.exidx.text._ZN4core3net6parser46_$LT$impl$u20$core..net..ip_addr..Ipv6Addr$GT$11parse_ascii17h767d275eb73823beE
                0x0000000000141f00        0x0 ./gen/../tecsrust_uart_led_sample/target/armv7a-none-eabi/release/libitron.a(core-d049573bc16596f9.core.5587a85061e7188a-cgu.0.rcgu.o)
                                          0x8 (size before relaxing)
 .ARM.exidx.text._ZN4core3net6parser85_$LT$impl$u20$core..str..traits..FromStr$u20$for$u20$core..net..ip_addr..Ipv6Addr$GT$8from_str17h685b7483d3d506d7E
                0x0000000000141f00        0x0 ./gen/../tecsrust_uart_led_sample/target/armv7a-none-eabi/release/libitron.a(core-d049573bc16596f9.core.5587a85061e7188a-cgu.0.rcgu.o)
                                          0x8 (size before relaxing)
 .ARM.exidx.text._ZN4core3net6parser54_$LT$impl$u20$core..net..socket_addr..SocketAddrV4$GT$11parse_ascii17hc07de5cf09e25fb1E
                0x0000000000141f00        0x0 ./gen/../tecsrust_uart_led_sample/target/armv7a-none-eabi/release/libitron.a(core-d049573bc16596f9.core.5587a85061e7188a-cgu.0.rcgu.o)
                                          0x8 (size before relaxing)
 .ARM.exidx.text._ZN4core3net6parser93_$LT$impl$u20$core..str..traits..FromStr$u20$for$u20$core..net..socket_addr..SocketAddrV4$GT$8from_str17h5883a36bbe26488dE
                0x0000000000141f00        0x0 ./gen/../tecsrust_uart_led_sample/target/armv7a-none-eabi/release/libitron.a(core-d049573bc16596f9.core.5587a85061e7188a-cgu.0.rcgu.o)
                                          0x8 (size before relaxing)
 .ARM.exidx.text._ZN4core3net6parser54_$LT$impl$u20$core..net..socket_addr..SocketAddrV6$GT$11parse_ascii17hbe6498756ef255a7E
                0x0000000000141f00        0x0 ./gen/../tecsrust_uart_led_sample/target/armv7a-none-eabi/release/libitron.a(core-d049573bc16596f9.core.5587a85061e7188a-cgu.0.rcgu.o)
                                          0x8 (size before relaxing)
 .ARM.exidx.text._ZN4core3net6parser93_$LT$impl$u20$core..str..traits..FromStr$u20$for$u20$core..net..socket_addr..SocketAddrV6$GT$8from_str17hf8a18b6a5bf3759eE
                0x0000000000141f00        0x0 ./gen/../tecsrust_uart_led_sample/target/armv7a-none-eabi/release/libitron.a(core-d049573bc16596f9.core.5587a85061e7188a-cgu.0.rcgu.o)
                                          0x8 (size before relaxing)
 .ARM.exidx.text._ZN4core3net6parser52_$LT$impl$u20$core..net..socket_addr..SocketAddr$GT$11parse_ascii17h32c0686e61a62a97E
                0x0000000000141f00        0x0 ./gen/../tecsrust_uart_led_sample/target/armv7a-none-eabi/release/libitron.a(core-d049573bc16596f9.core.5587a85061e7188a-cgu.0.rcgu.o)
                                          0x8 (size before relaxing)
 .ARM.exidx.text._ZN4core3net6parser91_$LT$impl$u20$core..str..traits..FromStr$u20$for$u20$core..net..socket_addr..SocketAddr$GT$8from_str17he89fdbe831fc4256E
                0x0000000000141f00        0x0 ./gen/../tecsrust_uart_led_sample/target/armv7a-none-eabi/release/libitron.a(core-d049573bc16596f9.core.5587a85061e7188a-cgu.0.rcgu.o)
                                          0x8 (size before relaxing)
 .ARM.exidx.text._ZN72_$LT$core..net..parser..AddrParseError$u20$as$u20$core..fmt..Display$GT$3fmt17hd7f7df04664d2864E
                0x0000000000141f00        0x0 ./gen/../tecsrust_uart_led_sample/target/armv7a-none-eabi/release/libitron.a(core-d049573bc16596f9.core.5587a85061e7188a-cgu.0.rcgu.o)
                                          0x8 (size before relaxing)
 .ARM.exidx.text._ZN73_$LT$core..net..socket_addr..SocketAddr$u20$as$u20$core..fmt..Display$GT$3fmt17hd0e981e04411525aE
                0x0000000000141f00        0x0 ./gen/../tecsrust_uart_led_sample/target/armv7a-none-eabi/release/libitron.a(core-d049573bc16596f9.core.5587a85061e7188a-cgu.0.rcgu.o)
                                          0x8 (size before relaxing)
 .ARM.exidx.text._ZN71_$LT$core..net..socket_addr..SocketAddr$u20$as$u20$core..fmt..Debug$GT$3fmt17hd95cf7ae4353c951E
                0x0000000000141f00        0x0 ./gen/../tecsrust_uart_led_sample/target/armv7a-none-eabi/release/libitron.a(core-d049573bc16596f9.core.5587a85061e7188a-cgu.0.rcgu.o)
                                          0x8 (size before relaxing)
 .ARM.exidx.text._ZN75_$LT$core..net..socket_addr..SocketAddrV4$u20$as$u20$core..fmt..Display$GT$3fmt17hb358e369cb8dcc74E
                0x0000000000141f00        0x0 ./gen/../tecsrust_uart_led_sample/target/armv7a-none-eabi/release/libitron.a(core-d049573bc16596f9.core.5587a85061e7188a-cgu.0.rcgu.o)
                                          0x8 (size before relaxing)
 .ARM.exidx.text._ZN73_$LT$core..net..socket_addr..SocketAddrV4$u20$as$u20$core..fmt..Debug$GT$3fmt17h47d2c03dbc6abbf5E
                0x0000000000141f00        0x0 ./gen/../tecsrust_uart_led_sample/target/armv7a-none-eabi/release/libitron.a(core-d049573bc16596f9.core.5587a85061e7188a-cgu.0.rcgu.o)
                                          0x8 (size before relaxing)
 .ARM.exidx.text._ZN75_$LT$core..net..socket_addr..SocketAddrV6$u20$as$u20$core..fmt..Display$GT$3fmt17hb242d5ced67c2003E
                0x0000000000141f00        0x0 ./gen/../tecsrust_uart_led_sample/target/armv7a-none-eabi/release/libitron.a(core-d049573bc16596f9.core.5587a85061e7188a-cgu.0.rcgu.o)
                                          0x8 (size before relaxing)
 .ARM.exidx.text._ZN73_$LT$core..net..socket_addr..SocketAddrV6$u20$as$u20$core..fmt..Debug$GT$3fmt17h008793ff64f0e572E
                0x0000000000141f00        0x0 ./gen/../tecsrust_uart_led_sample/target/armv7a-none-eabi/release/libitron.a(core-d049573bc16596f9.core.5587a85061e7188a-cgu.0.rcgu.o)
                                          0x8 (size before relaxing)
 .ARM.exidx.text.unlikely._ZN4core6option13unwrap_failed17h39a76a4d9e444e97E
                0x0000000000141f00        0x0 ./gen/../tecsrust_uart_led_sample/target/armv7a-none-eabi/release/libitron.a(core-d049573bc16596f9.core.5587a85061e7188a-cgu.0.rcgu.o)
                                          0x8 (size before relaxing)
 .ARM.exidx.text.unlikely._ZN4core6option13expect_failed17hf032828b69e8f9cdE
                0x0000000000141f00        0x0 ./gen/../tecsrust_uart_led_sample/target/armv7a-none-eabi/release/libitron.a(core-d049573bc16596f9.core.5587a85061e7188a-cgu.0.rcgu.o)
                                          0x8 (size before relaxing)
 .ARM.exidx.text._ZN73_$LT$core..panic..panic_info..PanicInfo$u20$as$u20$core..fmt..Display$GT$3fmt17he8ae0930573845dbE
                0x0000000000141f00        0x0 ./gen/../tecsrust_uart_led_sample/target/armv7a-none-eabi/release/libitron.a(core-d049573bc16596f9.core.5587a85061e7188a-cgu.0.rcgu.o)
                                          0x8 (size before relaxing)
 .ARM.exidx.text.unlikely._ZN4core9panicking9panic_fmt17h5145975cf535bc42E
                0x0000000000141f00        0x0 ./gen/../tecsrust_uart_led_sample/target/armv7a-none-eabi/release/libitron.a(core-d049573bc16596f9.core.5587a85061e7188a-cgu.0.rcgu.o)
                                          0x8 (size before relaxing)
 .ARM.exidx.text.unlikely._ZN4core9panicking18panic_nounwind_fmt17h7e174a309b689b0fE
                0x0000000000141f00        0x0 ./gen/../tecsrust_uart_led_sample/target/armv7a-none-eabi/release/libitron.a(core-d049573bc16596f9.core.5587a85061e7188a-cgu.0.rcgu.o)
                                          0x8 (size before relaxing)
 .ARM.exidx.text.unlikely._ZN4core9panicking5panic17h04eb6169f90051c3E
                0x0000000000141f00        0x0 ./gen/../tecsrust_uart_led_sample/target/armv7a-none-eabi/release/libitron.a(core-d049573bc16596f9.core.5587a85061e7188a-cgu.0.rcgu.o)
                                          0x8 (size before relaxing)
 .ARM.exidx.text.unlikely._ZN4core9panicking14panic_nounwind17hb8efc6a66a7c1fb5E
                0x0000000000141f00        0x0 ./gen/../tecsrust_uart_led_sample/target/armv7a-none-eabi/release/libitron.a(core-d049573bc16596f9.core.5587a85061e7188a-cgu.0.rcgu.o)
                                          0x8 (size before relaxing)
 .ARM.exidx.text.unlikely._ZN4core9panicking26panic_nounwind_nobacktrace17hcf6b6f7ce89f1dabE
                0x0000000000141f00        0x0 ./gen/../tecsrust_uart_led_sample/target/armv7a-none-eabi/release/libitron.a(core-d049573bc16596f9.core.5587a85061e7188a-cgu.0.rcgu.o)
                                          0x8 (size before relaxing)
 .ARM.exidx.text.unlikely._ZN4core9panicking14panic_explicit17he7bebe483a3bfe34E
                0x0000000000141f00        0x0 ./gen/../tecsrust_uart_led_sample/target/armv7a-none-eabi/release/libitron.a(core-d049573bc16596f9.core.5587a85061e7188a-cgu.0.rcgu.o)
                                          0x8 (size before relaxing)
 .ARM.exidx.text.unlikely._ZN4core9panicking18panic_bounds_check17he2f51b500041724aE
                0x0000000000141f00        0x0 ./gen/../tecsrust_uart_led_sample/target/armv7a-none-eabi/release/libitron.a(core-d049573bc16596f9.core.5587a85061e7188a-cgu.0.rcgu.o)
                                          0x8 (size before relaxing)
 .ARM.exidx.text.unlikely._ZN4core9panicking36panic_misaligned_pointer_dereference17hca8f56f08697e9a1E
                0x0000000000141f00        0x0 ./gen/../tecsrust_uart_led_sample/target/armv7a-none-eabi/release/libitron.a(core-d049573bc16596f9.core.5587a85061e7188a-cgu.0.rcgu.o)
                                          0x8 (size before relaxing)
 .ARM.exidx.text.unlikely._ZN4core9panicking30panic_null_pointer_dereference17hd07e38dada2babd1E
                0x0000000000141f00        0x0 ./gen/../tecsrust_uart_led_sample/target/armv7a-none-eabi/release/libitron.a(core-d049573bc16596f9.core.5587a85061e7188a-cgu.0.rcgu.o)
                                          0x8 (size before relaxing)
 .ARM.exidx.text.unlikely._ZN4core9panicking19panic_cannot_unwind17h88003aad7d959a86E
                0x0000000000141f00        0x0 ./gen/../tecsrust_uart_led_sample/target/armv7a-none-eabi/release/libitron.a(core-d049573bc16596f9.core.5587a85061e7188a-cgu.0.rcgu.o)
                                          0x8 (size before relaxing)
 .ARM.exidx.text.unlikely._ZN4core9panicking16panic_in_cleanup17he6ef00938a5a6327E
                0x0000000000141f00        0x0 ./gen/../tecsrust_uart_led_sample/target/armv7a-none-eabi/release/libitron.a(core-d049573bc16596f9.core.5587a85061e7188a-cgu.0.rcgu.o)
                                          0x8 (size before relaxing)
 .ARM.exidx.text.unlikely._ZN4core9panicking15const_panic_fmt17h6a5d3cae6d10461cE
                0x0000000000141f00        0x0 ./gen/../tecsrust_uart_led_sample/target/armv7a-none-eabi/release/libitron.a(core-d049573bc16596f9.core.5587a85061e7188a-cgu.0.rcgu.o)
                                          0x8 (size before relaxing)
 .ARM.exidx.text.unlikely._ZN4core9panicking13assert_failed17h2f1d8849fc674a9bE
                0x0000000000141f00        0x0 ./gen/../tecsrust_uart_led_sample/target/armv7a-none-eabi/release/libitron.a(core-d049573bc16596f9.core.5587a85061e7188a-cgu.0.rcgu.o)
                                          0x8 (size before relaxing)
 .ARM.exidx.text.unlikely._ZN4core9panicking13assert_failed17h8a42116d81ae2397E
                0x0000000000141f00        0x0 ./gen/../tecsrust_uart_led_sample/target/armv7a-none-eabi/release/libitron.a(core-d049573bc16596f9.core.5587a85061e7188a-cgu.0.rcgu.o)
                                          0x8 (size before relaxing)
 .ARM.exidx.text._ZN84_$LT$core..panicking..assert_matches_failed..Pattern$u20$as$u20$core..fmt..Debug$GT$3fmt17h3bf79b8a4bc8fc51E
                0x0000000000141f00        0x0 ./gen/../tecsrust_uart_led_sample/target/armv7a-none-eabi/release/libitron.a(core-d049573bc16596f9.core.5587a85061e7188a-cgu.0.rcgu.o)
                                          0x8 (size before relaxing)
 .ARM.exidx.text.unlikely._ZN4core9panicking19assert_failed_inner17h1f0479933a2bc628E
                0x0000000000141f00        0x0 ./gen/../tecsrust_uart_led_sample/target/armv7a-none-eabi/release/libitron.a(core-d049573bc16596f9.core.5587a85061e7188a-cgu.0.rcgu.o)
                                          0x8 (size before relaxing)
 .ARM.exidx.text._ZN48_$LT$char$u20$as$u20$core..pat..RangePattern$GT$7sub_one17hc1333cb071cfc1b6E
                0x0000000000141f00        0x0 ./gen/../tecsrust_uart_led_sample/target/armv7a-none-eabi/release/libitron.a(core-d049573bc16596f9.core.5587a85061e7188a-cgu.0.rcgu.o)
                                          0x8 (size before relaxing)
 .ARM.exidx.text.unlikely._ZN4core6result13unwrap_failed17h238a41f9432ebe61E
                0x0000000000141f00        0x0 ./gen/../tecsrust_uart_led_sample/target/armv7a-none-eabi/release/libitron.a(core-d049573bc16596f9.core.5587a85061e7188a-cgu.0.rcgu.o)
                                          0x8 (size before relaxing)
 .ARM.exidx.text._ZN67_$LT$core..sync..atomic..AtomicBool$u20$as$u20$core..fmt..Debug$GT$3fmt17h36e87f0defe65ad8E
                0x0000000000141f00        0x0 ./gen/../tecsrust_uart_led_sample/target/armv7a-none-eabi/release/libitron.a(core-d049573bc16596f9.core.5587a85061e7188a-cgu.0.rcgu.o)
                                          0x8 (size before relaxing)
 .ARM.exidx.text._ZN4core3fmt8builders10PadAdapter4wrap17h8cec362b75ec2f49E
                0x0000000000141f00        0x0 ./gen/../tecsrust_uart_led_sample/target/armv7a-none-eabi/release/libitron.a(core-d049573bc16596f9.core.5587a85061e7188a-cgu.0.rcgu.o)
                                          0x8 (size before relaxing)
 .ARM.exidx.text._ZN68_$LT$core..fmt..builders..PadAdapter$u20$as$u20$core..fmt..Write$GT$9write_str17hc81ad4e78c0c990cE
                0x0000000000141f00        0x0 ./gen/../tecsrust_uart_led_sample/target/armv7a-none-eabi/release/libitron.a(core-d049573bc16596f9.core.5587a85061e7188a-cgu.0.rcgu.o)
                                          0x8 (size before relaxing)
 .ARM.exidx.text._ZN68_$LT$core..fmt..builders..PadAdapter$u20$as$u20$core..fmt..Write$GT$10write_char17h121f3a024053ccfbE
                0x0000000000141f00        0x0 ./gen/../tecsrust_uart_led_sample/target/armv7a-none-eabi/release/libitron.a(core-d049573bc16596f9.core.5587a85061e7188a-cgu.0.rcgu.o)
                                          0x8 (size before relaxing)
 .ARM.exidx.text._ZN4core3fmt8builders11DebugStruct5field17h118827344b19fbe7E
                0x0000000000141f00        0x0 ./gen/../tecsrust_uart_led_sample/target/armv7a-none-eabi/release/libitron.a(core-d049573bc16596f9.core.5587a85061e7188a-cgu.0.rcgu.o)
                                          0x8 (size before relaxing)
 .ARM.exidx.text._ZN4core3fmt8builders11DebugStruct21finish_non_exhaustive17ha59f74934d70120cE
                0x0000000000141f00        0x0 ./gen/../tecsrust_uart_led_sample/target/armv7a-none-eabi/release/libitron.a(core-d049573bc16596f9.core.5587a85061e7188a-cgu.0.rcgu.o)
                                          0x8 (size before relaxing)
 .ARM.exidx.text._ZN4core3fmt8builders11DebugStruct6finish17h62dcffc385683e70E
                0x0000000000141f00        0x0 ./gen/../tecsrust_uart_led_sample/target/armv7a-none-eabi/release/libitron.a(core-d049573bc16596f9.core.5587a85061e7188a-cgu.0.rcgu.o)
                                          0x8 (size before relaxing)
 .ARM.exidx.text._ZN4core3fmt8builders10DebugTuple5field17hd25f2ea26ee9220fE
                0x0000000000141f00        0x0 ./gen/../tecsrust_uart_led_sample/target/armv7a-none-eabi/release/libitron.a(core-d049573bc16596f9.core.5587a85061e7188a-cgu.0.rcgu.o)
                                          0x8 (size before relaxing)
 .ARM.exidx.text._ZN4core3fmt8builders10DebugTuple21finish_non_exhaustive17hbea2c5cc6d18b83cE
                0x0000000000141f00        0x0 ./gen/../tecsrust_uart_led_sample/target/armv7a-none-eabi/release/libitron.a(core-d049573bc16596f9.core.5587a85061e7188a-cgu.0.rcgu.o)
                                          0x8 (size before relaxing)
 .ARM.exidx.text._ZN4core3fmt8builders10DebugTuple6finish17h75fa298d273b9537E
                0x0000000000141f00        0x0 ./gen/../tecsrust_uart_led_sample/target/armv7a-none-eabi/release/libitron.a(core-d049573bc16596f9.core.5587a85061e7188a-cgu.0.rcgu.o)
                                          0x8 (size before relaxing)
 .ARM.exidx.text._ZN4core3fmt8builders8DebugSet5entry17h6f9f49712cdf1c8aE
                0x0000000000141f00        0x0 ./gen/../tecsrust_uart_led_sample/target/armv7a-none-eabi/release/libitron.a(core-d049573bc16596f9.core.5587a85061e7188a-cgu.0.rcgu.o)
                                          0x8 (size before relaxing)
 .ARM.exidx.text._ZN4core3fmt8builders8DebugSet21finish_non_exhaustive17h056b5628e91579d3E
                0x0000000000141f00        0x0 ./gen/../tecsrust_uart_led_sample/target/armv7a-none-eabi/release/libitron.a(core-d049573bc16596f9.core.5587a85061e7188a-cgu.0.rcgu.o)
                                          0x8 (size before relaxing)
 .ARM.exidx.text._ZN4core3fmt8builders8DebugSet6finish17hb775269289642050E
                0x0000000000141f00        0x0 ./gen/../tecsrust_uart_led_sample/target/armv7a-none-eabi/release/libitron.a(core-d049573bc16596f9.core.5587a85061e7188a-cgu.0.rcgu.o)
                                          0x8 (size before relaxing)
 .ARM.exidx.text._ZN4core3fmt8builders9DebugList21finish_non_exhaustive17h0964252c95243519E
                0x0000000000141f00        0x0 ./gen/../tecsrust_uart_led_sample/target/armv7a-none-eabi/release/libitron.a(core-d049573bc16596f9.core.5587a85061e7188a-cgu.0.rcgu.o)
                                          0x8 (size before relaxing)
 .ARM.exidx.text._ZN4core3fmt8builders9DebugList6finish17h95901bb8c72ebeaaE
                0x0000000000141f00        0x0 ./gen/../tecsrust_uart_led_sample/target/armv7a-none-eabi/release/libitron.a(core-d049573bc16596f9.core.5587a85061e7188a-cgu.0.rcgu.o)
                                          0x8 (size before relaxing)
 .ARM.exidx.text._ZN4core3fmt8builders8DebugMap5entry17hb5fe3985090a797eE
                0x0000000000141f00        0x0 ./gen/../tecsrust_uart_led_sample/target/armv7a-none-eabi/release/libitron.a(core-d049573bc16596f9.core.5587a85061e7188a-cgu.0.rcgu.o)
                                          0x8 (size before relaxing)
 .ARM.exidx.text._ZN4core3fmt8builders8DebugMap3key17he972b5db7c272a06E
                0x0000000000141f00        0x0 ./gen/../tecsrust_uart_led_sample/target/armv7a-none-eabi/release/libitron.a(core-d049573bc16596f9.core.5587a85061e7188a-cgu.0.rcgu.o)
                                          0x8 (size before relaxing)
 .ARM.exidx.text._ZN4core3fmt8builders8DebugMap5value17hc3fc83e3ff16426eE
                0x0000000000141f00        0x0 ./gen/../tecsrust_uart_led_sample/target/armv7a-none-eabi/release/libitron.a(core-d049573bc16596f9.core.5587a85061e7188a-cgu.0.rcgu.o)
                                          0x8 (size before relaxing)
 .ARM.exidx.text._ZN4core3fmt8builders8DebugMap21finish_non_exhaustive17h1d063c8fc17c4fa1E
                0x0000000000141f00        0x0 ./gen/../tecsrust_uart_led_sample/target/armv7a-none-eabi/release/libitron.a(core-d049573bc16596f9.core.5587a85061e7188a-cgu.0.rcgu.o)
                                          0x8 (size before relaxing)
 .ARM.exidx.text._ZN4core3fmt8builders8DebugMap6finish17h87c976a15d36c1beE
                0x0000000000141f00        0x0 ./gen/../tecsrust_uart_led_sample/target/armv7a-none-eabi/release/libitron.a(core-d049573bc16596f9.core.5587a85061e7188a-cgu.0.rcgu.o)
                                          0x8 (size before relaxing)
 .ARM.exidx.text._ZN4core3fmt5float29float_to_decimal_common_exact17h7d85dbe2887defb2E
                0x0000000000141f00        0x0 ./gen/../tecsrust_uart_led_sample/target/armv7a-none-eabi/release/libitron.a(core-d049573bc16596f9.core.5587a85061e7188a-cgu.0.rcgu.o)
                                          0x8 (size before relaxing)
 .ARM.exidx.text._ZN4core3fmt5float29float_to_decimal_common_exact17hb8ecc3a298064d1fE
                0x0000000000141f00        0x0 ./gen/../tecsrust_uart_led_sample/target/armv7a-none-eabi/release/libitron.a(core-d049573bc16596f9.core.5587a85061e7188a-cgu.0.rcgu.o)
                                          0x8 (size before relaxing)
 .ARM.exidx.text._ZN4core3fmt5float29float_to_decimal_common_exact17hc4ee8b5197ebb838E
                0x0000000000141f00        0x0 ./gen/../tecsrust_uart_led_sample/target/armv7a-none-eabi/release/libitron.a(core-d049573bc16596f9.core.5587a85061e7188a-cgu.0.rcgu.o)
                                          0x8 (size before relaxing)
 .ARM.exidx.text._ZN4core3fmt5float32float_to_decimal_common_shortest17h57f1a97492206944E
                0x0000000000141f00        0x0 ./gen/../tecsrust_uart_led_sample/target/armv7a-none-eabi/release/libitron.a(core-d049573bc16596f9.core.5587a85061e7188a-cgu.0.rcgu.o)
                                          0x8 (size before relaxing)
 .ARM.exidx.text._ZN4core3fmt5float32float_to_decimal_common_shortest17hd1530ac16dbab458E
                0x0000000000141f00        0x0 ./gen/../tecsrust_uart_led_sample/target/armv7a-none-eabi/release/libitron.a(core-d049573bc16596f9.core.5587a85061e7188a-cgu.0.rcgu.o)
                                          0x8 (size before relaxing)
 .ARM.exidx.text._ZN4core3fmt5float32float_to_decimal_common_shortest17hf774af481b6739e1E
                0x0000000000141f00        0x0 ./gen/../tecsrust_uart_led_sample/target/armv7a-none-eabi/release/libitron.a(core-d049573bc16596f9.core.5587a85061e7188a-cgu.0.rcgu.o)
                                          0x8 (size before relaxing)
 .ARM.exidx.text._ZN4core3fmt5float33float_to_exponential_common_exact17h475946fbe25c96b4E
                0x0000000000141f00        0x0 ./gen/../tecsrust_uart_led_sample/target/armv7a-none-eabi/release/libitron.a(core-d049573bc16596f9.core.5587a85061e7188a-cgu.0.rcgu.o)
                                          0x8 (size before relaxing)
 .ARM.exidx.text._ZN4core3fmt5float33float_to_exponential_common_exact17h58c854a839c522b9E
                0x0000000000141f00        0x0 ./gen/../tecsrust_uart_led_sample/target/armv7a-none-eabi/release/libitron.a(core-d049573bc16596f9.core.5587a85061e7188a-cgu.0.rcgu.o)
                                          0x8 (size before relaxing)
 .ARM.exidx.text._ZN4core3fmt5float33float_to_exponential_common_exact17hf8c347a31f005498E
                0x0000000000141f00        0x0 ./gen/../tecsrust_uart_led_sample/target/armv7a-none-eabi/release/libitron.a(core-d049573bc16596f9.core.5587a85061e7188a-cgu.0.rcgu.o)
                                          0x8 (size before relaxing)
 .ARM.exidx.text._ZN4core3fmt5float36float_to_exponential_common_shortest17h110c73098256b07dE
                0x0000000000141f00        0x0 ./gen/../tecsrust_uart_led_sample/target/armv7a-none-eabi/release/libitron.a(core-d049573bc16596f9.core.5587a85061e7188a-cgu.0.rcgu.o)
                                          0x8 (size before relaxing)
 .ARM.exidx.text._ZN4core3fmt5float36float_to_exponential_common_shortest17hc2048c8ca710d24cE
                0x0000000000141f00        0x0 ./gen/../tecsrust_uart_led_sample/target/armv7a-none-eabi/release/libitron.a(core-d049573bc16596f9.core.5587a85061e7188a-cgu.0.rcgu.o)
                                          0x8 (size before relaxing)
 .ARM.exidx.text._ZN4core3fmt5float36float_to_exponential_common_shortest17hded788cc3690643fE
                0x0000000000141f00        0x0 ./gen/../tecsrust_uart_led_sample/target/armv7a-none-eabi/release/libitron.a(core-d049573bc16596f9.core.5587a85061e7188a-cgu.0.rcgu.o)
                                          0x8 (size before relaxing)
 .ARM.exidx.text._ZN4core3fmt3num14parse_u64_into17hdae6f27d721cd177E
                0x0000000000141f00        0x0 ./gen/../tecsrust_uart_led_sample/target/armv7a-none-eabi/release/libitron.a(core-d049573bc16596f9.core.5587a85061e7188a-cgu.0.rcgu.o)
                                          0x8 (size before relaxing)
 .ARM.exidx.text._ZN4core3fmt3num53_$LT$impl$u20$core..fmt..Display$u20$for$u20$u128$GT$3fmt17he162d142fdfbe23dE
                0x0000000000141f00        0x0 ./gen/../tecsrust_uart_led_sample/target/armv7a-none-eabi/release/libitron.a(core-d049573bc16596f9.core.5587a85061e7188a-cgu.0.rcgu.o)
                                          0x8 (size before relaxing)
 .ARM.exidx.text._ZN4core3fmt3num53_$LT$impl$u20$core..fmt..Display$u20$for$u20$i128$GT$3fmt17h41041c0cb7d944acE
                0x0000000000141f00        0x0 ./gen/../tecsrust_uart_led_sample/target/armv7a-none-eabi/release/libitron.a(core-d049573bc16596f9.core.5587a85061e7188a-cgu.0.rcgu.o)
                                          0x8 (size before relaxing)
 .ARM.exidx.text._ZN4core3fmt3num8fmt_u12817h3ce49e52aad09f7aE
                0x0000000000141f00        0x0 ./gen/../tecsrust_uart_led_sample/target/armv7a-none-eabi/release/libitron.a(core-d049573bc16596f9.core.5587a85061e7188a-cgu.0.rcgu.o)
                                          0x8 (size before relaxing)
 .ARM.exidx.text._ZN4core3fmt5Write10write_char17h0deb656a130510dcE
                0x0000000000141f00        0x0 ./gen/../tecsrust_uart_led_sample/target/armv7a-none-eabi/release/libitron.a(core-d049573bc16596f9.core.5587a85061e7188a-cgu.0.rcgu.o)
                                          0x8 (size before relaxing)
 .ARM.exidx.text._ZN4core3fmt5Write10write_char17h121006013e2c64bdE
                0x0000000000141f00        0x0 ./gen/../tecsrust_uart_led_sample/target/armv7a-none-eabi/release/libitron.a(core-d049573bc16596f9.core.5587a85061e7188a-cgu.0.rcgu.o)
                                          0x8 (size before relaxing)
 .ARM.exidx.text._ZN4core3fmt5Write10write_char17h20c6982f67c5a14cE
                0x0000000000141f00        0x0 ./gen/../tecsrust_uart_led_sample/target/armv7a-none-eabi/release/libitron.a(core-d049573bc16596f9.core.5587a85061e7188a-cgu.0.rcgu.o)
                                          0x8 (size before relaxing)
 .ARM.exidx.text._ZN4core3fmt5Write10write_char17h884d76389de57237E
                0x0000000000141f00        0x0 ./gen/../tecsrust_uart_led_sample/target/armv7a-none-eabi/release/libitron.a(core-d049573bc16596f9.core.5587a85061e7188a-cgu.0.rcgu.o)
                                          0x8 (size before relaxing)
 .ARM.exidx.text._ZN4core3fmt5Write9write_fmt17h07c1169efed3c695E
                0x0000000000141f00        0x0 ./gen/../tecsrust_uart_led_sample/target/armv7a-none-eabi/release/libitron.a(core-d049573bc16596f9.core.5587a85061e7188a-cgu.0.rcgu.o)
                                          0x8 (size before relaxing)
 .ARM.exidx.text._ZN4core3fmt5Write9write_fmt17h32196b9e35a8bbc2E
                0x0000000000141f00        0x0 ./gen/../tecsrust_uart_led_sample/target/armv7a-none-eabi/release/libitron.a(core-d049573bc16596f9.core.5587a85061e7188a-cgu.0.rcgu.o)
                                          0x8 (size before relaxing)
 .ARM.exidx.text._ZN4core3fmt5Write9write_fmt17h8420373094f7f4f3E
                0x0000000000141f00        0x0 ./gen/../tecsrust_uart_led_sample/target/armv7a-none-eabi/release/libitron.a(core-d049573bc16596f9.core.5587a85061e7188a-cgu.0.rcgu.o)
                                          0x8 (size before relaxing)
 .ARM.exidx.text._ZN4core3fmt5Write9write_fmt17ha93132b80607745fE
                0x0000000000141f00        0x0 ./gen/../tecsrust_uart_led_sample/target/armv7a-none-eabi/release/libitron.a(core-d049573bc16596f9.core.5587a85061e7188a-cgu.0.rcgu.o)
                                          0x8 (size before relaxing)
 .ARM.exidx.text._ZN4core3fmt5Write9write_fmt17he315d962ad1b87f3E
                0x0000000000141f00        0x0 ./gen/../tecsrust_uart_led_sample/target/armv7a-none-eabi/release/libitron.a(core-d049573bc16596f9.core.5587a85061e7188a-cgu.0.rcgu.o)
                                          0x8 (size before relaxing)
 .ARM.exidx.text._ZN4core3fmt17FormattingOptions8get_fill17ha364eba16e39e9f9E
                0x0000000000141f00        0x0 ./gen/../tecsrust_uart_led_sample/target/armv7a-none-eabi/release/libitron.a(core-d049573bc16596f9.core.5587a85061e7188a-cgu.0.rcgu.o)
                                          0x8 (size before relaxing)
 .ARM.exidx.text._ZN57_$LT$core..fmt..Arguments$u20$as$u20$core..fmt..Debug$GT$3fmt17hecd0089d3e424aecE
                0x0000000000141f00        0x0 ./gen/../tecsrust_uart_led_sample/target/armv7a-none-eabi/release/libitron.a(core-d049573bc16596f9.core.5587a85061e7188a-cgu.0.rcgu.o)
                                          0x8 (size before relaxing)
 .ARM.exidx.text._ZN59_$LT$core..fmt..Arguments$u20$as$u20$core..fmt..Display$GT$3fmt17hcd13995007f793f4E
                0x0000000000141f00        0x0 ./gen/../tecsrust_uart_led_sample/target/armv7a-none-eabi/release/libitron.a(core-d049573bc16596f9.core.5587a85061e7188a-cgu.0.rcgu.o)
                                          0x8 (size before relaxing)
 .ARM.exidx.text._ZN4core3fmt5write17hb714253c1b9e952cE
                0x0000000000141f00        0x0 ./gen/../tecsrust_uart_led_sample/target/armv7a-none-eabi/release/libitron.a(core-d049573bc16596f9.core.5587a85061e7188a-cgu.0.rcgu.o)
                                          0x8 (size before relaxing)
 .ARM.exidx.text._ZN4core3fmt9Formatter12pad_integral17hec47f37da301c049E
                0x0000000000141f00        0x0 ./gen/../tecsrust_uart_led_sample/target/armv7a-none-eabi/release/libitron.a(core-d049573bc16596f9.core.5587a85061e7188a-cgu.0.rcgu.o)
                                          0x8 (size before relaxing)
 .ARM.exidx.text._ZN4core3fmt9Formatter12pad_integral12write_prefix17hc4c0a7a0c94985adE
                0x0000000000141f00        0x0 ./gen/../tecsrust_uart_led_sample/target/armv7a-none-eabi/release/libitron.a(core-d049573bc16596f9.core.5587a85061e7188a-cgu.0.rcgu.o)
                                          0x8 (size before relaxing)
 .ARM.exidx.text._ZN4core3fmt9Formatter3pad17h8e247c0c6f258b85E
                0x0000000000141f00        0x0 ./gen/../tecsrust_uart_led_sample/target/armv7a-none-eabi/release/libitron.a(core-d049573bc16596f9.core.5587a85061e7188a-cgu.0.rcgu.o)
                                          0x8 (size before relaxing)
 .ARM.exidx.text._ZN4core3fmt9Formatter19pad_formatted_parts17ha476f236f4259153E
                0x0000000000141f00        0x0 ./gen/../tecsrust_uart_led_sample/target/armv7a-none-eabi/release/libitron.a(core-d049573bc16596f9.core.5587a85061e7188a-cgu.0.rcgu.o)
                                          0x8 (size before relaxing)
 .ARM.exidx.text._ZN4core3fmt9Formatter21write_formatted_parts17h76662c6af77af83aE
                0x0000000000141f00        0x0 ./gen/../tecsrust_uart_led_sample/target/armv7a-none-eabi/release/libitron.a(core-d049573bc16596f9.core.5587a85061e7188a-cgu.0.rcgu.o)
                                          0x8 (size before relaxing)
 .ARM.exidx.text._ZN4core3fmt9Formatter9write_str17hdfb7ca2c4bb7964eE
                0x0000000000141f00        0x0 ./gen/../tecsrust_uart_led_sample/target/armv7a-none-eabi/release/libitron.a(core-d049573bc16596f9.core.5587a85061e7188a-cgu.0.rcgu.o)
                                          0x8 (size before relaxing)
 .ARM.exidx.text._ZN4core3fmt9Formatter4fill17hffaa17a0e6fadb77E
                0x0000000000141f00        0x0 ./gen/../tecsrust_uart_led_sample/target/armv7a-none-eabi/release/libitron.a(core-d049573bc16596f9.core.5587a85061e7188a-cgu.0.rcgu.o)
                                          0x8 (size before relaxing)
 .ARM.exidx.text._ZN4core3fmt9Formatter12debug_struct17he204134461ecf684E
                0x0000000000141f00        0x0 ./gen/../tecsrust_uart_led_sample/target/armv7a-none-eabi/release/libitron.a(core-d049573bc16596f9.core.5587a85061e7188a-cgu.0.rcgu.o)
                                          0x8 (size before relaxing)
 .ARM.exidx.text._ZN4core3fmt9Formatter26debug_struct_field1_finish17hfc5577f397af5417E
                0x0000000000141f00        0x0 ./gen/../tecsrust_uart_led_sample/target/armv7a-none-eabi/release/libitron.a(core-d049573bc16596f9.core.5587a85061e7188a-cgu.0.rcgu.o)
                                          0x8 (size before relaxing)
 .ARM.exidx.text._ZN4core3fmt9Formatter26debug_struct_field2_finish17h250937b50b7d91dbE
                0x0000000000141f00        0x0 ./gen/../tecsrust_uart_led_sample/target/armv7a-none-eabi/release/libitron.a(core-d049573bc16596f9.core.5587a85061e7188a-cgu.0.rcgu.o)
                                          0x8 (size before relaxing)
 .ARM.exidx.text._ZN4core3fmt9Formatter26debug_struct_field3_finish17h2e39e36ff7dea516E
                0x0000000000141f00        0x0 ./gen/../tecsrust_uart_led_sample/target/armv7a-none-eabi/release/libitron.a(core-d049573bc16596f9.core.5587a85061e7188a-cgu.0.rcgu.o)
                                          0x8 (size before relaxing)
 .ARM.exidx.text._ZN4core3fmt9Formatter26debug_struct_field4_finish17hd85fc51ea53a6480E
                0x0000000000141f00        0x0 ./gen/../tecsrust_uart_led_sample/target/armv7a-none-eabi/release/libitron.a(core-d049573bc16596f9.core.5587a85061e7188a-cgu.0.rcgu.o)
                                          0x8 (size before relaxing)
 .ARM.exidx.text._ZN4core3fmt9Formatter26debug_struct_field5_finish17haacbff9cf3eec5ccE
                0x0000000000141f00        0x0 ./gen/../tecsrust_uart_led_sample/target/armv7a-none-eabi/release/libitron.a(core-d049573bc16596f9.core.5587a85061e7188a-cgu.0.rcgu.o)
                                          0x8 (size before relaxing)
 .ARM.exidx.text._ZN4core3fmt9Formatter26debug_struct_fields_finish17hbc4a9600e0d1f479E
                0x0000000000141f00        0x0 ./gen/../tecsrust_uart_led_sample/target/armv7a-none-eabi/release/libitron.a(core-d049573bc16596f9.core.5587a85061e7188a-cgu.0.rcgu.o)
                                          0x8 (size before relaxing)
 .ARM.exidx.text._ZN4core3fmt9Formatter11debug_tuple17h940ad0dd22d147c8E
                0x0000000000141f00        0x0 ./gen/../tecsrust_uart_led_sample/target/armv7a-none-eabi/release/libitron.a(core-d049573bc16596f9.core.5587a85061e7188a-cgu.0.rcgu.o)
                                          0x8 (size before relaxing)
 .ARM.exidx.text._ZN4core3fmt9Formatter25debug_tuple_field1_finish17h3462a89b33c73d6eE
                0x0000000000141f00        0x0 ./gen/../tecsrust_uart_led_sample/target/armv7a-none-eabi/release/libitron.a(core-d049573bc16596f9.core.5587a85061e7188a-cgu.0.rcgu.o)
                                          0x8 (size before relaxing)
 .ARM.exidx.text._ZN4core3fmt9Formatter25debug_tuple_field2_finish17hc4dc9b596154de93E
                0x0000000000141f00        0x0 ./gen/../tecsrust_uart_led_sample/target/armv7a-none-eabi/release/libitron.a(core-d049573bc16596f9.core.5587a85061e7188a-cgu.0.rcgu.o)
                                          0x8 (size before relaxing)
 .ARM.exidx.text._ZN4core3fmt9Formatter25debug_tuple_field3_finish17h164749d4d77ab572E
                0x0000000000141f00        0x0 ./gen/../tecsrust_uart_led_sample/target/armv7a-none-eabi/release/libitron.a(core-d049573bc16596f9.core.5587a85061e7188a-cgu.0.rcgu.o)
                                          0x8 (size before relaxing)
 .ARM.exidx.text._ZN4core3fmt9Formatter25debug_tuple_field4_finish17h87085ebfbf56e53eE
                0x0000000000141f00        0x0 ./gen/../tecsrust_uart_led_sample/target/armv7a-none-eabi/release/libitron.a(core-d049573bc16596f9.core.5587a85061e7188a-cgu.0.rcgu.o)
                                          0x8 (size before relaxing)
 .ARM.exidx.text._ZN4core3fmt9Formatter25debug_tuple_field5_finish17he4dec699aac9d2a9E
                0x0000000000141f00        0x0 ./gen/../tecsrust_uart_led_sample/target/armv7a-none-eabi/release/libitron.a(core-d049573bc16596f9.core.5587a85061e7188a-cgu.0.rcgu.o)
                                          0x8 (size before relaxing)
 .ARM.exidx.text._ZN4core3fmt9Formatter25debug_tuple_fields_finish17hb3065dfeca0f69b2E
                0x0000000000141f00        0x0 ./gen/../tecsrust_uart_led_sample/target/armv7a-none-eabi/release/libitron.a(core-d049573bc16596f9.core.5587a85061e7188a-cgu.0.rcgu.o)
                                          0x8 (size before relaxing)
 .ARM.exidx.text._ZN4core3fmt9Formatter10debug_list17h324a4227e38e4e1cE
                0x0000000000141f00        0x0 ./gen/../tecsrust_uart_led_sample/target/armv7a-none-eabi/release/libitron.a(core-d049573bc16596f9.core.5587a85061e7188a-cgu.0.rcgu.o)
                                          0x8 (size before relaxing)
 .ARM.exidx.text._ZN4core3fmt9Formatter9debug_set17h8342974783863c44E
                0x0000000000141f00        0x0 ./gen/../tecsrust_uart_led_sample/target/armv7a-none-eabi/release/libitron.a(core-d049573bc16596f9.core.5587a85061e7188a-cgu.0.rcgu.o)
                                          0x8 (size before relaxing)
 .ARM.exidx.text._ZN4core3fmt9Formatter9debug_map17hd46370b77cf960edE
                0x0000000000141f00        0x0 ./gen/../tecsrust_uart_led_sample/target/armv7a-none-eabi/release/libitron.a(core-d049573bc16596f9.core.5587a85061e7188a-cgu.0.rcgu.o)
                                          0x8 (size before relaxing)
 .ARM.exidx.text._ZN57_$LT$core..fmt..Formatter$u20$as$u20$core..fmt..Write$GT$10write_char17ha022f916fb525171E
                0x0000000000141f00        0x0 ./gen/../tecsrust_uart_led_sample/target/armv7a-none-eabi/release/libitron.a(core-d049573bc16596f9.core.5587a85061e7188a-cgu.0.rcgu.o)
                                          0x8 (size before relaxing)
 .ARM.exidx.text._ZN55_$LT$core..fmt..Error$u20$as$u20$core..fmt..Display$GT$3fmt17h603b7f267edd160dE
                0x0000000000141f00        0x0 ./gen/../tecsrust_uart_led_sample/target/armv7a-none-eabi/release/libitron.a(core-d049573bc16596f9.core.5587a85061e7188a-cgu.0.rcgu.o)
                                          0x8 (size before relaxing)
 .ARM.exidx.text._ZN43_$LT$bool$u20$as$u20$core..fmt..Display$GT$3fmt17h37b2e11049775da3E
                0x0000000000141f00        0x0 ./gen/../tecsrust_uart_led_sample/target/armv7a-none-eabi/release/libitron.a(core-d049573bc16596f9.core.5587a85061e7188a-cgu.0.rcgu.o)
                                          0x8 (size before relaxing)
 .ARM.exidx.text._ZN40_$LT$str$u20$as$u20$core..fmt..Debug$GT$3fmt17hbfa9400b4ed4d146E
                0x0000000000141f00        0x0 ./gen/../tecsrust_uart_led_sample/target/armv7a-none-eabi/release/libitron.a(core-d049573bc16596f9.core.5587a85061e7188a-cgu.0.rcgu.o)
                                          0x8 (size before relaxing)
 .ARM.exidx.text._ZN42_$LT$str$u20$as$u20$core..fmt..Display$GT$3fmt17h1a2739d2b1badf3eE
                0x0000000000141f00        0x0 ./gen/../tecsrust_uart_led_sample/target/armv7a-none-eabi/release/libitron.a(core-d049573bc16596f9.core.5587a85061e7188a-cgu.0.rcgu.o)
                                          0x8 (size before relaxing)
 .ARM.exidx.text._ZN41_$LT$char$u20$as$u20$core..fmt..Debug$GT$3fmt17hf8537c7d284af8e9E
                0x0000000000141f00        0x0 ./gen/../tecsrust_uart_led_sample/target/armv7a-none-eabi/release/libitron.a(core-d049573bc16596f9.core.5587a85061e7188a-cgu.0.rcgu.o)
                                          0x8 (size before relaxing)
 .ARM.exidx.text._ZN43_$LT$char$u20$as$u20$core..fmt..Display$GT$3fmt17h759ac83f19cee971E
                0x0000000000141f00        0x0 ./gen/../tecsrust_uart_led_sample/target/armv7a-none-eabi/release/libitron.a(core-d049573bc16596f9.core.5587a85061e7188a-cgu.0.rcgu.o)
                                          0x8 (size before relaxing)
 .ARM.exidx.text._ZN4core3fmt17pointer_fmt_inner17h83d31351164c23f2E
                0x0000000000141f00        0x0 ./gen/../tecsrust_uart_led_sample/target/armv7a-none-eabi/release/libitron.a(core-d049573bc16596f9.core.5587a85061e7188a-cgu.0.rcgu.o)
                                          0x8 (size before relaxing)
 .ARM.exidx.text._ZN52_$LT$$BP$const$u20$T$u20$as$u20$core..fmt..Debug$GT$3fmt17h52f0d6dcd4868dc8E
                0x0000000000141f00        0x0 ./gen/../tecsrust_uart_led_sample/target/armv7a-none-eabi/release/libitron.a(core-d049573bc16596f9.core.5587a85061e7188a-cgu.0.rcgu.o)
                                          0x8 (size before relaxing)
 .ARM.exidx.text._ZN4core5slice6memchr14memchr_aligned17hf608187b782eb764E
                0x0000000000141f00        0x0 ./gen/../tecsrust_uart_led_sample/target/armv7a-none-eabi/release/libitron.a(core-d049573bc16596f9.core.5587a85061e7188a-cgu.0.rcgu.o)
                                          0x8 (size before relaxing)
 .ARM.exidx.text._ZN4core5slice6memchr7memrchr17h1b5e6bee0cdc7e3cE
                0x0000000000141f00        0x0 ./gen/../tecsrust_uart_led_sample/target/armv7a-none-eabi/release/libitron.a(core-d049573bc16596f9.core.5587a85061e7188a-cgu.0.rcgu.o)
                                          0x8 (size before relaxing)
 .ARM.exidx.text._ZN4core5slice4sort6stable5drift11sqrt_approx17heb7d8e344c813c3bE
                0x0000000000141f00        0x0 ./gen/../tecsrust_uart_led_sample/target/armv7a-none-eabi/release/libitron.a(core-d049573bc16596f9.core.5587a85061e7188a-cgu.0.rcgu.o)
                                          0x8 (size before relaxing)
 .ARM.exidx.text.unlikely._ZN4core5slice4sort6shared9smallsort22panic_on_ord_violation17h26f42ac12335c738E
                0x0000000000141f00        0x0 ./gen/../tecsrust_uart_led_sample/target/armv7a-none-eabi/release/libitron.a(core-d049573bc16596f9.core.5587a85061e7188a-cgu.0.rcgu.o)
                                          0x8 (size before relaxing)
 .ARM.exidx.text._ZN105_$LT$core..slice..ascii..EscapeAscii$u20$as$u20$core..iter..traits..double_ended..DoubleEndedIterator$GT$9next_back17h58b0f7ecc71c56abE
                0x0000000000141f00        0x0 ./gen/../tecsrust_uart_led_sample/target/armv7a-none-eabi/release/libitron.a(core-d049573bc16596f9.core.5587a85061e7188a-cgu.0.rcgu.o)
                                          0x8 (size before relaxing)
 .ARM.exidx.text._ZN70_$LT$core..slice..ascii..EscapeAscii$u20$as$u20$core..fmt..Display$GT$3fmt17h29e51c0221cfc6f4E
                0x0000000000141f00        0x0 ./gen/../tecsrust_uart_led_sample/target/armv7a-none-eabi/release/libitron.a(core-d049573bc16596f9.core.5587a85061e7188a-cgu.0.rcgu.o)
                                          0x8 (size before relaxing)
 .ARM.exidx.text._ZN68_$LT$core..slice..ascii..EscapeAscii$u20$as$u20$core..fmt..Debug$GT$3fmt17hbb33b900076cece0E
                0x0000000000141f00        0x0 ./gen/../tecsrust_uart_led_sample/target/armv7a-none-eabi/release/libitron.a(core-d049573bc16596f9.core.5587a85061e7188a-cgu.0.rcgu.o)
                                          0x8 (size before relaxing)
 .ARM.exidx.text.unlikely._ZN4core5slice5index26slice_start_index_len_fail17h38c824b450734dfcE
                0x0000000000141f00        0x0 ./gen/../tecsrust_uart_led_sample/target/armv7a-none-eabi/release/libitron.a(core-d049573bc16596f9.core.5587a85061e7188a-cgu.0.rcgu.o)
                                          0x8 (size before relaxing)
 .ARM.exidx.text.unlikely._ZN4core5slice5index24slice_end_index_len_fail17hf4eb2611058c09afE
                0x0000000000141f00        0x0 ./gen/../tecsrust_uart_led_sample/target/armv7a-none-eabi/release/libitron.a(core-d049573bc16596f9.core.5587a85061e7188a-cgu.0.rcgu.o)
                                          0x8 (size before relaxing)
 .ARM.exidx.text.unlikely._ZN4core5slice5index22slice_index_order_fail17hb31f14bd82bfcb5bE
                0x0000000000141f00        0x0 ./gen/../tecsrust_uart_led_sample/target/armv7a-none-eabi/release/libitron.a(core-d049573bc16596f9.core.5587a85061e7188a-cgu.0.rcgu.o)
                                          0x8 (size before relaxing)
 .ARM.exidx.text.unlikely._ZN4core5slice5index31slice_start_index_overflow_fail17h682402ba819c482dE
                0x0000000000141f00        0x0 ./gen/../tecsrust_uart_led_sample/target/armv7a-none-eabi/release/libitron.a(core-d049573bc16596f9.core.5587a85061e7188a-cgu.0.rcgu.o)
                                          0x8 (size before relaxing)
 .ARM.exidx.text.unlikely._ZN4core5slice5index29slice_end_index_overflow_fail17h6d8526257621818dE
                0x0000000000141f00        0x0 ./gen/../tecsrust_uart_led_sample/target/armv7a-none-eabi/release/libitron.a(core-d049573bc16596f9.core.5587a85061e7188a-cgu.0.rcgu.o)
                                          0x8 (size before relaxing)
 .ARM.exidx.text._ZN4core5slice5index10into_range17h838d5809396762d6E
                0x0000000000141f00        0x0 ./gen/../tecsrust_uart_led_sample/target/armv7a-none-eabi/release/libitron.a(core-d049573bc16596f9.core.5587a85061e7188a-cgu.0.rcgu.o)
                                          0x8 (size before relaxing)
 .ARM.exidx.text._ZN4core5slice5index16into_slice_range17h4e76af1b067ea36eE
                0x0000000000141f00        0x0 ./gen/../tecsrust_uart_led_sample/target/armv7a-none-eabi/release/libitron.a(core-d049573bc16596f9.core.5587a85061e7188a-cgu.0.rcgu.o)
                                          0x8 (size before relaxing)
 .ARM.exidx.text.unlikely._ZN4core5slice29_$LT$impl$u20$$u5b$T$u5d$$GT$15copy_from_slice17len_mismatch_fail17hf3c6b69109ca94ceE
                0x0000000000141f00        0x0 ./gen/../tecsrust_uart_led_sample/target/armv7a-none-eabi/release/libitron.a(core-d049573bc16596f9.core.5587a85061e7188a-cgu.0.rcgu.o)
                                          0x8 (size before relaxing)
 .ARM.exidx.text._ZN4core5slice29_$LT$impl$u20$$u5b$T$u5d$$GT$16align_to_offsets3gcd17h9ccf75cedf78b32bE
                0x0000000000141f00        0x0 ./gen/../tecsrust_uart_led_sample/target/armv7a-none-eabi/release/libitron.a(core-d049573bc16596f9.core.5587a85061e7188a-cgu.0.rcgu.o)
                                          0x8 (size before relaxing)
 .ARM.exidx.text._ZN71_$LT$core..slice..GetDisjointMutError$u20$as$u20$core..fmt..Display$GT$3fmt17h67ba63dcac76d19cE
                0x0000000000141f00        0x0 ./gen/../tecsrust_uart_led_sample/target/armv7a-none-eabi/release/libitron.a(core-d049573bc16596f9.core.5587a85061e7188a-cgu.0.rcgu.o)
                                          0x8 (size before relaxing)
 .ARM.exidx.text._ZN4core3str8converts9from_utf817h69ed1439eba52b92E
                0x0000000000141f00        0x0 ./gen/../tecsrust_uart_led_sample/target/armv7a-none-eabi/release/libitron.a(core-d049573bc16596f9.core.5587a85061e7188a-cgu.0.rcgu.o)
                                          0x8 (size before relaxing)
 .ARM.exidx.text._ZN4core3str8converts13from_utf8_mut17h4e3a295159d63a91E
                0x0000000000141f00        0x0 ./gen/../tecsrust_uart_led_sample/target/armv7a-none-eabi/release/libitron.a(core-d049573bc16596f9.core.5587a85061e7188a-cgu.0.rcgu.o)
                                          0x8 (size before relaxing)
 .ARM.exidx.text._ZN4core3str5count14do_count_chars17h9cffd9e3dec45553E
                0x0000000000141f00        0x0 ./gen/../tecsrust_uart_led_sample/target/armv7a-none-eabi/release/libitron.a(core-d049573bc16596f9.core.5587a85061e7188a-cgu.0.rcgu.o)
                                          0x8 (size before relaxing)
 .ARM.exidx.text._ZN4core3str5count23char_count_general_case17h4d4c6ce16c4d1906E
                0x0000000000141f00        0x0 ./gen/../tecsrust_uart_led_sample/target/armv7a-none-eabi/release/libitron.a(core-d049573bc16596f9.core.5587a85061e7188a-cgu.0.rcgu.o)
                                          0x8 (size before relaxing)
 .ARM.exidx.text._ZN66_$LT$core..str..error..Utf8Error$u20$as$u20$core..fmt..Display$GT$3fmt17h291d6cbe57b75336E
                0x0000000000141f00        0x0 ./gen/../tecsrust_uart_led_sample/target/armv7a-none-eabi/release/libitron.a(core-d049573bc16596f9.core.5587a85061e7188a-cgu.0.rcgu.o)
                                          0x8 (size before relaxing)
 .ARM.exidx.text._ZN71_$LT$core..str..error..ParseBoolError$u20$as$u20$core..fmt..Display$GT$3fmt17h8ff3dff7cf95e9f3E
                0x0000000000141f00        0x0 ./gen/../tecsrust_uart_led_sample/target/armv7a-none-eabi/release/libitron.a(core-d049573bc16596f9.core.5587a85061e7188a-cgu.0.rcgu.o)
                                          0x8 (size before relaxing)
 .ARM.exidx.text._ZN59_$LT$core..str..iter..Chars$u20$as$u20$core..fmt..Debug$GT$3fmt17hc296714f5aca8f63E
                0x0000000000141f00        0x0 ./gen/../tecsrust_uart_led_sample/target/armv7a-none-eabi/release/libitron.a(core-d049573bc16596f9.core.5587a85061e7188a-cgu.0.rcgu.o)
                                          0x8 (size before relaxing)
 .ARM.exidx.text._ZN65_$LT$core..str..iter..EncodeUtf16$u20$as$u20$core..fmt..Debug$GT$3fmt17h470f6ac5da350b32E
                0x0000000000141f00        0x0 ./gen/../tecsrust_uart_led_sample/target/armv7a-none-eabi/release/libitron.a(core-d049573bc16596f9.core.5587a85061e7188a-cgu.0.rcgu.o)
                                          0x8 (size before relaxing)
 .ARM.exidx.text.unlikely._ZN4core3str6traits23str_index_overflow_fail17h8bf11899d5e405f7E
                0x0000000000141f00        0x0 ./gen/../tecsrust_uart_led_sample/target/armv7a-none-eabi/release/libitron.a(core-d049573bc16596f9.core.5587a85061e7188a-cgu.0.rcgu.o)
                                          0x8 (size before relaxing)
 .ARM.exidx.text._ZN4core3str7pattern11StrSearcher3new17h9540c37606476449E
                0x0000000000141f00        0x0 ./gen/../tecsrust_uart_led_sample/target/armv7a-none-eabi/release/libitron.a(core-d049573bc16596f9.core.5587a85061e7188a-cgu.0.rcgu.o)
                                          0x8 (size before relaxing)
 .ARM.exidx.text._ZN60_$LT$core..str..lossy..Debug$u20$as$u20$core..fmt..Debug$GT$3fmt17h8e77771fab7a2f70E
                0x0000000000141f00        0x0 ./gen/../tecsrust_uart_led_sample/target/armv7a-none-eabi/release/libitron.a(core-d049573bc16596f9.core.5587a85061e7188a-cgu.0.rcgu.o)
                                          0x8 (size before relaxing)
 .ARM.exidx.text._ZN87_$LT$core..str..lossy..Utf8Chunks$u20$as$u20$core..iter..traits..iterator..Iterator$GT$4next17he7d6cc4011e7786bE
                0x0000000000141f00        0x0 ./gen/../tecsrust_uart_led_sample/target/armv7a-none-eabi/release/libitron.a(core-d049573bc16596f9.core.5587a85061e7188a-cgu.0.rcgu.o)
                                          0x8 (size before relaxing)
 .ARM.exidx.text._ZN65_$LT$core..str..lossy..Utf8Chunks$u20$as$u20$core..fmt..Debug$GT$3fmt17h9c45e8ae8211e985E
                0x0000000000141f00        0x0 ./gen/../tecsrust_uart_led_sample/target/armv7a-none-eabi/release/libitron.a(core-d049573bc16596f9.core.5587a85061e7188a-cgu.0.rcgu.o)
                                          0x8 (size before relaxing)
 .ARM.exidx.text.unlikely._ZN4core3str16slice_error_fail17h4d59bc1e755bbe4fE
                0x0000000000141f00        0x0 ./gen/../tecsrust_uart_led_sample/target/armv7a-none-eabi/release/libitron.a(core-d049573bc16596f9.core.5587a85061e7188a-cgu.0.rcgu.o)
                                          0x8 (size before relaxing)
 .ARM.exidx.text.unlikely._ZN4core3str19slice_error_fail_ct17hb73804428b3ba7caE
                0x0000000000141f00        0x0 ./gen/../tecsrust_uart_led_sample/target/armv7a-none-eabi/release/libitron.a(core-d049573bc16596f9.core.5587a85061e7188a-cgu.0.rcgu.o)
                                          0x8 (size before relaxing)
 .ARM.exidx.text._ZN4core3str19slice_error_fail_rt17h7b2b73d8d28473e0E
                0x0000000000141f00        0x0 ./gen/../tecsrust_uart_led_sample/target/armv7a-none-eabi/release/libitron.a(core-d049573bc16596f9.core.5587a85061e7188a-cgu.0.rcgu.o)
                                          0x8 (size before relaxing)
 .ARM.exidx.text._ZN4core3str21_$LT$impl$u20$str$GT$9from_utf817h9c50c6b49793a8caE
                0x0000000000141f00        0x0 ./gen/../tecsrust_uart_led_sample/target/armv7a-none-eabi/release/libitron.a(core-d049573bc16596f9.core.5587a85061e7188a-cgu.0.rcgu.o)
                                          0x8 (size before relaxing)
 .ARM.exidx.text._ZN4core3str21_$LT$impl$u20$str$GT$13from_utf8_mut17hf789198352a0c0d6E
                0x0000000000141f00        0x0 ./gen/../tecsrust_uart_led_sample/target/armv7a-none-eabi/release/libitron.a(core-d049573bc16596f9.core.5587a85061e7188a-cgu.0.rcgu.o)
                                          0x8 (size before relaxing)
 .ARM.exidx.text._ZN4core3str21_$LT$impl$u20$str$GT$18split_at_unchecked17h522070e8531a247cE
                0x0000000000141f00        0x0 ./gen/../tecsrust_uart_led_sample/target/armv7a-none-eabi/release/libitron.a(core-d049573bc16596f9.core.5587a85061e7188a-cgu.0.rcgu.o)
                                          0x8 (size before relaxing)
 .ARM.exidx.text._ZN4core3str21_$LT$impl$u20$str$GT$22split_at_mut_unchecked17h188b8cf0a61e80b3E
                0x0000000000141f00        0x0 ./gen/../tecsrust_uart_led_sample/target/armv7a-none-eabi/release/libitron.a(core-d049573bc16596f9.core.5587a85061e7188a-cgu.0.rcgu.o)
                                          0x8 (size before relaxing)
 .ARM.exidx.text._ZN4core3str21_$LT$impl$u20$str$GT$12escape_debug17h4c843b37cf90aab8E
                0x0000000000141f00        0x0 ./gen/../tecsrust_uart_led_sample/target/armv7a-none-eabi/release/libitron.a(core-d049573bc16596f9.core.5587a85061e7188a-cgu.0.rcgu.o)
                                          0x8 (size before relaxing)
 .ARM.exidx.text._ZN4core3str21_$LT$impl$u20$str$GT$12substr_range17ha623b8a5a8d1bca1E
                0x0000000000141f00        0x0 ./gen/../tecsrust_uart_led_sample/target/armv7a-none-eabi/release/libitron.a(core-d049573bc16596f9.core.5587a85061e7188a-cgu.0.rcgu.o)
                                          0x8 (size before relaxing)
 .ARM.exidx.text._ZN57_$LT$core..time..Duration$u20$as$u20$core..fmt..Debug$GT$3fmt17hcd9ec431bc2fce92E
                0x0000000000141f00        0x0 ./gen/../tecsrust_uart_led_sample/target/armv7a-none-eabi/release/libitron.a(core-d049573bc16596f9.core.5587a85061e7188a-cgu.0.rcgu.o)
                                          0x8 (size before relaxing)
 .ARM.exidx.text._ZN57_$LT$core..time..Duration$u20$as$u20$core..fmt..Debug$GT$3fmt11fmt_decimal17h7fdaad1885d942cdE
                0x0000000000141f00        0x0 ./gen/../tecsrust_uart_led_sample/target/armv7a-none-eabi/release/libitron.a(core-d049573bc16596f9.core.5587a85061e7188a-cgu.0.rcgu.o)
                                          0x8 (size before relaxing)
 .ARM.exidx.text._ZN57_$LT$core..time..Duration$u20$as$u20$core..fmt..Debug$GT$3fmt11fmt_decimal28_$u7b$$u7b$closure$u7d$$u7d$17hbee2c0b3604668e7E
                0x0000000000141f00        0x0 ./gen/../tecsrust_uart_led_sample/target/armv7a-none-eabi/release/libitron.a(core-d049573bc16596f9.core.5587a85061e7188a-cgu.0.rcgu.o)
                                          0x8 (size before relaxing)
 .ARM.exidx.text._ZN72_$LT$core..time..TryFromFloatSecsError$u20$as$u20$core..fmt..Display$GT$3fmt17hbbacbc01f2a2ba20E
                0x0000000000141f00        0x0 ./gen/../tecsrust_uart_led_sample/target/armv7a-none-eabi/release/libitron.a(core-d049573bc16596f9.core.5587a85061e7188a-cgu.0.rcgu.o)
                                          0x8 (size before relaxing)
 .ARM.exidx.text._ZN4core7unicode9printable5check17hc9e6c3ef98e586f8E
                0x0000000000141f00        0x0 ./gen/../tecsrust_uart_led_sample/target/armv7a-none-eabi/release/libitron.a(core-d049573bc16596f9.core.5587a85061e7188a-cgu.0.rcgu.o)
                                          0x8 (size before relaxing)
 .ARM.exidx.text._ZN4core7unicode9printable12is_printable17he99174ef5bcc9597E
                0x0000000000141f00        0x0 ./gen/../tecsrust_uart_led_sample/target/armv7a-none-eabi/release/libitron.a(core-d049573bc16596f9.core.5587a85061e7188a-cgu.0.rcgu.o)
                                          0x8 (size before relaxing)
 .ARM.exidx.text._ZN62_$LT$core..task..wake..Context$u20$as$u20$core..fmt..Debug$GT$3fmt17h2b9656f805ec1368E
                0x0000000000141f00        0x0 ./gen/../tecsrust_uart_led_sample/target/armv7a-none-eabi/release/libitron.a(core-d049573bc16596f9.core.5587a85061e7188a-cgu.0.rcgu.o)
                                          0x8 (size before relaxing)
 .ARM.exidx.text._ZN60_$LT$core..task..wake..Waker$u20$as$u20$core..fmt..Debug$GT$3fmt17h961c0fb15e9f08e6E
                0x0000000000141f00        0x0 ./gen/../tecsrust_uart_led_sample/target/armv7a-none-eabi/release/libitron.a(core-d049573bc16596f9.core.5587a85061e7188a-cgu.0.rcgu.o)
                                          0x8 (size before relaxing)
 .ARM.exidx.text._ZN65_$LT$core..task..wake..LocalWaker$u20$as$u20$core..fmt..Debug$GT$3fmt17h9f8823dc3c851087E
                0x0000000000141f00        0x0 ./gen/../tecsrust_uart_led_sample/target/armv7a-none-eabi/release/libitron.a(core-d049573bc16596f9.core.5587a85061e7188a-cgu.0.rcgu.o)
                                          0x8 (size before relaxing)
 .ARM.exidx.text._ZN4core5alloc6layout6Layout19is_size_align_valid17hf9c352be39c461d0E
                0x0000000000141f00        0x0 ./gen/../tecsrust_uart_led_sample/target/armv7a-none-eabi/release/libitron.a(core-d049573bc16596f9.core.5587a85061e7188a-cgu.0.rcgu.o)
                                          0x8 (size before relaxing)
 .ARM.exidx.text._ZN71_$LT$core..alloc..layout..LayoutError$u20$as$u20$core..fmt..Display$GT$3fmt17hdfc7ce4964ee7964E
                0x0000000000141f00        0x0 ./gen/../tecsrust_uart_led_sample/target/armv7a-none-eabi/release/libitron.a(core-d049573bc16596f9.core.5587a85061e7188a-cgu.0.rcgu.o)
                                          0x8 (size before relaxing)
 .ARM.exidx.text._ZN62_$LT$core..alloc..AllocError$u20$as$u20$core..fmt..Display$GT$3fmt17h096a3621f7a659a9E
                0x0000000000141f00        0x0 ./gen/../tecsrust_uart_led_sample/target/armv7a-none-eabi/release/libitron.a(core-d049573bc16596f9.core.5587a85061e7188a-cgu.0.rcgu.o)
                                          0x8 (size before relaxing)
 .ARM.exidx.text.unlikely._ZN4core3f3221_$LT$impl$u20$f32$GT$5clamp8do_panic7runtime17hd78a99da53448aa4E
                0x0000000000141f00        0x0 ./gen/../tecsrust_uart_led_sample/target/armv7a-none-eabi/release/libitron.a(core-d049573bc16596f9.core.5587a85061e7188a-cgu.0.rcgu.o)
                                          0x8 (size before relaxing)
 .ARM.exidx.text.unlikely._ZN4core3f6421_$LT$impl$u20$f64$GT$5clamp8do_panic7runtime17h70e260bb90954182E
                0x0000000000141f00        0x0 ./gen/../tecsrust_uart_led_sample/target/armv7a-none-eabi/release/libitron.a(core-d049573bc16596f9.core.5587a85061e7188a-cgu.0.rcgu.o)
                                          0x8 (size before relaxing)
 .ARM.exidx.text._ZN49_$LT$u8$u20$as$u20$core..num..bignum..FullOps$GT$12full_div_rem17h2cc384f2d3e77a4fE
                0x0000000000141f00        0x0 ./gen/../tecsrust_uart_led_sample/target/armv7a-none-eabi/release/libitron.a(core-d049573bc16596f9.core.5587a85061e7188a-cgu.0.rcgu.o)
                                          0x8 (size before relaxing)
 .ARM.exidx.text._ZN50_$LT$u16$u20$as$u20$core..num..bignum..FullOps$GT$12full_div_rem17h895795127941bc5fE
                0x0000000000141f00        0x0 ./gen/../tecsrust_uart_led_sample/target/armv7a-none-eabi/release/libitron.a(core-d049573bc16596f9.core.5587a85061e7188a-cgu.0.rcgu.o)
                                          0x8 (size before relaxing)
 .ARM.exidx.text._ZN50_$LT$u32$u20$as$u20$core..num..bignum..FullOps$GT$12full_div_rem17h28797f3a608675a0E
                0x0000000000141f00        0x0 ./gen/../tecsrust_uart_led_sample/target/armv7a-none-eabi/release/libitron.a(core-d049573bc16596f9.core.5587a85061e7188a-cgu.0.rcgu.o)
                                          0x8 (size before relaxing)
 .ARM.exidx.text._ZN4core3num6bignum8Big32x408from_u6417hdb3b6b903cdc3a74E
                0x0000000000141f00        0x0 ./gen/../tecsrust_uart_led_sample/target/armv7a-none-eabi/release/libitron.a(core-d049573bc16596f9.core.5587a85061e7188a-cgu.0.rcgu.o)
                                          0x8 (size before relaxing)
 .ARM.exidx.text._ZN4core3num6bignum8Big32x406digits17hc74a7300cf748785E
                0x0000000000141f00        0x0 ./gen/../tecsrust_uart_led_sample/target/armv7a-none-eabi/release/libitron.a(core-d049573bc16596f9.core.5587a85061e7188a-cgu.0.rcgu.o)
                                          0x8 (size before relaxing)
 .ARM.exidx.text._ZN4core3num6bignum8Big32x407get_bit17hae59a386b0269424E
                0x0000000000141f00        0x0 ./gen/../tecsrust_uart_led_sample/target/armv7a-none-eabi/release/libitron.a(core-d049573bc16596f9.core.5587a85061e7188a-cgu.0.rcgu.o)
                                          0x8 (size before relaxing)
 .ARM.exidx.text._ZN4core3num6bignum8Big32x407is_zero17h00d7531c94d29d9dE
                0x0000000000141f00        0x0 ./gen/../tecsrust_uart_led_sample/target/armv7a-none-eabi/release/libitron.a(core-d049573bc16596f9.core.5587a85061e7188a-cgu.0.rcgu.o)
                                          0x8 (size before relaxing)
 .ARM.exidx.text._ZN4core3num6bignum8Big32x4010bit_length17h970dea92bc07a054E
                0x0000000000141f00        0x0 ./gen/../tecsrust_uart_led_sample/target/armv7a-none-eabi/release/libitron.a(core-d049573bc16596f9.core.5587a85061e7188a-cgu.0.rcgu.o)
                                          0x8 (size before relaxing)
 .ARM.exidx.text._ZN4core3num6bignum8Big32x403add17hf98911729d873c67E
                0x0000000000141f00        0x0 ./gen/../tecsrust_uart_led_sample/target/armv7a-none-eabi/release/libitron.a(core-d049573bc16596f9.core.5587a85061e7188a-cgu.0.rcgu.o)
                                          0x8 (size before relaxing)
 .ARM.exidx.text._ZN4core3num6bignum8Big32x409add_small17hae56cb6d24b5dd80E
                0x0000000000141f00        0x0 ./gen/../tecsrust_uart_led_sample/target/armv7a-none-eabi/release/libitron.a(core-d049573bc16596f9.core.5587a85061e7188a-cgu.0.rcgu.o)
                                          0x8 (size before relaxing)
 .ARM.exidx.text._ZN4core3num6bignum8Big32x403sub17h8543d30192c621ccE
                0x0000000000141f00        0x0 ./gen/../tecsrust_uart_led_sample/target/armv7a-none-eabi/release/libitron.a(core-d049573bc16596f9.core.5587a85061e7188a-cgu.0.rcgu.o)
                                          0x8 (size before relaxing)
 .ARM.exidx.text._ZN4core3num6bignum8Big32x409mul_small17h34ad2799e68baebeE
                0x0000000000141f00        0x0 ./gen/../tecsrust_uart_led_sample/target/armv7a-none-eabi/release/libitron.a(core-d049573bc16596f9.core.5587a85061e7188a-cgu.0.rcgu.o)
                                          0x8 (size before relaxing)
 .ARM.exidx.text._ZN4core3num6bignum8Big32x408mul_pow217h15e29a86c60dd6baE
                0x0000000000141f00        0x0 ./gen/../tecsrust_uart_led_sample/target/armv7a-none-eabi/release/libitron.a(core-d049573bc16596f9.core.5587a85061e7188a-cgu.0.rcgu.o)
                                          0x8 (size before relaxing)
 .ARM.exidx.text._ZN4core3num6bignum8Big32x408mul_pow517h4477c92c4a717ba9E
                0x0000000000141f00        0x0 ./gen/../tecsrust_uart_led_sample/target/armv7a-none-eabi/release/libitron.a(core-d049573bc16596f9.core.5587a85061e7188a-cgu.0.rcgu.o)
                                          0x8 (size before relaxing)
 .ARM.exidx.text._ZN4core3num6bignum8Big32x4010mul_digits17hc6f1ffa637e3696eE
                0x0000000000141f00        0x0 ./gen/../tecsrust_uart_led_sample/target/armv7a-none-eabi/release/libitron.a(core-d049573bc16596f9.core.5587a85061e7188a-cgu.0.rcgu.o)
                                          0x8 (size before relaxing)
 .ARM.exidx.text._ZN4core3num6bignum8Big32x4013div_rem_small17hddc1707b10a22fddE
                0x0000000000141f00        0x0 ./gen/../tecsrust_uart_led_sample/target/armv7a-none-eabi/release/libitron.a(core-d049573bc16596f9.core.5587a85061e7188a-cgu.0.rcgu.o)
                                          0x8 (size before relaxing)
 .ARM.exidx.text._ZN4core3num6bignum8Big32x407div_rem17h0bf0c17f8e59470eE
                0x0000000000141f00        0x0 ./gen/../tecsrust_uart_led_sample/target/armv7a-none-eabi/release/libitron.a(core-d049573bc16596f9.core.5587a85061e7188a-cgu.0.rcgu.o)
                                          0x8 (size before relaxing)
 .ARM.exidx.text._ZN68_$LT$core..num..bignum..Big32x40$u20$as$u20$core..cmp..PartialEq$GT$2eq17h2b3b2b69262323daE
                0x0000000000141f00        0x0 ./gen/../tecsrust_uart_led_sample/target/armv7a-none-eabi/release/libitron.a(core-d049573bc16596f9.core.5587a85061e7188a-cgu.0.rcgu.o)
                                          0x8 (size before relaxing)
 .ARM.exidx.text._ZN69_$LT$core..num..bignum..Big32x40$u20$as$u20$core..cmp..PartialOrd$GT$11partial_cmp17hfaa047bbd7529c6dE
                0x0000000000141f00        0x0 ./gen/../tecsrust_uart_led_sample/target/armv7a-none-eabi/release/libitron.a(core-d049573bc16596f9.core.5587a85061e7188a-cgu.0.rcgu.o)
                                          0x8 (size before relaxing)
 .ARM.exidx.text._ZN62_$LT$core..num..bignum..Big32x40$u20$as$u20$core..cmp..Ord$GT$3cmp17h3a927d79b9dd52acE
                0x0000000000141f00        0x0 ./gen/../tecsrust_uart_led_sample/target/armv7a-none-eabi/release/libitron.a(core-d049573bc16596f9.core.5587a85061e7188a-cgu.0.rcgu.o)
                                          0x8 (size before relaxing)
 .ARM.exidx.text._ZN64_$LT$core..num..bignum..Big32x40$u20$as$u20$core..fmt..Debug$GT$3fmt17hc2049124d32db79eE
                0x0000000000141f00        0x0 ./gen/../tecsrust_uart_led_sample/target/armv7a-none-eabi/release/libitron.a(core-d049573bc16596f9.core.5587a85061e7188a-cgu.0.rcgu.o)
                                          0x8 (size before relaxing)
 .ARM.exidx.text._ZN4core3num6bignum5tests6Big8x38from_u6417hd68b6d9a5152475dE
                0x0000000000141f00        0x0 ./gen/../tecsrust_uart_led_sample/target/armv7a-none-eabi/release/libitron.a(core-d049573bc16596f9.core.5587a85061e7188a-cgu.0.rcgu.o)
                                          0x8 (size before relaxing)
 .ARM.exidx.text._ZN4core3num6bignum5tests6Big8x36digits17he3519563a60c1407E
                0x0000000000141f00        0x0 ./gen/../tecsrust_uart_led_sample/target/armv7a-none-eabi/release/libitron.a(core-d049573bc16596f9.core.5587a85061e7188a-cgu.0.rcgu.o)
                                          0x8 (size before relaxing)
 .ARM.exidx.text._ZN4core3num6bignum5tests6Big8x37get_bit17h3c0e105d94bd5b13E
                0x0000000000141f00        0x0 ./gen/../tecsrust_uart_led_sample/target/armv7a-none-eabi/release/libitron.a(core-d049573bc16596f9.core.5587a85061e7188a-cgu.0.rcgu.o)
                                          0x8 (size before relaxing)
 .ARM.exidx.text._ZN4core3num6bignum5tests6Big8x37is_zero17h32e72f5d7dbb5adbE
                0x0000000000141f00        0x0 ./gen/../tecsrust_uart_led_sample/target/armv7a-none-eabi/release/libitron.a(core-d049573bc16596f9.core.5587a85061e7188a-cgu.0.rcgu.o)
                                          0x8 (size before relaxing)
 .ARM.exidx.text._ZN4core3num6bignum5tests6Big8x310bit_length17h83652b24f2592b66E
                0x0000000000141f00        0x0 ./gen/../tecsrust_uart_led_sample/target/armv7a-none-eabi/release/libitron.a(core-d049573bc16596f9.core.5587a85061e7188a-cgu.0.rcgu.o)
                                          0x8 (size before relaxing)
 .ARM.exidx.text._ZN4core3num6bignum5tests6Big8x33add17h0ea9b7b009d144c0E
                0x0000000000141f00        0x0 ./gen/../tecsrust_uart_led_sample/target/armv7a-none-eabi/release/libitron.a(core-d049573bc16596f9.core.5587a85061e7188a-cgu.0.rcgu.o)
                                          0x8 (size before relaxing)
 .ARM.exidx.text._ZN4core3num6bignum5tests6Big8x39add_small17hfb578bb3ef3121e5E
                0x0000000000141f00        0x0 ./gen/../tecsrust_uart_led_sample/target/armv7a-none-eabi/release/libitron.a(core-d049573bc16596f9.core.5587a85061e7188a-cgu.0.rcgu.o)
                                          0x8 (size before relaxing)
 .ARM.exidx.text._ZN4core3num6bignum5tests6Big8x33sub17he7cc307db19dcf38E
                0x0000000000141f00        0x0 ./gen/../tecsrust_uart_led_sample/target/armv7a-none-eabi/release/libitron.a(core-d049573bc16596f9.core.5587a85061e7188a-cgu.0.rcgu.o)
                                          0x8 (size before relaxing)
 .ARM.exidx.text._ZN4core3num6bignum5tests6Big8x39mul_small17h88500d5dffbe03a5E
                0x0000000000141f00        0x0 ./gen/../tecsrust_uart_led_sample/target/armv7a-none-eabi/release/libitron.a(core-d049573bc16596f9.core.5587a85061e7188a-cgu.0.rcgu.o)
                                          0x8 (size before relaxing)
 .ARM.exidx.text._ZN4core3num6bignum5tests6Big8x38mul_pow217h7241f869c32bebc8E
                0x0000000000141f00        0x0 ./gen/../tecsrust_uart_led_sample/target/armv7a-none-eabi/release/libitron.a(core-d049573bc16596f9.core.5587a85061e7188a-cgu.0.rcgu.o)
                                          0x8 (size before relaxing)
 .ARM.exidx.text._ZN4core3num6bignum5tests6Big8x38mul_pow517hbf8d1887a577d4b9E
                0x0000000000141f00        0x0 ./gen/../tecsrust_uart_led_sample/target/armv7a-none-eabi/release/libitron.a(core-d049573bc16596f9.core.5587a85061e7188a-cgu.0.rcgu.o)
                                          0x8 (size before relaxing)
 .ARM.exidx.text._ZN4core3num6bignum5tests6Big8x310mul_digits17hc92e3128bf16df9bE
                0x0000000000141f00        0x0 ./gen/../tecsrust_uart_led_sample/target/armv7a-none-eabi/release/libitron.a(core-d049573bc16596f9.core.5587a85061e7188a-cgu.0.rcgu.o)
                                          0x8 (size before relaxing)
 .ARM.exidx.text._ZN4core3num6bignum5tests6Big8x313div_rem_small17h3d76b4dc7e13bdf9E
                0x0000000000141f00        0x0 ./gen/../tecsrust_uart_led_sample/target/armv7a-none-eabi/release/libitron.a(core-d049573bc16596f9.core.5587a85061e7188a-cgu.0.rcgu.o)
                                          0x8 (size before relaxing)
 .ARM.exidx.text._ZN4core3num6bignum5tests6Big8x37div_rem17hd07a45cafecfa95dE
                0x0000000000141f00        0x0 ./gen/../tecsrust_uart_led_sample/target/armv7a-none-eabi/release/libitron.a(core-d049573bc16596f9.core.5587a85061e7188a-cgu.0.rcgu.o)
                                          0x8 (size before relaxing)
 .ARM.exidx.text._ZN73_$LT$core..num..bignum..tests..Big8x3$u20$as$u20$core..cmp..PartialEq$GT$2eq17h2a5bec94bf0063b9E
                0x0000000000141f00        0x0 ./gen/../tecsrust_uart_led_sample/target/armv7a-none-eabi/release/libitron.a(core-d049573bc16596f9.core.5587a85061e7188a-cgu.0.rcgu.o)
                                          0x8 (size before relaxing)
 .ARM.exidx.text._ZN74_$LT$core..num..bignum..tests..Big8x3$u20$as$u20$core..cmp..PartialOrd$GT$11partial_cmp17h48d5846d2573a5e1E
                0x0000000000141f00        0x0 ./gen/../tecsrust_uart_led_sample/target/armv7a-none-eabi/release/libitron.a(core-d049573bc16596f9.core.5587a85061e7188a-cgu.0.rcgu.o)
                                          0x8 (size before relaxing)
 .ARM.exidx.text._ZN67_$LT$core..num..bignum..tests..Big8x3$u20$as$u20$core..cmp..Ord$GT$3cmp17h8a7502baf7f3c9a5E
                0x0000000000141f00        0x0 ./gen/../tecsrust_uart_led_sample/target/armv7a-none-eabi/release/libitron.a(core-d049573bc16596f9.core.5587a85061e7188a-cgu.0.rcgu.o)
                                          0x8 (size before relaxing)
 .ARM.exidx.text._ZN69_$LT$core..num..bignum..tests..Big8x3$u20$as$u20$core..fmt..Debug$GT$3fmt17hf9300f71b8428542E
                0x0000000000141f00        0x0 ./gen/../tecsrust_uart_led_sample/target/armv7a-none-eabi/release/libitron.a(core-d049573bc16596f9.core.5587a85061e7188a-cgu.0.rcgu.o)
                                          0x8 (size before relaxing)
 .ARM.exidx.text._ZN4core3num7dec2flt60_$LT$impl$u20$core..str..traits..FromStr$u20$for$u20$f16$GT$8from_str17h0d34f16cb03d4084E
                0x0000000000141f00        0x0 ./gen/../tecsrust_uart_led_sample/target/armv7a-none-eabi/release/libitron.a(core-d049573bc16596f9.core.5587a85061e7188a-cgu.0.rcgu.o)
                                          0x8 (size before relaxing)
 .ARM.exidx.text._ZN4core3num7dec2flt60_$LT$impl$u20$core..str..traits..FromStr$u20$for$u20$f32$GT$8from_str17haab41bb9ce3e1e69E
                0x0000000000141f00        0x0 ./gen/../tecsrust_uart_led_sample/target/armv7a-none-eabi/release/libitron.a(core-d049573bc16596f9.core.5587a85061e7188a-cgu.0.rcgu.o)
                                          0x8 (size before relaxing)
 .ARM.exidx.text._ZN4core3num7dec2flt60_$LT$impl$u20$core..str..traits..FromStr$u20$for$u20$f64$GT$8from_str17h9934b968a57533b4E
                0x0000000000141f00        0x0 ./gen/../tecsrust_uart_led_sample/target/armv7a-none-eabi/release/libitron.a(core-d049573bc16596f9.core.5587a85061e7188a-cgu.0.rcgu.o)
                                          0x8 (size before relaxing)
 .ARM.exidx.text._ZN73_$LT$core..num..nonzero..NonZero$LT$T$GT$$u20$as$u20$core..fmt..Debug$GT$3fmt17hfee7ea0a19225bacE
                0x0000000000141f00        0x0 ./gen/../tecsrust_uart_led_sample/target/armv7a-none-eabi/release/libitron.a(core-d049573bc16596f9.core.5587a85061e7188a-cgu.0.rcgu.o)
                                          0x8 (size before relaxing)
 .ARM.exidx.text._ZN84_$LT$core..num..nonzero..NonZero$LT$u8$GT$$u20$as$u20$core..str..traits..FromStr$GT$8from_str17ha566d71859ee37bcE
                0x0000000000141f00        0x0 ./gen/../tecsrust_uart_led_sample/target/armv7a-none-eabi/release/libitron.a(core-d049573bc16596f9.core.5587a85061e7188a-cgu.0.rcgu.o)
                                          0x8 (size before relaxing)
 .ARM.exidx.text._ZN85_$LT$core..num..nonzero..NonZero$LT$u16$GT$$u20$as$u20$core..str..traits..FromStr$GT$8from_str17h22aefbcb4cc26c68E
                0x0000000000141f00        0x0 ./gen/../tecsrust_uart_led_sample/target/armv7a-none-eabi/release/libitron.a(core-d049573bc16596f9.core.5587a85061e7188a-cgu.0.rcgu.o)
                                          0x8 (size before relaxing)
 .ARM.exidx.text._ZN85_$LT$core..num..nonzero..NonZero$LT$u32$GT$$u20$as$u20$core..str..traits..FromStr$GT$8from_str17h957fe3dbd5a241bcE
                0x0000000000141f00        0x0 ./gen/../tecsrust_uart_led_sample/target/armv7a-none-eabi/release/libitron.a(core-d049573bc16596f9.core.5587a85061e7188a-cgu.0.rcgu.o)
                                          0x8 (size before relaxing)
 .ARM.exidx.text._ZN85_$LT$core..num..nonzero..NonZero$LT$u64$GT$$u20$as$u20$core..str..traits..FromStr$GT$8from_str17hb05b038cb220d66cE
                0x0000000000141f00        0x0 ./gen/../tecsrust_uart_led_sample/target/armv7a-none-eabi/release/libitron.a(core-d049573bc16596f9.core.5587a85061e7188a-cgu.0.rcgu.o)
                                          0x8 (size before relaxing)
 .ARM.exidx.text._ZN86_$LT$core..num..nonzero..NonZero$LT$u128$GT$$u20$as$u20$core..str..traits..FromStr$GT$8from_str17hce0b07860262ce09E
                0x0000000000141f00        0x0 ./gen/../tecsrust_uart_led_sample/target/armv7a-none-eabi/release/libitron.a(core-d049573bc16596f9.core.5587a85061e7188a-cgu.0.rcgu.o)
                                          0x8 (size before relaxing)
 .ARM.exidx.text._ZN87_$LT$core..num..nonzero..NonZero$LT$usize$GT$$u20$as$u20$core..str..traits..FromStr$GT$8from_str17h1733288da9636848E
                0x0000000000141f00        0x0 ./gen/../tecsrust_uart_led_sample/target/armv7a-none-eabi/release/libitron.a(core-d049573bc16596f9.core.5587a85061e7188a-cgu.0.rcgu.o)
                                          0x8 (size before relaxing)
 .ARM.exidx.text._ZN84_$LT$core..num..nonzero..NonZero$LT$i8$GT$$u20$as$u20$core..str..traits..FromStr$GT$8from_str17hebe21d8ddaff9330E
                0x0000000000141f00        0x0 ./gen/../tecsrust_uart_led_sample/target/armv7a-none-eabi/release/libitron.a(core-d049573bc16596f9.core.5587a85061e7188a-cgu.0.rcgu.o)
                                          0x8 (size before relaxing)
 .ARM.exidx.text._ZN85_$LT$core..num..nonzero..NonZero$LT$i16$GT$$u20$as$u20$core..str..traits..FromStr$GT$8from_str17h5460cf01298f7943E
                0x0000000000141f00        0x0 ./gen/../tecsrust_uart_led_sample/target/armv7a-none-eabi/release/libitron.a(core-d049573bc16596f9.core.5587a85061e7188a-cgu.0.rcgu.o)
                                          0x8 (size before relaxing)
 .ARM.exidx.text._ZN85_$LT$core..num..nonzero..NonZero$LT$i32$GT$$u20$as$u20$core..str..traits..FromStr$GT$8from_str17h82302f5d78c06a81E
                0x0000000000141f00        0x0 ./gen/../tecsrust_uart_led_sample/target/armv7a-none-eabi/release/libitron.a(core-d049573bc16596f9.core.5587a85061e7188a-cgu.0.rcgu.o)
                                          0x8 (size before relaxing)
 .ARM.exidx.text._ZN85_$LT$core..num..nonzero..NonZero$LT$i64$GT$$u20$as$u20$core..str..traits..FromStr$GT$8from_str17hf63377f21a3fb6baE
                0x0000000000141f00        0x0 ./gen/../tecsrust_uart_led_sample/target/armv7a-none-eabi/release/libitron.a(core-d049573bc16596f9.core.5587a85061e7188a-cgu.0.rcgu.o)
                                          0x8 (size before relaxing)
 .ARM.exidx.text._ZN86_$LT$core..num..nonzero..NonZero$LT$i128$GT$$u20$as$u20$core..str..traits..FromStr$GT$8from_str17h404bcfcc368805b5E
                0x0000000000141f00        0x0 ./gen/../tecsrust_uart_led_sample/target/armv7a-none-eabi/release/libitron.a(core-d049573bc16596f9.core.5587a85061e7188a-cgu.0.rcgu.o)
                                          0x8 (size before relaxing)
 .ARM.exidx.text._ZN72_$LT$core..num..niche_types..Nanoseconds$u20$as$u20$core..fmt..Debug$GT$3fmt17h6df87c1b0e86c542E
                0x0000000000141f00        0x0 ./gen/../tecsrust_uart_led_sample/target/armv7a-none-eabi/release/libitron.a(core-d049573bc16596f9.core.5587a85061e7188a-cgu.0.rcgu.o)
                                          0x8 (size before relaxing)
 .ARM.exidx.text._ZN75_$LT$core..num..niche_types..NonZeroU8Inner$u20$as$u20$core..fmt..Debug$GT$3fmt17h9934d86d94d3ba9dE
                0x0000000000141f00        0x0 ./gen/../tecsrust_uart_led_sample/target/armv7a-none-eabi/release/libitron.a(core-d049573bc16596f9.core.5587a85061e7188a-cgu.0.rcgu.o)
                                          0x8 (size before relaxing)
 .ARM.exidx.text._ZN76_$LT$core..num..niche_types..NonZeroU16Inner$u20$as$u20$core..fmt..Debug$GT$3fmt17h1e0f277c7c9985fdE
                0x0000000000141f00        0x0 ./gen/../tecsrust_uart_led_sample/target/armv7a-none-eabi/release/libitron.a(core-d049573bc16596f9.core.5587a85061e7188a-cgu.0.rcgu.o)
                                          0x8 (size before relaxing)
 .ARM.exidx.text._ZN76_$LT$core..num..niche_types..NonZeroU32Inner$u20$as$u20$core..fmt..Debug$GT$3fmt17h4208945a1918bf76E
                0x0000000000141f00        0x0 ./gen/../tecsrust_uart_led_sample/target/armv7a-none-eabi/release/libitron.a(core-d049573bc16596f9.core.5587a85061e7188a-cgu.0.rcgu.o)
                                          0x8 (size before relaxing)
 .ARM.exidx.text._ZN76_$LT$core..num..niche_types..NonZeroU64Inner$u20$as$u20$core..fmt..Debug$GT$3fmt17hcec75d0956b73778E
                0x0000000000141f00        0x0 ./gen/../tecsrust_uart_led_sample/target/armv7a-none-eabi/release/libitron.a(core-d049573bc16596f9.core.5587a85061e7188a-cgu.0.rcgu.o)
                                          0x8 (size before relaxing)
 .ARM.exidx.text._ZN77_$LT$core..num..niche_types..NonZeroU128Inner$u20$as$u20$core..fmt..Debug$GT$3fmt17h5bc8c49a87650843E
                0x0000000000141f00        0x0 ./gen/../tecsrust_uart_led_sample/target/armv7a-none-eabi/release/libitron.a(core-d049573bc16596f9.core.5587a85061e7188a-cgu.0.rcgu.o)
                                          0x8 (size before relaxing)
 .ARM.exidx.text._ZN75_$LT$core..num..niche_types..NonZeroI8Inner$u20$as$u20$core..fmt..Debug$GT$3fmt17hc1ad68564dffd6e0E
                0x0000000000141f00        0x0 ./gen/../tecsrust_uart_led_sample/target/armv7a-none-eabi/release/libitron.a(core-d049573bc16596f9.core.5587a85061e7188a-cgu.0.rcgu.o)
                                          0x8 (size before relaxing)
 .ARM.exidx.text._ZN76_$LT$core..num..niche_types..NonZeroI16Inner$u20$as$u20$core..fmt..Debug$GT$3fmt17h1bae456063d3b38aE
                0x0000000000141f00        0x0 ./gen/../tecsrust_uart_led_sample/target/armv7a-none-eabi/release/libitron.a(core-d049573bc16596f9.core.5587a85061e7188a-cgu.0.rcgu.o)
                                          0x8 (size before relaxing)
 .ARM.exidx.text._ZN76_$LT$core..num..niche_types..NonZeroI32Inner$u20$as$u20$core..fmt..Debug$GT$3fmt17h22fbf48f72b85284E
                0x0000000000141f00        0x0 ./gen/../tecsrust_uart_led_sample/target/armv7a-none-eabi/release/libitron.a(core-d049573bc16596f9.core.5587a85061e7188a-cgu.0.rcgu.o)
                                          0x8 (size before relaxing)
 .ARM.exidx.text._ZN76_$LT$core..num..niche_types..NonZeroI64Inner$u20$as$u20$core..fmt..Debug$GT$3fmt17h8bb2c468a465aac2E
                0x0000000000141f00        0x0 ./gen/../tecsrust_uart_led_sample/target/armv7a-none-eabi/release/libitron.a(core-d049573bc16596f9.core.5587a85061e7188a-cgu.0.rcgu.o)
                                          0x8 (size before relaxing)
 .ARM.exidx.text._ZN77_$LT$core..num..niche_types..NonZeroI128Inner$u20$as$u20$core..fmt..Debug$GT$3fmt17h7658577fe72d6a93E
                0x0000000000141f00        0x0 ./gen/../tecsrust_uart_led_sample/target/armv7a-none-eabi/release/libitron.a(core-d049573bc16596f9.core.5587a85061e7188a-cgu.0.rcgu.o)
                                          0x8 (size before relaxing)
 .ARM.exidx.text._ZN75_$LT$core..num..niche_types..UsizeNoHighBit$u20$as$u20$core..fmt..Debug$GT$3fmt17h77e5bca56126e0b7E
                0x0000000000141f00        0x0 ./gen/../tecsrust_uart_led_sample/target/armv7a-none-eabi/release/libitron.a(core-d049573bc16596f9.core.5587a85061e7188a-cgu.0.rcgu.o)
                                          0x8 (size before relaxing)
 .ARM.exidx.text._ZN74_$LT$core..num..niche_types..U32NotAllOnes$u20$as$u20$core..fmt..Debug$GT$3fmt17hdae2b85bd7a76fa0E
                0x0000000000141f00        0x0 ./gen/../tecsrust_uart_led_sample/target/armv7a-none-eabi/release/libitron.a(core-d049573bc16596f9.core.5587a85061e7188a-cgu.0.rcgu.o)
                                          0x8 (size before relaxing)
 .ARM.exidx.text._ZN74_$LT$core..num..niche_types..I32NotAllOnes$u20$as$u20$core..fmt..Debug$GT$3fmt17ha30c204f41712d0cE
                0x0000000000141f00        0x0 ./gen/../tecsrust_uart_led_sample/target/armv7a-none-eabi/release/libitron.a(core-d049573bc16596f9.core.5587a85061e7188a-cgu.0.rcgu.o)
                                          0x8 (size before relaxing)
 .ARM.exidx.text._ZN74_$LT$core..num..niche_types..U64NotAllOnes$u20$as$u20$core..fmt..Debug$GT$3fmt17h9aae2314a6753889E
                0x0000000000141f00        0x0 ./gen/../tecsrust_uart_led_sample/target/armv7a-none-eabi/release/libitron.a(core-d049573bc16596f9.core.5587a85061e7188a-cgu.0.rcgu.o)
                                          0x8 (size before relaxing)
 .ARM.exidx.text._ZN74_$LT$core..num..niche_types..I64NotAllOnes$u20$as$u20$core..fmt..Debug$GT$3fmt17hcd11c67aaecfa5cdE
                0x0000000000141f00        0x0 ./gen/../tecsrust_uart_led_sample/target/armv7a-none-eabi/release/libitron.a(core-d049573bc16596f9.core.5587a85061e7188a-cgu.0.rcgu.o)
                                          0x8 (size before relaxing)
 .ARM.exidx.text.unlikely._ZN4core3num22from_ascii_radix_panic8do_panic7runtime17h20bf34c324abd015E
                0x0000000000141f00        0x0 ./gen/../tecsrust_uart_led_sample/target/armv7a-none-eabi/release/libitron.a(core-d049573bc16596f9.core.5587a85061e7188a-cgu.0.rcgu.o)
                                          0x8 (size before relaxing)
 .ARM.exidx.text.unlikely._ZN4core10intrinsics3mir11PtrMetadata19panic_cold_explicit17h38f2b2d764b9fcc9E
                0x0000000000141f00        0x0 ./gen/../tecsrust_uart_led_sample/target/armv7a-none-eabi/release/libitron.a(core-d049573bc16596f9.core.5587a85061e7188a-cgu.0.rcgu.o)
                                          0x8 (size before relaxing)
 .ARM.exidx.text._ZN85_$LT$core..marker..variance..PhantomCovariantLifetime$u20$as$u20$core..fmt..Debug$GT$3fmt17h092ab231f6840623E
                0x0000000000141f00        0x0 ./gen/../tecsrust_uart_led_sample/target/armv7a-none-eabi/release/libitron.a(core-d049573bc16596f9.core.5587a85061e7188a-cgu.0.rcgu.o)
                                          0x8 (size before relaxing)
 .ARM.exidx.text._ZN89_$LT$core..marker..variance..PhantomContravariantLifetime$u20$as$u20$core..fmt..Debug$GT$3fmt17hc36f606a10431dddE
                0x0000000000141f00        0x0 ./gen/../tecsrust_uart_led_sample/target/armv7a-none-eabi/release/libitron.a(core-d049573bc16596f9.core.5587a85061e7188a-cgu.0.rcgu.o)
                                          0x8 (size before relaxing)
 .ARM.exidx.text._ZN85_$LT$core..marker..variance..PhantomInvariantLifetime$u20$as$u20$core..fmt..Debug$GT$3fmt17h310726426d633410E
                0x0000000000141f00        0x0 ./gen/../tecsrust_uart_led_sample/target/armv7a-none-eabi/release/libitron.a(core-d049573bc16596f9.core.5587a85061e7188a-cgu.0.rcgu.o)
                                          0x8 (size before relaxing)
 .ARM.exidx.text.unlikely._ZN4core4char7methods15encode_utf8_raw8do_panic7runtime17h8d77bbd109129b2bE
                0x0000000000141f00        0x0 ./gen/../tecsrust_uart_led_sample/target/armv7a-none-eabi/release/libitron.a(core-d049573bc16596f9.core.5587a85061e7188a-cgu.0.rcgu.o)
                                          0x8 (size before relaxing)
 .ARM.exidx.text.unlikely._ZN4core4char7methods16encode_utf16_raw8do_panic7runtime17h780c16f034ec0cfdE
                0x0000000000141f00        0x0 ./gen/../tecsrust_uart_led_sample/target/armv7a-none-eabi/release/libitron.a(core-d049573bc16596f9.core.5587a85061e7188a-cgu.0.rcgu.o)
                                          0x8 (size before relaxing)
 .ARM.exidx.text._ZN82_$LT$core..char..ToLowercase$u20$as$u20$core..iter..traits..iterator..Iterator$GT$4next17hb1b5d710b70686acE
                0x0000000000141f00        0x0 ./gen/../tecsrust_uart_led_sample/target/armv7a-none-eabi/release/libitron.a(core-d049573bc16596f9.core.5587a85061e7188a-cgu.0.rcgu.o)
                                          0x8 (size before relaxing)
 .ARM.exidx.text._ZN82_$LT$core..char..ToLowercase$u20$as$u20$core..iter..traits..iterator..Iterator$GT$5count17h491b5e4cf6ec5bd0E
                0x0000000000141f00        0x0 ./gen/../tecsrust_uart_led_sample/target/armv7a-none-eabi/release/libitron.a(core-d049573bc16596f9.core.5587a85061e7188a-cgu.0.rcgu.o)
                                          0x8 (size before relaxing)
 .ARM.exidx.text._ZN82_$LT$core..char..ToLowercase$u20$as$u20$core..iter..traits..iterator..Iterator$GT$4last17h2be1d7bd83ecbf83E
                0x0000000000141f00        0x0 ./gen/../tecsrust_uart_led_sample/target/armv7a-none-eabi/release/libitron.a(core-d049573bc16596f9.core.5587a85061e7188a-cgu.0.rcgu.o)
                                          0x8 (size before relaxing)
 .ARM.exidx.text._ZN82_$LT$core..char..ToLowercase$u20$as$u20$core..iter..traits..iterator..Iterator$GT$10advance_by17h472a89f7f4a2644dE
                0x0000000000141f00        0x0 ./gen/../tecsrust_uart_led_sample/target/armv7a-none-eabi/release/libitron.a(core-d049573bc16596f9.core.5587a85061e7188a-cgu.0.rcgu.o)
                                          0x8 (size before relaxing)
 .ARM.exidx.text._ZN82_$LT$core..char..ToLowercase$u20$as$u20$core..iter..traits..iterator..Iterator$GT$24__iterator_get_unchecked17h3837a4656c9589c7E
                0x0000000000141f00        0x0 ./gen/../tecsrust_uart_led_sample/target/armv7a-none-eabi/release/libitron.a(core-d049573bc16596f9.core.5587a85061e7188a-cgu.0.rcgu.o)
                                          0x8 (size before relaxing)
 .ARM.exidx.text._ZN97_$LT$core..char..ToLowercase$u20$as$u20$core..iter..traits..double_ended..DoubleEndedIterator$GT$9next_back17h3de266f316e266adE
                0x0000000000141f00        0x0 ./gen/../tecsrust_uart_led_sample/target/armv7a-none-eabi/release/libitron.a(core-d049573bc16596f9.core.5587a85061e7188a-cgu.0.rcgu.o)
                                          0x8 (size before relaxing)
 .ARM.exidx.text._ZN97_$LT$core..char..ToLowercase$u20$as$u20$core..iter..traits..double_ended..DoubleEndedIterator$GT$15advance_back_by17h5316befd367a240aE
                0x0000000000141f00        0x0 ./gen/../tecsrust_uart_led_sample/target/armv7a-none-eabi/release/libitron.a(core-d049573bc16596f9.core.5587a85061e7188a-cgu.0.rcgu.o)
                                          0x8 (size before relaxing)
 .ARM.exidx.text._ZN62_$LT$core..char..ToLowercase$u20$as$u20$core..fmt..Display$GT$3fmt17hba63d2a00808b5c9E
                0x0000000000141f00        0x0 ./gen/../tecsrust_uart_led_sample/target/armv7a-none-eabi/release/libitron.a(core-d049573bc16596f9.core.5587a85061e7188a-cgu.0.rcgu.o)
                                          0x8 (size before relaxing)
 .ARM.exidx.text._ZN77_$LT$core..net..ip_addr..Ipv4Addr$u20$as$u20$core..ops..bit..BitAndAssign$GT$13bitand_assign17h4b36b47131fa5cc4E
                0x0000000000141f00        0x0 ./gen/../tecsrust_uart_led_sample/target/armv7a-none-eabi/release/libitron.a(core-d049573bc16596f9.core.5587a85061e7188a-cgu.0.rcgu.o)
                                          0x8 (size before relaxing)
 .ARM.exidx.text._ZN117_$LT$core..net..ip_addr..Ipv4Addr$u20$as$u20$core..ops..bit..BitAndAssign$LT$$RF$core..net..ip_addr..Ipv4Addr$GT$$GT$13bitand_assign17h0229d9be4c328c70E
                0x0000000000141f00        0x0 ./gen/../tecsrust_uart_led_sample/target/armv7a-none-eabi/release/libitron.a(core-d049573bc16596f9.core.5587a85061e7188a-cgu.0.rcgu.o)
                                          0x8 (size before relaxing)
 .ARM.exidx.text._ZN76_$LT$core..net..ip_addr..Ipv4Addr$u20$as$u20$core..ops..bit..BitOrAssign$GT$12bitor_assign17h5dbcc27e1bc263c6E
                0x0000000000141f00        0x0 ./gen/../tecsrust_uart_led_sample/target/armv7a-none-eabi/release/libitron.a(core-d049573bc16596f9.core.5587a85061e7188a-cgu.0.rcgu.o)
                                          0x8 (size before relaxing)
 .ARM.exidx.text._ZN116_$LT$core..net..ip_addr..Ipv4Addr$u20$as$u20$core..ops..bit..BitOrAssign$LT$$RF$core..net..ip_addr..Ipv4Addr$GT$$GT$12bitor_assign17h44764761fe65c596E
                0x0000000000141f00        0x0 ./gen/../tecsrust_uart_led_sample/target/armv7a-none-eabi/release/libitron.a(core-d049573bc16596f9.core.5587a85061e7188a-cgu.0.rcgu.o)
                                          0x8 (size before relaxing)
 .ARM.exidx.text._ZN77_$LT$core..net..ip_addr..Ipv6Addr$u20$as$u20$core..ops..bit..BitAndAssign$GT$13bitand_assign17hdf1001071943e21cE
                0x0000000000141f00        0x0 ./gen/../tecsrust_uart_led_sample/target/armv7a-none-eabi/release/libitron.a(core-d049573bc16596f9.core.5587a85061e7188a-cgu.0.rcgu.o)
                                          0x8 (size before relaxing)
 .ARM.exidx.text._ZN117_$LT$core..net..ip_addr..Ipv6Addr$u20$as$u20$core..ops..bit..BitAndAssign$LT$$RF$core..net..ip_addr..Ipv6Addr$GT$$GT$13bitand_assign17hecc377bff21d2c6fE
                0x0000000000141f00        0x0 ./gen/../tecsrust_uart_led_sample/target/armv7a-none-eabi/release/libitron.a(core-d049573bc16596f9.core.5587a85061e7188a-cgu.0.rcgu.o)
                                          0x8 (size before relaxing)
 .ARM.exidx.text._ZN76_$LT$core..net..ip_addr..Ipv6Addr$u20$as$u20$core..ops..bit..BitOrAssign$GT$12bitor_assign17h8802b9526f9e1ec3E
                0x0000000000141f00        0x0 ./gen/../tecsrust_uart_led_sample/target/armv7a-none-eabi/release/libitron.a(core-d049573bc16596f9.core.5587a85061e7188a-cgu.0.rcgu.o)
                                          0x8 (size before relaxing)
 .ARM.exidx.text._ZN116_$LT$core..net..ip_addr..Ipv6Addr$u20$as$u20$core..ops..bit..BitOrAssign$LT$$RF$core..net..ip_addr..Ipv6Addr$GT$$GT$12bitor_assign17h15c5b2f4ea6a9f87E
                0x0000000000141f00        0x0 ./gen/../tecsrust_uart_led_sample/target/armv7a-none-eabi/release/libitron.a(core-d049573bc16596f9.core.5587a85061e7188a-cgu.0.rcgu.o)
                                          0x8 (size before relaxing)
 .ARM.exidx.text.unlikely._ZN4core9panicking11panic_const24panic_const_add_overflow17h518b917df10cd0eaE
                0x0000000000141f00        0x0 ./gen/../tecsrust_uart_led_sample/target/armv7a-none-eabi/release/libitron.a(core-d049573bc16596f9.core.5587a85061e7188a-cgu.0.rcgu.o)
                                          0x8 (size before relaxing)
 .ARM.exidx.text.unlikely._ZN4core9panicking11panic_const24panic_const_sub_overflow17h60c8487e53d0d3c1E
                0x0000000000141f00        0x0 ./gen/../tecsrust_uart_led_sample/target/armv7a-none-eabi/release/libitron.a(core-d049573bc16596f9.core.5587a85061e7188a-cgu.0.rcgu.o)
                                          0x8 (size before relaxing)
 .ARM.exidx.text.unlikely._ZN4core9panicking11panic_const24panic_const_mul_overflow17h1a47d5361b03bf6eE
                0x0000000000141f00        0x0 ./gen/../tecsrust_uart_led_sample/target/armv7a-none-eabi/release/libitron.a(core-d049573bc16596f9.core.5587a85061e7188a-cgu.0.rcgu.o)
                                          0x8 (size before relaxing)
 .ARM.exidx.text.unlikely._ZN4core9panicking11panic_const24panic_const_div_overflow17heddbfb5e687a03bcE
                0x0000000000141f00        0x0 ./gen/../tecsrust_uart_led_sample/target/armv7a-none-eabi/release/libitron.a(core-d049573bc16596f9.core.5587a85061e7188a-cgu.0.rcgu.o)
                                          0x8 (size before relaxing)
 .ARM.exidx.text.unlikely._ZN4core9panicking11panic_const24panic_const_rem_overflow17h3335d23af842c741E
                0x0000000000141f00        0x0 ./gen/../tecsrust_uart_led_sample/target/armv7a-none-eabi/release/libitron.a(core-d049573bc16596f9.core.5587a85061e7188a-cgu.0.rcgu.o)
                                          0x8 (size before relaxing)
 .ARM.exidx.text.unlikely._ZN4core9panicking11panic_const24panic_const_neg_overflow17hd6798e66c62ddff6E
                0x0000000000141f00        0x0 ./gen/../tecsrust_uart_led_sample/target/armv7a-none-eabi/release/libitron.a(core-d049573bc16596f9.core.5587a85061e7188a-cgu.0.rcgu.o)
                                          0x8 (size before relaxing)
 .ARM.exidx.text.unlikely._ZN4core9panicking11panic_const24panic_const_shr_overflow17hc596d1ddf3d71019E
                0x0000000000141f00        0x0 ./gen/../tecsrust_uart_led_sample/target/armv7a-none-eabi/release/libitron.a(core-d049573bc16596f9.core.5587a85061e7188a-cgu.0.rcgu.o)
                                          0x8 (size before relaxing)
 .ARM.exidx.text.unlikely._ZN4core9panicking11panic_const24panic_const_shl_overflow17hab60c2de69792ef8E
                0x0000000000141f00        0x0 ./gen/../tecsrust_uart_led_sample/target/armv7a-none-eabi/release/libitron.a(core-d049573bc16596f9.core.5587a85061e7188a-cgu.0.rcgu.o)
                                          0x8 (size before relaxing)
 .ARM.exidx.text.unlikely._ZN4core9panicking11panic_const23panic_const_div_by_zero17h841ebc415392a309E
                0x0000000000141f00        0x0 ./gen/../tecsrust_uart_led_sample/target/armv7a-none-eabi/release/libitron.a(core-d049573bc16596f9.core.5587a85061e7188a-cgu.0.rcgu.o)
                                          0x8 (size before relaxing)
 .ARM.exidx.text.unlikely._ZN4core9panicking11panic_const23panic_const_rem_by_zero17h84c76eadc69bd9a6E
                0x0000000000141f00        0x0 ./gen/../tecsrust_uart_led_sample/target/armv7a-none-eabi/release/libitron.a(core-d049573bc16596f9.core.5587a85061e7188a-cgu.0.rcgu.o)
                                          0x8 (size before relaxing)
 .ARM.exidx.text.unlikely._ZN4core9panicking11panic_const29panic_const_coroutine_resumed17hc1fec1f49fb82aacE
                0x0000000000141f00        0x0 ./gen/../tecsrust_uart_led_sample/target/armv7a-none-eabi/release/libitron.a(core-d049573bc16596f9.core.5587a85061e7188a-cgu.0.rcgu.o)
                                          0x8 (size before relaxing)
 .ARM.exidx.text.unlikely._ZN4core9panicking11panic_const28panic_const_async_fn_resumed17h4c52fb4e1fc04b7eE
                0x0000000000141f00        0x0 ./gen/../tecsrust_uart_led_sample/target/armv7a-none-eabi/release/libitron.a(core-d049573bc16596f9.core.5587a85061e7188a-cgu.0.rcgu.o)
                                          0x8 (size before relaxing)
 .ARM.exidx.text.unlikely._ZN4core9panicking11panic_const32panic_const_async_gen_fn_resumed17hf6dc0ef665815d93E
                0x0000000000141f00        0x0 ./gen/../tecsrust_uart_led_sample/target/armv7a-none-eabi/release/libitron.a(core-d049573bc16596f9.core.5587a85061e7188a-cgu.0.rcgu.o)
                                          0x8 (size before relaxing)
 .ARM.exidx.text.unlikely._ZN4core9panicking11panic_const23panic_const_gen_fn_none17h9943346b0c293476E
                0x0000000000141f00        0x0 ./gen/../tecsrust_uart_led_sample/target/armv7a-none-eabi/release/libitron.a(core-d049573bc16596f9.core.5587a85061e7188a-cgu.0.rcgu.o)
                                          0x8 (size before relaxing)
 .ARM.exidx.text.unlikely._ZN4core9panicking11panic_const35panic_const_coroutine_resumed_panic17ha931fedc2d097cbcE
                0x0000000000141f00        0x0 ./gen/../tecsrust_uart_led_sample/target/armv7a-none-eabi/release/libitron.a(core-d049573bc16596f9.core.5587a85061e7188a-cgu.0.rcgu.o)
                                          0x8 (size before relaxing)
 .ARM.exidx.text.unlikely._ZN4core9panicking11panic_const34panic_const_async_fn_resumed_panic17he3287dd12fe7b10fE
                0x0000000000141f00        0x0 ./gen/../tecsrust_uart_led_sample/target/armv7a-none-eabi/release/libitron.a(core-d049573bc16596f9.core.5587a85061e7188a-cgu.0.rcgu.o)
                                          0x8 (size before relaxing)
 .ARM.exidx.text.unlikely._ZN4core9panicking11panic_const38panic_const_async_gen_fn_resumed_panic17hd2dc1333c03262feE
                0x0000000000141f00        0x0 ./gen/../tecsrust_uart_led_sample/target/armv7a-none-eabi/release/libitron.a(core-d049573bc16596f9.core.5587a85061e7188a-cgu.0.rcgu.o)
                                          0x8 (size before relaxing)
 .ARM.exidx.text.unlikely._ZN4core9panicking11panic_const29panic_const_gen_fn_none_panic17h5c1c229e3a40efecE
                0x0000000000141f00        0x0 ./gen/../tecsrust_uart_led_sample/target/armv7a-none-eabi/release/libitron.a(core-d049573bc16596f9.core.5587a85061e7188a-cgu.0.rcgu.o)
                                          0x8 (size before relaxing)
 .ARM.exidx.text.unlikely._ZN4core9panicking11panic_const34panic_const_coroutine_resumed_drop17h80f9fb05c90896faE
                0x0000000000141f00        0x0 ./gen/../tecsrust_uart_led_sample/target/armv7a-none-eabi/release/libitron.a(core-d049573bc16596f9.core.5587a85061e7188a-cgu.0.rcgu.o)
                                          0x8 (size before relaxing)
 .ARM.exidx.text.unlikely._ZN4core9panicking11panic_const33panic_const_async_fn_resumed_drop17h372a153677563730E
                0x0000000000141f00        0x0 ./gen/../tecsrust_uart_led_sample/target/armv7a-none-eabi/release/libitron.a(core-d049573bc16596f9.core.5587a85061e7188a-cgu.0.rcgu.o)
                                          0x8 (size before relaxing)
 .ARM.exidx.text.unlikely._ZN4core9panicking11panic_const37panic_const_async_gen_fn_resumed_drop17hf44454f4c0322d5eE
                0x0000000000141f00        0x0 ./gen/../tecsrust_uart_led_sample/target/armv7a-none-eabi/release/libitron.a(core-d049573bc16596f9.core.5587a85061e7188a-cgu.0.rcgu.o)
                                          0x8 (size before relaxing)
 .ARM.exidx.text.unlikely._ZN4core9panicking11panic_const28panic_const_gen_fn_none_drop17h79a2beef01222142E
                0x0000000000141f00        0x0 ./gen/../tecsrust_uart_led_sample/target/armv7a-none-eabi/release/libitron.a(core-d049573bc16596f9.core.5587a85061e7188a-cgu.0.rcgu.o)
                                          0x8 (size before relaxing)
 .ARM.exidx.text._ZN46_$LT$i8$u20$as$u20$core..pat..RangePattern$GT$7sub_one17h9c88d58a08cd9976E
                0x0000000000141f00        0x0 ./gen/../tecsrust_uart_led_sample/target/armv7a-none-eabi/release/libitron.a(core-d049573bc16596f9.core.5587a85061e7188a-cgu.0.rcgu.o)
                                          0x8 (size before relaxing)
 .ARM.exidx.text._ZN47_$LT$i16$u20$as$u20$core..pat..RangePattern$GT$7sub_one17h0bea40a7c0a1898dE
                0x0000000000141f00        0x0 ./gen/../tecsrust_uart_led_sample/target/armv7a-none-eabi/release/libitron.a(core-d049573bc16596f9.core.5587a85061e7188a-cgu.0.rcgu.o)
                                          0x8 (size before relaxing)
 .ARM.exidx.text._ZN47_$LT$i32$u20$as$u20$core..pat..RangePattern$GT$7sub_one17hee0294d19fcfed5eE
                0x0000000000141f00        0x0 ./gen/../tecsrust_uart_led_sample/target/armv7a-none-eabi/release/libitron.a(core-d049573bc16596f9.core.5587a85061e7188a-cgu.0.rcgu.o)
                                          0x8 (size before relaxing)
 .ARM.exidx.text._ZN47_$LT$i64$u20$as$u20$core..pat..RangePattern$GT$7sub_one17h7a71a5a054a38f79E
                0x0000000000141f00        0x0 ./gen/../tecsrust_uart_led_sample/target/armv7a-none-eabi/release/libitron.a(core-d049573bc16596f9.core.5587a85061e7188a-cgu.0.rcgu.o)
                                          0x8 (size before relaxing)
 .ARM.exidx.text._ZN48_$LT$i128$u20$as$u20$core..pat..RangePattern$GT$7sub_one17hacd854531e93c0c5E
                0x0000000000141f00        0x0 ./gen/../tecsrust_uart_led_sample/target/armv7a-none-eabi/release/libitron.a(core-d049573bc16596f9.core.5587a85061e7188a-cgu.0.rcgu.o)
                                          0x8 (size before relaxing)
 .ARM.exidx.text._ZN46_$LT$u8$u20$as$u20$core..pat..RangePattern$GT$7sub_one17h15e864f0213c9b05E
                0x0000000000141f00        0x0 ./gen/../tecsrust_uart_led_sample/target/armv7a-none-eabi/release/libitron.a(core-d049573bc16596f9.core.5587a85061e7188a-cgu.0.rcgu.o)
                                          0x8 (size before relaxing)
 .ARM.exidx.text._ZN47_$LT$u16$u20$as$u20$core..pat..RangePattern$GT$7sub_one17h4335f9c9d4df86f6E
                0x0000000000141f00        0x0 ./gen/../tecsrust_uart_led_sample/target/armv7a-none-eabi/release/libitron.a(core-d049573bc16596f9.core.5587a85061e7188a-cgu.0.rcgu.o)
                                          0x8 (size before relaxing)
 .ARM.exidx.text._ZN47_$LT$u32$u20$as$u20$core..pat..RangePattern$GT$7sub_one17h3378d20c1f54e79cE
                0x0000000000141f00        0x0 ./gen/../tecsrust_uart_led_sample/target/armv7a-none-eabi/release/libitron.a(core-d049573bc16596f9.core.5587a85061e7188a-cgu.0.rcgu.o)
                                          0x8 (size before relaxing)
 .ARM.exidx.text._ZN47_$LT$u64$u20$as$u20$core..pat..RangePattern$GT$7sub_one17h6e6e0a2318d9e1f3E
                0x0000000000141f00        0x0 ./gen/../tecsrust_uart_led_sample/target/armv7a-none-eabi/release/libitron.a(core-d049573bc16596f9.core.5587a85061e7188a-cgu.0.rcgu.o)
                                          0x8 (size before relaxing)
 .ARM.exidx.text._ZN48_$LT$u128$u20$as$u20$core..pat..RangePattern$GT$7sub_one17h49e0f9c674b47932E
                0x0000000000141f00        0x0 ./gen/../tecsrust_uart_led_sample/target/armv7a-none-eabi/release/libitron.a(core-d049573bc16596f9.core.5587a85061e7188a-cgu.0.rcgu.o)
                                          0x8 (size before relaxing)
 .ARM.exidx.text._ZN65_$LT$core..sync..atomic..AtomicI8$u20$as$u20$core..fmt..Debug$GT$3fmt17h98530b86a99569a1E
                0x0000000000141f00        0x0 ./gen/../tecsrust_uart_led_sample/target/armv7a-none-eabi/release/libitron.a(core-d049573bc16596f9.core.5587a85061e7188a-cgu.0.rcgu.o)
                                          0x8 (size before relaxing)
 .ARM.exidx.text._ZN65_$LT$core..sync..atomic..AtomicU8$u20$as$u20$core..fmt..Debug$GT$3fmt17h78ea702c9c6bc9f6E
                0x0000000000141f00        0x0 ./gen/../tecsrust_uart_led_sample/target/armv7a-none-eabi/release/libitron.a(core-d049573bc16596f9.core.5587a85061e7188a-cgu.0.rcgu.o)
                                          0x8 (size before relaxing)
 .ARM.exidx.text._ZN66_$LT$core..sync..atomic..AtomicI16$u20$as$u20$core..fmt..Debug$GT$3fmt17h5390cba2b0e4e3dcE
                0x0000000000141f00        0x0 ./gen/../tecsrust_uart_led_sample/target/armv7a-none-eabi/release/libitron.a(core-d049573bc16596f9.core.5587a85061e7188a-cgu.0.rcgu.o)
                                          0x8 (size before relaxing)
 .ARM.exidx.text._ZN66_$LT$core..sync..atomic..AtomicU16$u20$as$u20$core..fmt..Debug$GT$3fmt17h2705d1d8027c0f42E
                0x0000000000141f00        0x0 ./gen/../tecsrust_uart_led_sample/target/armv7a-none-eabi/release/libitron.a(core-d049573bc16596f9.core.5587a85061e7188a-cgu.0.rcgu.o)
                                          0x8 (size before relaxing)
 .ARM.exidx.text._ZN66_$LT$core..sync..atomic..AtomicI32$u20$as$u20$core..fmt..Debug$GT$3fmt17h00f7ed8238e72b79E
                0x0000000000141f00        0x0 ./gen/../tecsrust_uart_led_sample/target/armv7a-none-eabi/release/libitron.a(core-d049573bc16596f9.core.5587a85061e7188a-cgu.0.rcgu.o)
                                          0x8 (size before relaxing)
 .ARM.exidx.text._ZN66_$LT$core..sync..atomic..AtomicU32$u20$as$u20$core..fmt..Debug$GT$3fmt17hf9fe3a6abac6a243E
                0x0000000000141f00        0x0 ./gen/../tecsrust_uart_led_sample/target/armv7a-none-eabi/release/libitron.a(core-d049573bc16596f9.core.5587a85061e7188a-cgu.0.rcgu.o)
                                          0x8 (size before relaxing)
 .ARM.exidx.text._ZN66_$LT$core..sync..atomic..AtomicI64$u20$as$u20$core..fmt..Debug$GT$3fmt17h553003e062ab2aeaE
                0x0000000000141f00        0x0 ./gen/../tecsrust_uart_led_sample/target/armv7a-none-eabi/release/libitron.a(core-d049573bc16596f9.core.5587a85061e7188a-cgu.0.rcgu.o)
                                          0x8 (size before relaxing)
 .ARM.exidx.text._ZN66_$LT$core..sync..atomic..AtomicU64$u20$as$u20$core..fmt..Debug$GT$3fmt17h4837e1a6089e1848E
                0x0000000000141f00        0x0 ./gen/../tecsrust_uart_led_sample/target/armv7a-none-eabi/release/libitron.a(core-d049573bc16596f9.core.5587a85061e7188a-cgu.0.rcgu.o)
                                          0x8 (size before relaxing)
 .ARM.exidx.text._ZN55_$LT$f32$u20$as$u20$core..fmt..float..GeneralFormat$GT$44already_rounded_value_should_use_exponential17hb22121c88fcaa0beE
                0x0000000000141f00        0x0 ./gen/../tecsrust_uart_led_sample/target/armv7a-none-eabi/release/libitron.a(core-d049573bc16596f9.core.5587a85061e7188a-cgu.0.rcgu.o)
                                          0x8 (size before relaxing)
 .ARM.exidx.text._ZN55_$LT$f64$u20$as$u20$core..fmt..float..GeneralFormat$GT$44already_rounded_value_should_use_exponential17h8b724b9904cc9c26E
                0x0000000000141f00        0x0 ./gen/../tecsrust_uart_led_sample/target/armv7a-none-eabi/release/libitron.a(core-d049573bc16596f9.core.5587a85061e7188a-cgu.0.rcgu.o)
                                          0x8 (size before relaxing)
 .ARM.exidx.text._ZN4core3fmt5float50_$LT$impl$u20$core..fmt..Debug$u20$for$u20$f32$GT$3fmt17h36f6f70bc5e41684E
                0x0000000000141f00        0x0 ./gen/../tecsrust_uart_led_sample/target/armv7a-none-eabi/release/libitron.a(core-d049573bc16596f9.core.5587a85061e7188a-cgu.0.rcgu.o)
                                          0x8 (size before relaxing)
 .ARM.exidx.text._ZN4core3fmt5float52_$LT$impl$u20$core..fmt..Display$u20$for$u20$f32$GT$3fmt17h80810e25a018a288E
                0x0000000000141f00        0x0 ./gen/../tecsrust_uart_led_sample/target/armv7a-none-eabi/release/libitron.a(core-d049573bc16596f9.core.5587a85061e7188a-cgu.0.rcgu.o)
                                          0x8 (size before relaxing)
 .ARM.exidx.text._ZN4core3fmt5float53_$LT$impl$u20$core..fmt..LowerExp$u20$for$u20$f32$GT$3fmt17h820dff1b1d643fd6E
                0x0000000000141f00        0x0 ./gen/../tecsrust_uart_led_sample/target/armv7a-none-eabi/release/libitron.a(core-d049573bc16596f9.core.5587a85061e7188a-cgu.0.rcgu.o)
                                          0x8 (size before relaxing)
 .ARM.exidx.text._ZN4core3fmt5float53_$LT$impl$u20$core..fmt..UpperExp$u20$for$u20$f32$GT$3fmt17hdf25f1d7057efea1E
                0x0000000000141f00        0x0 ./gen/../tecsrust_uart_led_sample/target/armv7a-none-eabi/release/libitron.a(core-d049573bc16596f9.core.5587a85061e7188a-cgu.0.rcgu.o)
                                          0x8 (size before relaxing)
 .ARM.exidx.text._ZN4core3fmt5float50_$LT$impl$u20$core..fmt..Debug$u20$for$u20$f64$GT$3fmt17h12b316315661d7a7E
                0x0000000000141f00        0x0 ./gen/../tecsrust_uart_led_sample/target/armv7a-none-eabi/release/libitron.a(core-d049573bc16596f9.core.5587a85061e7188a-cgu.0.rcgu.o)
                                          0x8 (size before relaxing)
 .ARM.exidx.text._ZN4core3fmt5float52_$LT$impl$u20$core..fmt..Display$u20$for$u20$f64$GT$3fmt17h1658c390055e8683E
                0x0000000000141f00        0x0 ./gen/../tecsrust_uart_led_sample/target/armv7a-none-eabi/release/libitron.a(core-d049573bc16596f9.core.5587a85061e7188a-cgu.0.rcgu.o)
                                          0x8 (size before relaxing)
 .ARM.exidx.text._ZN4core3fmt5float53_$LT$impl$u20$core..fmt..LowerExp$u20$for$u20$f64$GT$3fmt17hab161d28c266dbf1E
                0x0000000000141f00        0x0 ./gen/../tecsrust_uart_led_sample/target/armv7a-none-eabi/release/libitron.a(core-d049573bc16596f9.core.5587a85061e7188a-cgu.0.rcgu.o)
                                          0x8 (size before relaxing)
 .ARM.exidx.text._ZN4core3fmt5float53_$LT$impl$u20$core..fmt..UpperExp$u20$for$u20$f64$GT$3fmt17hfdc423d0ad75608dE
                0x0000000000141f00        0x0 ./gen/../tecsrust_uart_led_sample/target/armv7a-none-eabi/release/libitron.a(core-d049573bc16596f9.core.5587a85061e7188a-cgu.0.rcgu.o)
                                          0x8 (size before relaxing)
 .ARM.exidx.text._ZN4core3fmt5float50_$LT$impl$u20$core..fmt..Debug$u20$for$u20$f16$GT$3fmt17h0275f4e20d5ac985E
                0x0000000000141f00        0x0 ./gen/../tecsrust_uart_led_sample/target/armv7a-none-eabi/release/libitron.a(core-d049573bc16596f9.core.5587a85061e7188a-cgu.0.rcgu.o)
                                          0x8 (size before relaxing)
 .ARM.exidx.text._ZN4core3fmt5float52_$LT$impl$u20$core..fmt..Display$u20$for$u20$f16$GT$3fmt17h44d06f4ee009c844E
                0x0000000000141f00        0x0 ./gen/../tecsrust_uart_led_sample/target/armv7a-none-eabi/release/libitron.a(core-d049573bc16596f9.core.5587a85061e7188a-cgu.0.rcgu.o)
                                          0x8 (size before relaxing)
 .ARM.exidx.text._ZN4core3fmt5float53_$LT$impl$u20$core..fmt..LowerExp$u20$for$u20$f16$GT$3fmt17h5cc0551d1f587a8bE
                0x0000000000141f00        0x0 ./gen/../tecsrust_uart_led_sample/target/armv7a-none-eabi/release/libitron.a(core-d049573bc16596f9.core.5587a85061e7188a-cgu.0.rcgu.o)
                                          0x8 (size before relaxing)
 .ARM.exidx.text._ZN4core3fmt5float53_$LT$impl$u20$core..fmt..UpperExp$u20$for$u20$f16$GT$3fmt17h2a0ba872876a6cb1E
                0x0000000000141f00        0x0 ./gen/../tecsrust_uart_led_sample/target/armv7a-none-eabi/release/libitron.a(core-d049573bc16596f9.core.5587a85061e7188a-cgu.0.rcgu.o)
                                          0x8 (size before relaxing)
 .ARM.exidx.text._ZN71_$LT$core..fmt..num..Binary$u20$as$u20$core..fmt..num..GenericRadix$GT$5digit17he4b6c679024b6753E
                0x0000000000141f00        0x0 ./gen/../tecsrust_uart_led_sample/target/armv7a-none-eabi/release/libitron.a(core-d049573bc16596f9.core.5587a85061e7188a-cgu.0.rcgu.o)
                                          0x8 (size before relaxing)
 .ARM.exidx.text._ZN70_$LT$core..fmt..num..Octal$u20$as$u20$core..fmt..num..GenericRadix$GT$5digit17h6d524b5314e7839aE
                0x0000000000141f00        0x0 ./gen/../tecsrust_uart_led_sample/target/armv7a-none-eabi/release/libitron.a(core-d049573bc16596f9.core.5587a85061e7188a-cgu.0.rcgu.o)
                                          0x8 (size before relaxing)
 .ARM.exidx.text._ZN73_$LT$core..fmt..num..LowerHex$u20$as$u20$core..fmt..num..GenericRadix$GT$5digit17h67093c0abfd72a34E
                0x0000000000141f00        0x0 ./gen/../tecsrust_uart_led_sample/target/armv7a-none-eabi/release/libitron.a(core-d049573bc16596f9.core.5587a85061e7188a-cgu.0.rcgu.o)
                                          0x8 (size before relaxing)
 .ARM.exidx.text._ZN73_$LT$core..fmt..num..UpperHex$u20$as$u20$core..fmt..num..GenericRadix$GT$5digit17h2ebf7f3cf75c8942E
                0x0000000000141f00        0x0 ./gen/../tecsrust_uart_led_sample/target/armv7a-none-eabi/release/libitron.a(core-d049573bc16596f9.core.5587a85061e7188a-cgu.0.rcgu.o)
                                          0x8 (size before relaxing)
 .ARM.exidx.text._ZN4core3fmt3num50_$LT$impl$u20$core..fmt..Binary$u20$for$u20$i8$GT$3fmt17hfb8e99514944e386E
                0x0000000000141f00        0x0 ./gen/../tecsrust_uart_led_sample/target/armv7a-none-eabi/release/libitron.a(core-d049573bc16596f9.core.5587a85061e7188a-cgu.0.rcgu.o)
                                          0x8 (size before relaxing)
 .ARM.exidx.text._ZN4core3fmt3num49_$LT$impl$u20$core..fmt..Octal$u20$for$u20$i8$GT$3fmt17h16740b96b647866aE
                0x0000000000141f00        0x0 ./gen/../tecsrust_uart_led_sample/target/armv7a-none-eabi/release/libitron.a(core-d049573bc16596f9.core.5587a85061e7188a-cgu.0.rcgu.o)
                                          0x8 (size before relaxing)
 .ARM.exidx.text._ZN4core3fmt3num52_$LT$impl$u20$core..fmt..LowerHex$u20$for$u20$i8$GT$3fmt17ha38e82f4b36477dfE
                0x0000000000141f00        0x0 ./gen/../tecsrust_uart_led_sample/target/armv7a-none-eabi/release/libitron.a(core-d049573bc16596f9.core.5587a85061e7188a-cgu.0.rcgu.o)
                                          0x8 (size before relaxing)
 .ARM.exidx.text._ZN4core3fmt3num52_$LT$impl$u20$core..fmt..UpperHex$u20$for$u20$i8$GT$3fmt17hdbc78e6d81b9fc73E
                0x0000000000141f00        0x0 ./gen/../tecsrust_uart_led_sample/target/armv7a-none-eabi/release/libitron.a(core-d049573bc16596f9.core.5587a85061e7188a-cgu.0.rcgu.o)
                                          0x8 (size before relaxing)
 .ARM.exidx.text._ZN4core3fmt3num51_$LT$impl$u20$core..fmt..Binary$u20$for$u20$i16$GT$3fmt17hd9dba8c56e1924baE
                0x0000000000141f00        0x0 ./gen/../tecsrust_uart_led_sample/target/armv7a-none-eabi/release/libitron.a(core-d049573bc16596f9.core.5587a85061e7188a-cgu.0.rcgu.o)
                                          0x8 (size before relaxing)
 .ARM.exidx.text._ZN4core3fmt3num50_$LT$impl$u20$core..fmt..Octal$u20$for$u20$i16$GT$3fmt17h673945bd6fb3acfeE
                0x0000000000141f00        0x0 ./gen/../tecsrust_uart_led_sample/target/armv7a-none-eabi/release/libitron.a(core-d049573bc16596f9.core.5587a85061e7188a-cgu.0.rcgu.o)
                                          0x8 (size before relaxing)
 .ARM.exidx.text._ZN4core3fmt3num53_$LT$impl$u20$core..fmt..LowerHex$u20$for$u20$i16$GT$3fmt17hd32e4fcbce79670aE
                0x0000000000141f00        0x0 ./gen/../tecsrust_uart_led_sample/target/armv7a-none-eabi/release/libitron.a(core-d049573bc16596f9.core.5587a85061e7188a-cgu.0.rcgu.o)
                                          0x8 (size before relaxing)
 .ARM.exidx.text._ZN4core3fmt3num53_$LT$impl$u20$core..fmt..UpperHex$u20$for$u20$i16$GT$3fmt17hc507e3445ac18ebeE
                0x0000000000141f00        0x0 ./gen/../tecsrust_uart_led_sample/target/armv7a-none-eabi/release/libitron.a(core-d049573bc16596f9.core.5587a85061e7188a-cgu.0.rcgu.o)
                                          0x8 (size before relaxing)
 .ARM.exidx.text._ZN4core3fmt3num51_$LT$impl$u20$core..fmt..Binary$u20$for$u20$i32$GT$3fmt17hd6aa21fb91002751E
                0x0000000000141f00        0x0 ./gen/../tecsrust_uart_led_sample/target/armv7a-none-eabi/release/libitron.a(core-d049573bc16596f9.core.5587a85061e7188a-cgu.0.rcgu.o)
                                          0x8 (size before relaxing)
 .ARM.exidx.text._ZN4core3fmt3num50_$LT$impl$u20$core..fmt..Octal$u20$for$u20$i32$GT$3fmt17hdfdd079f8dc60dc7E
                0x0000000000141f00        0x0 ./gen/../tecsrust_uart_led_sample/target/armv7a-none-eabi/release/libitron.a(core-d049573bc16596f9.core.5587a85061e7188a-cgu.0.rcgu.o)
                                          0x8 (size before relaxing)
 .ARM.exidx.text._ZN4core3fmt3num53_$LT$impl$u20$core..fmt..LowerHex$u20$for$u20$i32$GT$3fmt17h1bfe37b07cf28800E
                0x0000000000141f00        0x0 ./gen/../tecsrust_uart_led_sample/target/armv7a-none-eabi/release/libitron.a(core-d049573bc16596f9.core.5587a85061e7188a-cgu.0.rcgu.o)
                                          0x8 (size before relaxing)
 .ARM.exidx.text._ZN4core3fmt3num53_$LT$impl$u20$core..fmt..UpperHex$u20$for$u20$i32$GT$3fmt17hf4441f29103186f0E
                0x0000000000141f00        0x0 ./gen/../tecsrust_uart_led_sample/target/armv7a-none-eabi/release/libitron.a(core-d049573bc16596f9.core.5587a85061e7188a-cgu.0.rcgu.o)
                                          0x8 (size before relaxing)
 .ARM.exidx.text._ZN4core3fmt3num51_$LT$impl$u20$core..fmt..Binary$u20$for$u20$i64$GT$3fmt17h2344af75f6c15b7fE
                0x0000000000141f00        0x0 ./gen/../tecsrust_uart_led_sample/target/armv7a-none-eabi/release/libitron.a(core-d049573bc16596f9.core.5587a85061e7188a-cgu.0.rcgu.o)
                                          0x8 (size before relaxing)
 .ARM.exidx.text._ZN4core3fmt3num50_$LT$impl$u20$core..fmt..Octal$u20$for$u20$i64$GT$3fmt17hc6f5294ea5289e43E
                0x0000000000141f00        0x0 ./gen/../tecsrust_uart_led_sample/target/armv7a-none-eabi/release/libitron.a(core-d049573bc16596f9.core.5587a85061e7188a-cgu.0.rcgu.o)
                                          0x8 (size before relaxing)
 .ARM.exidx.text._ZN4core3fmt3num53_$LT$impl$u20$core..fmt..LowerHex$u20$for$u20$i64$GT$3fmt17hac7e501d59390ecfE
                0x0000000000141f00        0x0 ./gen/../tecsrust_uart_led_sample/target/armv7a-none-eabi/release/libitron.a(core-d049573bc16596f9.core.5587a85061e7188a-cgu.0.rcgu.o)
                                          0x8 (size before relaxing)
 .ARM.exidx.text._ZN4core3fmt3num53_$LT$impl$u20$core..fmt..UpperHex$u20$for$u20$i64$GT$3fmt17h51257ca6c0f8239cE
                0x0000000000141f00        0x0 ./gen/../tecsrust_uart_led_sample/target/armv7a-none-eabi/release/libitron.a(core-d049573bc16596f9.core.5587a85061e7188a-cgu.0.rcgu.o)
                                          0x8 (size before relaxing)
 .ARM.exidx.text._ZN4core3fmt3num52_$LT$impl$u20$core..fmt..Binary$u20$for$u20$i128$GT$3fmt17h7be091d3317e0d6cE
                0x0000000000141f00        0x0 ./gen/../tecsrust_uart_led_sample/target/armv7a-none-eabi/release/libitron.a(core-d049573bc16596f9.core.5587a85061e7188a-cgu.0.rcgu.o)
                                          0x8 (size before relaxing)
 .ARM.exidx.text._ZN4core3fmt3num51_$LT$impl$u20$core..fmt..Octal$u20$for$u20$i128$GT$3fmt17h5fb2ef3ead5b0ea5E
                0x0000000000141f00        0x0 ./gen/../tecsrust_uart_led_sample/target/armv7a-none-eabi/release/libitron.a(core-d049573bc16596f9.core.5587a85061e7188a-cgu.0.rcgu.o)
                                          0x8 (size before relaxing)
 .ARM.exidx.text._ZN4core3fmt3num54_$LT$impl$u20$core..fmt..LowerHex$u20$for$u20$i128$GT$3fmt17h4f123a38d1270953E
                0x0000000000141f00        0x0 ./gen/../tecsrust_uart_led_sample/target/armv7a-none-eabi/release/libitron.a(core-d049573bc16596f9.core.5587a85061e7188a-cgu.0.rcgu.o)
                                          0x8 (size before relaxing)
 .ARM.exidx.text._ZN4core3fmt3num54_$LT$impl$u20$core..fmt..UpperHex$u20$for$u20$i128$GT$3fmt17ha49e3851795cfdefE
                0x0000000000141f00        0x0 ./gen/../tecsrust_uart_led_sample/target/armv7a-none-eabi/release/libitron.a(core-d049573bc16596f9.core.5587a85061e7188a-cgu.0.rcgu.o)
                                          0x8 (size before relaxing)
 .ARM.exidx.text._ZN4core3fmt3num49_$LT$impl$u20$core..fmt..Debug$u20$for$u20$i8$GT$3fmt17h34acdd6c4c2b4cccE
                0x0000000000141f00        0x0 ./gen/../tecsrust_uart_led_sample/target/armv7a-none-eabi/release/libitron.a(core-d049573bc16596f9.core.5587a85061e7188a-cgu.0.rcgu.o)
                                          0x8 (size before relaxing)
 .ARM.exidx.text._ZN4core3fmt3num49_$LT$impl$u20$core..fmt..Debug$u20$for$u20$u8$GT$3fmt17h8d8c411144315c72E
                0x0000000000141f00        0x0 ./gen/../tecsrust_uart_led_sample/target/armv7a-none-eabi/release/libitron.a(core-d049573bc16596f9.core.5587a85061e7188a-cgu.0.rcgu.o)
                                          0x8 (size before relaxing)
 .ARM.exidx.text._ZN4core3fmt3num50_$LT$impl$u20$core..fmt..Debug$u20$for$u20$u32$GT$3fmt17h71bef540c929d311E
                0x0000000000141f00        0x0 ./gen/../tecsrust_uart_led_sample/target/armv7a-none-eabi/release/libitron.a(core-d049573bc16596f9.core.5587a85061e7188a-cgu.0.rcgu.o)
                                          0x8 (size before relaxing)
 .ARM.exidx.text._ZN4core3fmt3num3imp51_$LT$impl$u20$core..fmt..Display$u20$for$u20$u8$GT$3fmt17hbcfcd188bf01c23fE
                0x0000000000141f00        0x0 ./gen/../tecsrust_uart_led_sample/target/armv7a-none-eabi/release/libitron.a(core-d049573bc16596f9.core.5587a85061e7188a-cgu.0.rcgu.o)
                                          0x8 (size before relaxing)
 .ARM.exidx.text._ZN4core3fmt3num3imp51_$LT$impl$u20$core..fmt..Display$u20$for$u20$i8$GT$3fmt17hff22c034098846a1E
                0x0000000000141f00        0x0 ./gen/../tecsrust_uart_led_sample/target/armv7a-none-eabi/release/libitron.a(core-d049573bc16596f9.core.5587a85061e7188a-cgu.0.rcgu.o)
                                          0x8 (size before relaxing)
 .ARM.exidx.text._ZN4core3fmt3num3imp20_$LT$impl$u20$u8$GT$4_fmt17hb5a7663e8a0544e3E
                0x0000000000141f00        0x0 ./gen/../tecsrust_uart_led_sample/target/armv7a-none-eabi/release/libitron.a(core-d049573bc16596f9.core.5587a85061e7188a-cgu.0.rcgu.o)
                                          0x8 (size before relaxing)
 .ARM.exidx.text._ZN4core3fmt3num3imp52_$LT$impl$u20$core..fmt..Display$u20$for$u20$u16$GT$3fmt17hb807d5b07197dd3cE
                0x0000000000141f00        0x0 ./gen/../tecsrust_uart_led_sample/target/armv7a-none-eabi/release/libitron.a(core-d049573bc16596f9.core.5587a85061e7188a-cgu.0.rcgu.o)
                                          0x8 (size before relaxing)
 .ARM.exidx.text._ZN4core3fmt3num3imp52_$LT$impl$u20$core..fmt..Display$u20$for$u20$i16$GT$3fmt17hd6d0d2db5935d675E
                0x0000000000141f00        0x0 ./gen/../tecsrust_uart_led_sample/target/armv7a-none-eabi/release/libitron.a(core-d049573bc16596f9.core.5587a85061e7188a-cgu.0.rcgu.o)
                                          0x8 (size before relaxing)
 .ARM.exidx.text._ZN4core3fmt3num3imp21_$LT$impl$u20$u16$GT$4_fmt17h2eab8ac218d2ab0cE
                0x0000000000141f00        0x0 ./gen/../tecsrust_uart_led_sample/target/armv7a-none-eabi/release/libitron.a(core-d049573bc16596f9.core.5587a85061e7188a-cgu.0.rcgu.o)
                                          0x8 (size before relaxing)
 .ARM.exidx.text._ZN4core3fmt3num3imp52_$LT$impl$u20$core..fmt..Display$u20$for$u20$u32$GT$3fmt17hfed0ce75b320fdfeE
                0x0000000000141f00        0x0 ./gen/../tecsrust_uart_led_sample/target/armv7a-none-eabi/release/libitron.a(core-d049573bc16596f9.core.5587a85061e7188a-cgu.0.rcgu.o)
                                          0x8 (size before relaxing)
 .ARM.exidx.text._ZN4core3fmt3num3imp52_$LT$impl$u20$core..fmt..Display$u20$for$u20$i32$GT$3fmt17h6694708af44e6410E
                0x0000000000141f00        0x0 ./gen/../tecsrust_uart_led_sample/target/armv7a-none-eabi/release/libitron.a(core-d049573bc16596f9.core.5587a85061e7188a-cgu.0.rcgu.o)
                                          0x8 (size before relaxing)
 .ARM.exidx.text._ZN4core3fmt3num3imp21_$LT$impl$u20$u32$GT$4_fmt17he3f4180fb8f739b6E
                0x0000000000141f00        0x0 ./gen/../tecsrust_uart_led_sample/target/armv7a-none-eabi/release/libitron.a(core-d049573bc16596f9.core.5587a85061e7188a-cgu.0.rcgu.o)
                                          0x8 (size before relaxing)
 .ARM.exidx.text._ZN4core3fmt3num3imp52_$LT$impl$u20$core..fmt..Display$u20$for$u20$u64$GT$3fmt17hca688f18ea3812f0E
                0x0000000000141f00        0x0 ./gen/../tecsrust_uart_led_sample/target/armv7a-none-eabi/release/libitron.a(core-d049573bc16596f9.core.5587a85061e7188a-cgu.0.rcgu.o)
                                          0x8 (size before relaxing)
 .ARM.exidx.text._ZN4core3fmt3num3imp52_$LT$impl$u20$core..fmt..Display$u20$for$u20$i64$GT$3fmt17h746d5f02f990caf3E
                0x0000000000141f00        0x0 ./gen/../tecsrust_uart_led_sample/target/armv7a-none-eabi/release/libitron.a(core-d049573bc16596f9.core.5587a85061e7188a-cgu.0.rcgu.o)
                                          0x8 (size before relaxing)
 .ARM.exidx.text._ZN4core3fmt3num3imp21_$LT$impl$u20$u64$GT$4_fmt17h5cad236623dacc7fE
                0x0000000000141f00        0x0 ./gen/../tecsrust_uart_led_sample/target/armv7a-none-eabi/release/libitron.a(core-d049573bc16596f9.core.5587a85061e7188a-cgu.0.rcgu.o)
                                          0x8 (size before relaxing)
 .ARM.exidx.text._ZN4core3fmt3num3imp7exp_u3217he01470f61c0319e7E
                0x0000000000141f00        0x0 ./gen/../tecsrust_uart_led_sample/target/armv7a-none-eabi/release/libitron.a(core-d049573bc16596f9.core.5587a85061e7188a-cgu.0.rcgu.o)
                                          0x8 (size before relaxing)
 .ARM.exidx.text._ZN4core3fmt3num3imp52_$LT$impl$u20$core..fmt..LowerExp$u20$for$u20$i8$GT$3fmt17hc0edf995b11d88a4E
                0x0000000000141f00        0x0 ./gen/../tecsrust_uart_led_sample/target/armv7a-none-eabi/release/libitron.a(core-d049573bc16596f9.core.5587a85061e7188a-cgu.0.rcgu.o)
                                          0x8 (size before relaxing)
 .ARM.exidx.text._ZN4core3fmt3num3imp52_$LT$impl$u20$core..fmt..LowerExp$u20$for$u20$u8$GT$3fmt17h9f71b4e1975c97b3E
                0x0000000000141f00        0x0 ./gen/../tecsrust_uart_led_sample/target/armv7a-none-eabi/release/libitron.a(core-d049573bc16596f9.core.5587a85061e7188a-cgu.0.rcgu.o)
                                          0x8 (size before relaxing)
 .ARM.exidx.text._ZN4core3fmt3num3imp53_$LT$impl$u20$core..fmt..LowerExp$u20$for$u20$i16$GT$3fmt17h2ec4792f26758582E
                0x0000000000141f00        0x0 ./gen/../tecsrust_uart_led_sample/target/armv7a-none-eabi/release/libitron.a(core-d049573bc16596f9.core.5587a85061e7188a-cgu.0.rcgu.o)
                                          0x8 (size before relaxing)
 .ARM.exidx.text._ZN4core3fmt3num3imp53_$LT$impl$u20$core..fmt..LowerExp$u20$for$u20$u16$GT$3fmt17he1630ced7897f954E
                0x0000000000141f00        0x0 ./gen/../tecsrust_uart_led_sample/target/armv7a-none-eabi/release/libitron.a(core-d049573bc16596f9.core.5587a85061e7188a-cgu.0.rcgu.o)
                                          0x8 (size before relaxing)
 .ARM.exidx.text._ZN4core3fmt3num3imp53_$LT$impl$u20$core..fmt..LowerExp$u20$for$u20$i32$GT$3fmt17hc830ff5284d762bdE
                0x0000000000141f00        0x0 ./gen/../tecsrust_uart_led_sample/target/armv7a-none-eabi/release/libitron.a(core-d049573bc16596f9.core.5587a85061e7188a-cgu.0.rcgu.o)
                                          0x8 (size before relaxing)
 .ARM.exidx.text._ZN4core3fmt3num3imp53_$LT$impl$u20$core..fmt..LowerExp$u20$for$u20$u32$GT$3fmt17he84cd695e6f75fd8E
                0x0000000000141f00        0x0 ./gen/../tecsrust_uart_led_sample/target/armv7a-none-eabi/release/libitron.a(core-d049573bc16596f9.core.5587a85061e7188a-cgu.0.rcgu.o)
                                          0x8 (size before relaxing)
 .ARM.exidx.text._ZN4core3fmt3num3imp52_$LT$impl$u20$core..fmt..UpperExp$u20$for$u20$i8$GT$3fmt17h3cc98f3a87f4ea66E
                0x0000000000141f00        0x0 ./gen/../tecsrust_uart_led_sample/target/armv7a-none-eabi/release/libitron.a(core-d049573bc16596f9.core.5587a85061e7188a-cgu.0.rcgu.o)
                                          0x8 (size before relaxing)
 .ARM.exidx.text._ZN4core3fmt3num3imp52_$LT$impl$u20$core..fmt..UpperExp$u20$for$u20$u8$GT$3fmt17h04e779386a1b925eE
                0x0000000000141f00        0x0 ./gen/../tecsrust_uart_led_sample/target/armv7a-none-eabi/release/libitron.a(core-d049573bc16596f9.core.5587a85061e7188a-cgu.0.rcgu.o)
                                          0x8 (size before relaxing)
 .ARM.exidx.text._ZN4core3fmt3num3imp53_$LT$impl$u20$core..fmt..UpperExp$u20$for$u20$i16$GT$3fmt17ha0dd815a12b4d383E
                0x0000000000141f00        0x0 ./gen/../tecsrust_uart_led_sample/target/armv7a-none-eabi/release/libitron.a(core-d049573bc16596f9.core.5587a85061e7188a-cgu.0.rcgu.o)
                                          0x8 (size before relaxing)
 .ARM.exidx.text._ZN4core3fmt3num3imp53_$LT$impl$u20$core..fmt..UpperExp$u20$for$u20$u16$GT$3fmt17h07d48ce0e1e749dcE
                0x0000000000141f00        0x0 ./gen/../tecsrust_uart_led_sample/target/armv7a-none-eabi/release/libitron.a(core-d049573bc16596f9.core.5587a85061e7188a-cgu.0.rcgu.o)
                                          0x8 (size before relaxing)
 .ARM.exidx.text._ZN4core3fmt3num3imp53_$LT$impl$u20$core..fmt..UpperExp$u20$for$u20$i32$GT$3fmt17hf0350addfa1667d3E
                0x0000000000141f00        0x0 ./gen/../tecsrust_uart_led_sample/target/armv7a-none-eabi/release/libitron.a(core-d049573bc16596f9.core.5587a85061e7188a-cgu.0.rcgu.o)
                                          0x8 (size before relaxing)
 .ARM.exidx.text._ZN4core3fmt3num3imp53_$LT$impl$u20$core..fmt..UpperExp$u20$for$u20$u32$GT$3fmt17he78d3191f07bcd68E
                0x0000000000141f00        0x0 ./gen/../tecsrust_uart_led_sample/target/armv7a-none-eabi/release/libitron.a(core-d049573bc16596f9.core.5587a85061e7188a-cgu.0.rcgu.o)
                                          0x8 (size before relaxing)
 .ARM.exidx.text._ZN4core3fmt3num3imp7exp_u6417h10bcc1a2e249db0dE
                0x0000000000141f00        0x0 ./gen/../tecsrust_uart_led_sample/target/armv7a-none-eabi/release/libitron.a(core-d049573bc16596f9.core.5587a85061e7188a-cgu.0.rcgu.o)
                                          0x8 (size before relaxing)
 .ARM.exidx.text._ZN4core3fmt3num3imp53_$LT$impl$u20$core..fmt..LowerExp$u20$for$u20$i64$GT$3fmt17hcf4752f526debdaeE
                0x0000000000141f00        0x0 ./gen/../tecsrust_uart_led_sample/target/armv7a-none-eabi/release/libitron.a(core-d049573bc16596f9.core.5587a85061e7188a-cgu.0.rcgu.o)
                                          0x8 (size before relaxing)
 .ARM.exidx.text._ZN4core3fmt3num3imp53_$LT$impl$u20$core..fmt..LowerExp$u20$for$u20$u64$GT$3fmt17h1137bee068b4f16aE
                0x0000000000141f00        0x0 ./gen/../tecsrust_uart_led_sample/target/armv7a-none-eabi/release/libitron.a(core-d049573bc16596f9.core.5587a85061e7188a-cgu.0.rcgu.o)
                                          0x8 (size before relaxing)
 .ARM.exidx.text._ZN4core3fmt3num3imp53_$LT$impl$u20$core..fmt..UpperExp$u20$for$u20$i64$GT$3fmt17hb868ad8f77e533adE
                0x0000000000141f00        0x0 ./gen/../tecsrust_uart_led_sample/target/armv7a-none-eabi/release/libitron.a(core-d049573bc16596f9.core.5587a85061e7188a-cgu.0.rcgu.o)
                                          0x8 (size before relaxing)
 .ARM.exidx.text._ZN4core3fmt3num3imp53_$LT$impl$u20$core..fmt..UpperExp$u20$for$u20$u64$GT$3fmt17h63c965249d38ffaaE
                0x0000000000141f00        0x0 ./gen/../tecsrust_uart_led_sample/target/armv7a-none-eabi/release/libitron.a(core-d049573bc16596f9.core.5587a85061e7188a-cgu.0.rcgu.o)
                                          0x8 (size before relaxing)
 .ARM.exidx.text._ZN4core3fmt3num8exp_u12817hebe915adc93a3f65E
                0x0000000000141f00        0x0 ./gen/../tecsrust_uart_led_sample/target/armv7a-none-eabi/release/libitron.a(core-d049573bc16596f9.core.5587a85061e7188a-cgu.0.rcgu.o)
                                          0x8 (size before relaxing)
 .ARM.exidx.text._ZN4core3fmt3num54_$LT$impl$u20$core..fmt..LowerExp$u20$for$u20$i128$GT$3fmt17h5da6959838468447E
                0x0000000000141f00        0x0 ./gen/../tecsrust_uart_led_sample/target/armv7a-none-eabi/release/libitron.a(core-d049573bc16596f9.core.5587a85061e7188a-cgu.0.rcgu.o)
                                          0x8 (size before relaxing)
 .ARM.exidx.text._ZN4core3fmt3num54_$LT$impl$u20$core..fmt..LowerExp$u20$for$u20$u128$GT$3fmt17h376c18320fa0ab27E
                0x0000000000141f00        0x0 ./gen/../tecsrust_uart_led_sample/target/armv7a-none-eabi/release/libitron.a(core-d049573bc16596f9.core.5587a85061e7188a-cgu.0.rcgu.o)
                                          0x8 (size before relaxing)
 .ARM.exidx.text._ZN4core3fmt3num54_$LT$impl$u20$core..fmt..UpperExp$u20$for$u20$i128$GT$3fmt17h4fa0aa44e9ac138bE
                0x0000000000141f00        0x0 ./gen/../tecsrust_uart_led_sample/target/armv7a-none-eabi/release/libitron.a(core-d049573bc16596f9.core.5587a85061e7188a-cgu.0.rcgu.o)
                                          0x8 (size before relaxing)
 .ARM.exidx.text._ZN4core3fmt3num54_$LT$impl$u20$core..fmt..UpperExp$u20$for$u20$u128$GT$3fmt17h8104a47a73970792E
                0x0000000000141f00        0x0 ./gen/../tecsrust_uart_led_sample/target/armv7a-none-eabi/release/libitron.a(core-d049573bc16596f9.core.5587a85061e7188a-cgu.0.rcgu.o)
                                          0x8 (size before relaxing)
 .ARM.exidx.text._ZN53_$LT$core..fmt..Error$u20$as$u20$core..fmt..Debug$GT$3fmt17h1fc33b0efc6d4457E
                0x0000000000141f00        0x0 ./gen/../tecsrust_uart_led_sample/target/armv7a-none-eabi/release/libitron.a(core-d049573bc16596f9.core.5587a85061e7188a-cgu.0.rcgu.o)
                                          0x8 (size before relaxing)
 .ARM.exidx.text._ZN42_$LT$$RF$T$u20$as$u20$core..fmt..Debug$GT$3fmt17h24b88fa73242f32eE
                0x0000000000141f00        0x0 ./gen/../tecsrust_uart_led_sample/target/armv7a-none-eabi/release/libitron.a(core-d049573bc16596f9.core.5587a85061e7188a-cgu.0.rcgu.o)
                                          0x8 (size before relaxing)
 .ARM.exidx.text._ZN42_$LT$$RF$T$u20$as$u20$core..fmt..Debug$GT$3fmt17h2b8606028715b277E
                0x0000000000141f00        0x0 ./gen/../tecsrust_uart_led_sample/target/armv7a-none-eabi/release/libitron.a(core-d049573bc16596f9.core.5587a85061e7188a-cgu.0.rcgu.o)
                                          0x8 (size before relaxing)
 .ARM.exidx.text._ZN42_$LT$$RF$T$u20$as$u20$core..fmt..Debug$GT$3fmt17h2c94c47449fce077E
                0x0000000000141f00        0x0 ./gen/../tecsrust_uart_led_sample/target/armv7a-none-eabi/release/libitron.a(core-d049573bc16596f9.core.5587a85061e7188a-cgu.0.rcgu.o)
                                          0x8 (size before relaxing)
 .ARM.exidx.text._ZN42_$LT$$RF$T$u20$as$u20$core..fmt..Debug$GT$3fmt17hf161bf64d7c0ef1eE
                0x0000000000141f00        0x0 ./gen/../tecsrust_uart_led_sample/target/armv7a-none-eabi/release/libitron.a(core-d049573bc16596f9.core.5587a85061e7188a-cgu.0.rcgu.o)
                                          0x8 (size before relaxing)
 .ARM.exidx.text._ZN44_$LT$$RF$T$u20$as$u20$core..fmt..Display$GT$3fmt17h61386bb67a2fbd60E
                0x0000000000141f00        0x0 ./gen/../tecsrust_uart_led_sample/target/armv7a-none-eabi/release/libitron.a(core-d049573bc16596f9.core.5587a85061e7188a-cgu.0.rcgu.o)
                                          0x8 (size before relaxing)
 .ARM.exidx.text._ZN44_$LT$$RF$T$u20$as$u20$core..fmt..Display$GT$3fmt17h8f0befc82ddda638E
                0x0000000000141f00        0x0 ./gen/../tecsrust_uart_led_sample/target/armv7a-none-eabi/release/libitron.a(core-d049573bc16596f9.core.5587a85061e7188a-cgu.0.rcgu.o)
                                          0x8 (size before relaxing)
 .ARM.exidx.text._ZN44_$LT$$RF$T$u20$as$u20$core..fmt..Display$GT$3fmt17hfac9eb6f9e514871E
                0x0000000000141f00        0x0 ./gen/../tecsrust_uart_led_sample/target/armv7a-none-eabi/release/libitron.a(core-d049573bc16596f9.core.5587a85061e7188a-cgu.0.rcgu.o)
                                          0x8 (size before relaxing)
 .ARM.exidx.text._ZN44_$LT$$RF$T$u20$as$u20$core..fmt..Display$GT$3fmt17hfcf05cee7c9056f6E
                0x0000000000141f00        0x0 ./gen/../tecsrust_uart_led_sample/target/armv7a-none-eabi/release/libitron.a(core-d049573bc16596f9.core.5587a85061e7188a-cgu.0.rcgu.o)
                                          0x8 (size before relaxing)
 .ARM.exidx.text._ZN45_$LT$$RF$T$u20$as$u20$core..fmt..LowerHex$GT$3fmt17ha26303ddcb46393bE
                0x0000000000141f00        0x0 ./gen/../tecsrust_uart_led_sample/target/armv7a-none-eabi/release/libitron.a(core-d049573bc16596f9.core.5587a85061e7188a-cgu.0.rcgu.o)
                                          0x8 (size before relaxing)
 .ARM.exidx.text.unlikely._ZN4core5slice5index26slice_start_index_len_fail8do_panic7runtime17h6b9a2d72cc528d7dE
                0x0000000000141f00        0x0 ./gen/../tecsrust_uart_led_sample/target/armv7a-none-eabi/release/libitron.a(core-d049573bc16596f9.core.5587a85061e7188a-cgu.0.rcgu.o)
                                          0x8 (size before relaxing)
 .ARM.exidx.text.unlikely._ZN4core5slice5index24slice_end_index_len_fail8do_panic7runtime17h389d609c37b06f43E
                0x0000000000141f00        0x0 ./gen/../tecsrust_uart_led_sample/target/armv7a-none-eabi/release/libitron.a(core-d049573bc16596f9.core.5587a85061e7188a-cgu.0.rcgu.o)
                                          0x8 (size before relaxing)
 .ARM.exidx.text.unlikely._ZN4core5slice5index22slice_index_order_fail8do_panic7runtime17hba4d89077763ab27E
                0x0000000000141f00        0x0 ./gen/../tecsrust_uart_led_sample/target/armv7a-none-eabi/release/libitron.a(core-d049573bc16596f9.core.5587a85061e7188a-cgu.0.rcgu.o)
                                          0x8 (size before relaxing)
 .ARM.exidx.text.unlikely._ZN4core5slice29_$LT$impl$u20$$u5b$T$u5d$$GT$15copy_from_slice17len_mismatch_fail8do_panic7runtime17ha2cc200a2ee383aeE
                0x0000000000141f00        0x0 ./gen/../tecsrust_uart_led_sample/target/armv7a-none-eabi/release/libitron.a(core-d049573bc16596f9.core.5587a85061e7188a-cgu.0.rcgu.o)
                                          0x8 (size before relaxing)
 .ARM.exidx.text._ZN67_$LT$core..str..iter..EscapeDebug$u20$as$u20$core..fmt..Display$GT$3fmt17h2e2431f416ffb01dE
                0x0000000000141f00        0x0 ./gen/../tecsrust_uart_led_sample/target/armv7a-none-eabi/release/libitron.a(core-d049573bc16596f9.core.5587a85061e7188a-cgu.0.rcgu.o)
                                          0x8 (size before relaxing)
 .ARM.exidx.text._ZN69_$LT$core..str..iter..EscapeDefault$u20$as$u20$core..fmt..Display$GT$3fmt17ha94bdd14781dc3d5E
                0x0000000000141f00        0x0 ./gen/../tecsrust_uart_led_sample/target/armv7a-none-eabi/release/libitron.a(core-d049573bc16596f9.core.5587a85061e7188a-cgu.0.rcgu.o)
                                          0x8 (size before relaxing)
 .ARM.exidx.text._ZN69_$LT$core..str..iter..EscapeUnicode$u20$as$u20$core..fmt..Display$GT$3fmt17h5c27075c7f7ee5aeE
                0x0000000000141f00        0x0 ./gen/../tecsrust_uart_led_sample/target/armv7a-none-eabi/release/libitron.a(core-d049573bc16596f9.core.5587a85061e7188a-cgu.0.rcgu.o)
                                          0x8 (size before relaxing)
 .ARM.exidx.text._ZN4core7unicode12unicode_data10alphabetic6lookup17h0425ea10b4aa7bf8E
                0x0000000000141f00        0x0 ./gen/../tecsrust_uart_led_sample/target/armv7a-none-eabi/release/libitron.a(core-d049573bc16596f9.core.5587a85061e7188a-cgu.0.rcgu.o)
                                          0x8 (size before relaxing)
 .ARM.exidx.text._ZN4core7unicode12unicode_data14case_ignorable6lookup17ha88a31073cb4ea00E
                0x0000000000141f00        0x0 ./gen/../tecsrust_uart_led_sample/target/armv7a-none-eabi/release/libitron.a(core-d049573bc16596f9.core.5587a85061e7188a-cgu.0.rcgu.o)
                                          0x8 (size before relaxing)
 .ARM.exidx.text._ZN4core7unicode12unicode_data5cased6lookup17h855070ae3579273aE
                0x0000000000141f00        0x0 ./gen/../tecsrust_uart_led_sample/target/armv7a-none-eabi/release/libitron.a(core-d049573bc16596f9.core.5587a85061e7188a-cgu.0.rcgu.o)
                                          0x8 (size before relaxing)
 .ARM.exidx.text._ZN4core7unicode12unicode_data2cc6lookup17hbd92340422846ed5E
                0x0000000000141f00        0x0 ./gen/../tecsrust_uart_led_sample/target/armv7a-none-eabi/release/libitron.a(core-d049573bc16596f9.core.5587a85061e7188a-cgu.0.rcgu.o)
                                          0x8 (size before relaxing)
 .ARM.exidx.text._ZN4core7unicode12unicode_data15grapheme_extend11lookup_slow17ha0f2bcc528f4b24fE
                0x0000000000141f00        0x0 ./gen/../tecsrust_uart_led_sample/target/armv7a-none-eabi/release/libitron.a(core-d049573bc16596f9.core.5587a85061e7188a-cgu.0.rcgu.o)
                                          0x8 (size before relaxing)
 .ARM.exidx.text._ZN4core7unicode12unicode_data9lowercase6lookup17h25b6cb6d69b065d2E
                0x0000000000141f00        0x0 ./gen/../tecsrust_uart_led_sample/target/armv7a-none-eabi/release/libitron.a(core-d049573bc16596f9.core.5587a85061e7188a-cgu.0.rcgu.o)
                                          0x8 (size before relaxing)
 .ARM.exidx.text._ZN4core7unicode12unicode_data1n6lookup17hab35f8f69f966811E
                0x0000000000141f00        0x0 ./gen/../tecsrust_uart_led_sample/target/armv7a-none-eabi/release/libitron.a(core-d049573bc16596f9.core.5587a85061e7188a-cgu.0.rcgu.o)
                                          0x8 (size before relaxing)
 .ARM.exidx.text._ZN4core7unicode12unicode_data9uppercase6lookup17h93e2abe42af36001E
                0x0000000000141f00        0x0 ./gen/../tecsrust_uart_led_sample/target/armv7a-none-eabi/release/libitron.a(core-d049573bc16596f9.core.5587a85061e7188a-cgu.0.rcgu.o)
                                          0x8 (size before relaxing)
 .ARM.exidx.text._ZN4core7unicode12unicode_data11conversions8to_lower17h8b23e01b2072e971E
                0x0000000000141f00        0x0 ./gen/../tecsrust_uart_led_sample/target/armv7a-none-eabi/release/libitron.a(core-d049573bc16596f9.core.5587a85061e7188a-cgu.0.rcgu.o)
                                          0x8 (size before relaxing)
 .ARM.exidx.text._ZN4core7unicode12unicode_data11conversions8to_upper17hb90ef9b0b7a7f5d4E
                0x0000000000141f00        0x0 ./gen/../tecsrust_uart_led_sample/target/armv7a-none-eabi/release/libitron.a(core-d049573bc16596f9.core.5587a85061e7188a-cgu.0.rcgu.o)
                                          0x8 (size before relaxing)
 .ARM.exidx.text.__aeabi_memset
                0x0000000000141f00        0x0 ./gen/../tecsrust_uart_led_sample/target/armv7a-none-eabi/release/libitron.a(compiler_builtins-70f608aea3cde50d.compiler_builtins.5a681add74c93a61-cgu.162.rcgu.o)
                                          0x8 (size before relaxing)
 .ARM.exidx.text.__aeabi_memcpy4
                0x0000000000141f00        0x0 ./gen/../tecsrust_uart_led_sample/target/armv7a-none-eabi/release/libitron.a(compiler_builtins-70f608aea3cde50d.compiler_builtins.5a681add74c93a61-cgu.174.rcgu.o)
                                          0x8 (size before relaxing)
 .ARM.exidx.text.__aeabi_dmul
                0x0000000000141f00        0x0 ./gen/../tecsrust_uart_led_sample/target/armv7a-none-eabi/release/libitron.a(compiler_builtins-70f608aea3cde50d.compiler_builtins.5a681add74c93a61-cgu.178.rcgu.o)
                                          0x8 (size before relaxing)
 .ARM.exidx.text.__aeabi_fcmplt
                0x0000000000141f00        0x0 ./gen/../tecsrust_uart_led_sample/target/armv7a-none-eabi/release/libitron.a(compiler_builtins-70f608aea3cde50d.compiler_builtins.5a681add74c93a61-cgu.180.rcgu.o)
                                          0x8 (size before relaxing)
 .ARM.exidx.text.__aeabi_memclr4
                0x0000000000141f00        0x0 ./gen/../tecsrust_uart_led_sample/target/armv7a-none-eabi/release/libitron.a(compiler_builtins-70f608aea3cde50d.compiler_builtins.5a681add74c93a61-cgu.201.rcgu.o)
                                          0x8 (size before relaxing)
 .ARM.exidx.text.__aeabi_fcmpge
                0x0000000000141f00        0x0 ./gen/../tecsrust_uart_led_sample/target/armv7a-none-eabi/release/libitron.a(compiler_builtins-70f608aea3cde50d.compiler_builtins.5a681add74c93a61-cgu.206.rcgu.o)
                                          0x8 (size before relaxing)
 .ARM.exidx.text.__aeabi_f2h
                0x0000000000141f00        0x0 ./gen/../tecsrust_uart_led_sample/target/armv7a-none-eabi/release/libitron.a(compiler_builtins-70f608aea3cde50d.compiler_builtins.5a681add74c93a61-cgu.210.rcgu.o)
                                          0x8 (size before relaxing)
 .ARM.exidx.text.__aeabi_memcpy
                0x0000000000141f00        0x0 ./gen/../tecsrust_uart_led_sample/target/armv7a-none-eabi/release/libitron.a(compiler_builtins-70f608aea3cde50d.compiler_builtins.5a681add74c93a61-cgu.223.rcgu.o)
                                          0x8 (size before relaxing)
 .ARM.exidx.text.__aeabi_memcpy8
                0x0000000000141f00        0x0 ./gen/../tecsrust_uart_led_sample/target/armv7a-none-eabi/release/libitron.a(compiler_builtins-70f608aea3cde50d.compiler_builtins.5a681add74c93a61-cgu.253.rcgu.o)
                                          0x8 (size before relaxing)
 .ARM.exidx.text.__aeabi_dcmplt
                0x0000000000141f00        0x0 ./gen/../tecsrust_uart_led_sample/target/armv7a-none-eabi/release/libitron.a(compiler_builtins-70f608aea3cde50d.compiler_builtins.5a681add74c93a61-cgu.261.rcgu.o)
                                          0x8 (size before relaxing)
 .ARM.exidx.text.__aeabi_ddiv
                0x0000000000141f00        0x0 ./gen/../tecsrust_uart_led_sample/target/armv7a-none-eabi/release/libitron.a(compiler_builtins-70f608aea3cde50d.compiler_builtins.5a681add74c93a61-cgu.263.rcgu.o)
                                          0x8 (size before relaxing)
 .ARM.exidx.text.__aeabi_ul2d
                0x0000000000141f00        0x0 ./gen/../tecsrust_uart_led_sample/target/armv7a-none-eabi/release/libitron.a(compiler_builtins-70f608aea3cde50d.compiler_builtins.5a681add74c93a61-cgu.270.rcgu.o)
                                          0x8 (size before relaxing)
 .ARM.exidx.text.__aeabi_fcmpeq
                0x0000000000141f00        0x0 ./gen/../tecsrust_uart_led_sample/target/armv7a-none-eabi/release/libitron.a(compiler_builtins-70f608aea3cde50d.compiler_builtins.5a681add74c93a61-cgu.283.rcgu.o)
                                          0x8 (size before relaxing)
 .ARM.exidx.text.__aeabi_dcmpeq
                0x0000000000141f00        0x0 ./gen/../tecsrust_uart_led_sample/target/armv7a-none-eabi/release/libitron.a(compiler_builtins-70f608aea3cde50d.compiler_builtins.5a681add74c93a61-cgu.287.rcgu.o)
                                          0x8 (size before relaxing)
 .ARM.exidx.text.__aeabi_h2f
                0x0000000000141f00        0x0 ./gen/../tecsrust_uart_led_sample/target/armv7a-none-eabi/release/libitron.a(compiler_builtins-70f608aea3cde50d.compiler_builtins.5a681add74c93a61-cgu.300.rcgu.o)
                                          0x8 (size before relaxing)
 .ARM.exidx.text.memcmp
                0x0000000000141f00        0x0 ./gen/../tecsrust_uart_led_sample/target/armv7a-none-eabi/release/libitron.a(compiler_builtins-70f608aea3cde50d.compiler_builtins.5a681add74c93a61-cgu.310.rcgu.o)
                                          0x8 (size before relaxing)
 .ARM.exidx.text.__aeabi_fdiv
                0x0000000000141f00        0x0 ./gen/../tecsrust_uart_led_sample/target/armv7a-none-eabi/release/libitron.a(compiler_builtins-70f608aea3cde50d.compiler_builtins.5a681add74c93a61-cgu.355.rcgu.o)
                                          0x8 (size before relaxing)
 .ARM.exidx.text.__aeabi_dcmpge
                0x0000000000141f00        0x0 ./gen/../tecsrust_uart_led_sample/target/armv7a-none-eabi/release/libitron.a(compiler_builtins-70f608aea3cde50d.compiler_builtins.5a681add74c93a61-cgu.361.rcgu.o)
                                          0x8 (size before relaxing)
 .ARM.exidx.text.__aeabi_ul2f
                0x0000000000141f00        0x0 ./gen/../tecsrust_uart_led_sample/target/armv7a-none-eabi/release/libitron.a(compiler_builtins-70f608aea3cde50d.compiler_builtins.5a681add74c93a61-cgu.365.rcgu.o)
                                          0x8 (size before relaxing)
 .ARM.exidx.text.__aeabi_memclr8
                0x0000000000141f00        0x0 ./gen/../tecsrust_uart_led_sample/target/armv7a-none-eabi/release/libitron.a(compiler_builtins-70f608aea3cde50d.compiler_builtins.5a681add74c93a61-cgu.375.rcgu.o)
                                          0x8 (size before relaxing)
 .ARM.exidx.text.__aeabi_fmul
                0x0000000000141f00        0x0 ./gen/../tecsrust_uart_led_sample/target/armv7a-none-eabi/release/libitron.a(compiler_builtins-70f608aea3cde50d.compiler_builtins.5a681add74c93a61-cgu.393.rcgu.o)
                                          0x8 (size before relaxing)
 .ARM.exidx.text.__aeabi_memclr
                0x0000000000141f00        0x0 ./gen/../tecsrust_uart_led_sample/target/armv7a-none-eabi/release/libitron.a(compiler_builtins-70f608aea3cde50d.compiler_builtins.5a681add74c93a61-cgu.395.rcgu.o)
                                          0x8 (size before relaxing)
 .ARM.exidx.text._ZN17compiler_builtins5float3div3div17he78d0620a7b75566E
                0x0000000000141f00        0x0 ./gen/../tecsrust_uart_led_sample/target/armv7a-none-eabi/release/libitron.a(compiler_builtins-70f608aea3cde50d.compiler_builtins.5a681add74c93a61-cgu.000.rcgu.o)
                                          0x8 (size before relaxing)
 .ARM.exidx.text._ZN17compiler_builtins5float3div8__divsf317h2b1d2160bcddc788E
                0x0000000000141f00        0x0 ./gen/../tecsrust_uart_led_sample/target/armv7a-none-eabi/release/libitron.a(compiler_builtins-70f608aea3cde50d.compiler_builtins.5a681add74c93a61-cgu.000.rcgu.o)
                                          0x8 (size before relaxing)
 .ARM.exidx.text._ZN17compiler_builtins5float3div8__divdf317hce8b9ad476be59d6E
                0x0000000000141f00        0x0 ./gen/../tecsrust_uart_led_sample/target/armv7a-none-eabi/release/libitron.a(compiler_builtins-70f608aea3cde50d.compiler_builtins.5a681add74c93a61-cgu.000.rcgu.o)
                                          0x8 (size before relaxing)
 .ARM.exidx.text._ZN17compiler_builtins5float3mul3mul17hf2a17768751d3093E
                0x0000000000141f00        0x0 ./gen/../tecsrust_uart_led_sample/target/armv7a-none-eabi/release/libitron.a(compiler_builtins-70f608aea3cde50d.compiler_builtins.5a681add74c93a61-cgu.004.rcgu.o)
                                          0x8 (size before relaxing)
 .ARM.exidx.text._ZN17compiler_builtins5float3mul8__mulsf317h25278f3241c059d4E
                0x0000000000141f00        0x0 ./gen/../tecsrust_uart_led_sample/target/armv7a-none-eabi/release/libitron.a(compiler_builtins-70f608aea3cde50d.compiler_builtins.5a681add74c93a61-cgu.004.rcgu.o)
                                          0x8 (size before relaxing)
 .ARM.exidx.text._ZN17compiler_builtins5float3mul8__muldf317hccb81ca3c0286231E
                0x0000000000141f00        0x0 ./gen/../tecsrust_uart_led_sample/target/armv7a-none-eabi/release/libitron.a(compiler_builtins-70f608aea3cde50d.compiler_builtins.5a681add74c93a61-cgu.004.rcgu.o)
                                          0x8 (size before relaxing)
 .ARM.exidx.text._ZN17compiler_builtins3mem6memcpy17h2e27bf7b653d77b8E
                0x0000000000141f00        0x0 ./gen/../tecsrust_uart_led_sample/target/armv7a-none-eabi/release/libitron.a(compiler_builtins-70f608aea3cde50d.compiler_builtins.5a681add74c93a61-cgu.009.rcgu.o)
                                          0x8 (size before relaxing)
 .ARM.exidx.text._ZN17compiler_builtins3mem7memmove17h5a3e1228d8082146E
                0x0000000000141f00        0x0 ./gen/../tecsrust_uart_led_sample/target/armv7a-none-eabi/release/libitron.a(compiler_builtins-70f608aea3cde50d.compiler_builtins.5a681add74c93a61-cgu.009.rcgu.o)
                                          0x8 (size before relaxing)
 .ARM.exidx.text._ZN17compiler_builtins3mem6memset17h37b1769849978255E
                0x0000000000141f00        0x0 ./gen/../tecsrust_uart_led_sample/target/armv7a-none-eabi/release/libitron.a(compiler_builtins-70f608aea3cde50d.compiler_builtins.5a681add74c93a61-cgu.009.rcgu.o)
                                          0x8 (size before relaxing)
 .ARM.exidx.text._ZN17compiler_builtins3mem4bcmp17h6438afe9a882ff74E
                0x0000000000141f00        0x0 ./gen/../tecsrust_uart_led_sample/target/armv7a-none-eabi/release/libitron.a(compiler_builtins-70f608aea3cde50d.compiler_builtins.5a681add74c93a61-cgu.009.rcgu.o)
                                          0x8 (size before relaxing)
 .ARM.exidx.text._ZN17compiler_builtins3mem6strlen17hdb1c52627ea21c52E
                0x0000000000141f00        0x0 ./gen/../tecsrust_uart_led_sample/target/armv7a-none-eabi/release/libitron.a(compiler_builtins-70f608aea3cde50d.compiler_builtins.5a681add74c93a61-cgu.009.rcgu.o)
                                          0x8 (size before relaxing)
 .ARM.exidx.text._ZN84_$LT$compiler_builtins..int..big..u256$u20$as$u20$core..ops..bit..Shr$LT$u32$GT$$GT$3shr17h700137e2b572ae43E
                0x0000000000141f00        0x0 ./gen/../tecsrust_uart_led_sample/target/armv7a-none-eabi/release/libitron.a(compiler_builtins-70f608aea3cde50d.compiler_builtins.5a681add74c93a61-cgu.019.rcgu.o)
                                          0x8 (size before relaxing)
 .ARM.exidx.text._ZN17compiler_builtins3int3big71_$LT$impl$u20$compiler_builtins..int..traits..HInt$u20$for$u20$u128$GT$14zero_widen_mul17h2a6f60738a72942fE
                0x0000000000141f00        0x0 ./gen/../tecsrust_uart_led_sample/target/armv7a-none-eabi/release/libitron.a(compiler_builtins-70f608aea3cde50d.compiler_builtins.5a681add74c93a61-cgu.019.rcgu.o)
                                          0x8 (size before relaxing)
 .ARM.exidx.text._ZN17compiler_builtins3int3big71_$LT$impl$u20$compiler_builtins..int..traits..HInt$u20$for$u20$i128$GT$14zero_widen_mul17h757cd97f511fe0d1E
                0x0000000000141f00        0x0 ./gen/../tecsrust_uart_led_sample/target/armv7a-none-eabi/release/libitron.a(compiler_builtins-70f608aea3cde50d.compiler_builtins.5a681add74c93a61-cgu.019.rcgu.o)
                                          0x8 (size before relaxing)
 .ARM.exidx.text.unlikely._ZN17compiler_builtins3int3big71_$LT$impl$u20$compiler_builtins..int..traits..HInt$u20$for$u20$i128$GT$9widen_mul17hbe745c677a8cf624E
                0x0000000000141f00        0x0 ./gen/../tecsrust_uart_led_sample/target/armv7a-none-eabi/release/libitron.a(compiler_builtins-70f608aea3cde50d.compiler_builtins.5a681add74c93a61-cgu.019.rcgu.o)
                                          0x8 (size before relaxing)
 .ARM.exidx.text.unlikely._ZN17compiler_builtins3int3big71_$LT$impl$u20$compiler_builtins..int..traits..HInt$u20$for$u20$i128$GT$8widen_hi17hd02f55ec31f3daf8E
                0x0000000000141f00        0x0 ./gen/../tecsrust_uart_led_sample/target/armv7a-none-eabi/release/libitron.a(compiler_builtins-70f608aea3cde50d.compiler_builtins.5a681add74c93a61-cgu.019.rcgu.o)
                                          0x8 (size before relaxing)
 .ARM.exidx.text._ZN90_$LT$compiler_builtins..int..big..i256$u20$as$u20$compiler_builtins..int..traits..DInt$GT$2lo17h7b22363a25d41783E
                0x0000000000141f00        0x0 ./gen/../tecsrust_uart_led_sample/target/armv7a-none-eabi/release/libitron.a(compiler_builtins-70f608aea3cde50d.compiler_builtins.5a681add74c93a61-cgu.019.rcgu.o)
                                          0x8 (size before relaxing)
 .ARM.exidx.text._ZN90_$LT$compiler_builtins..int..big..i256$u20$as$u20$compiler_builtins..int..traits..DInt$GT$2hi17h3540cc33fb75817bE
                0x0000000000141f00        0x0 ./gen/../tecsrust_uart_led_sample/target/armv7a-none-eabi/release/libitron.a(compiler_builtins-70f608aea3cde50d.compiler_builtins.5a681add74c93a61-cgu.019.rcgu.o)
                                          0x8 (size before relaxing)
 .ARM.exidx.text._ZN17compiler_builtins3int6traits4DInt5lo_hi17ha308a58add6cc6a0E
                0x0000000000141f00        0x0 ./gen/../tecsrust_uart_led_sample/target/armv7a-none-eabi/release/libitron.a(compiler_builtins-70f608aea3cde50d.compiler_builtins.5a681add74c93a61-cgu.019.rcgu.o)
                                          0x8 (size before relaxing)
 .ARM.exidx.text.unlikely._ZN84_$LT$compiler_builtins..int..big..i256$u20$as$u20$core..ops..bit..Shl$LT$u32$GT$$GT$3shl17h7aea36307c5c7502E
                0x0000000000141f00        0x0 ./gen/../tecsrust_uart_led_sample/target/armv7a-none-eabi/release/libitron.a(compiler_builtins-70f608aea3cde50d.compiler_builtins.5a681add74c93a61-cgu.019.rcgu.o)
                                          0x8 (size before relaxing)
 .ARM.exidx.text.__udivmoddi4
                0x0000000000141f00        0x0 ./gen/../tecsrust_uart_led_sample/target/armv7a-none-eabi/release/libitron.a(compiler_builtins-70f608aea3cde50d.compiler_builtins.5a681add74c93a61-cgu.347.rcgu.o)
                                          0x8 (size before relaxing)
 .ARM.exidx.text._ZN17compiler_builtins3int19specialized_div_rem12u128_div_rem17h745fc7146425b8c6E
                0x0000000000141f00        0x0 ./gen/../tecsrust_uart_led_sample/target/armv7a-none-eabi/release/libitron.a(compiler_builtins-70f608aea3cde50d.compiler_builtins.5a681add74c93a61-cgu.010.rcgu.o)
                                          0x8 (size before relaxing)
 .ARM.exidx.text._ZN17compiler_builtins3int19specialized_div_rem11u64_div_rem17h1dcded8ad6a6aa41E
                0x0000000000141f00        0x0 ./gen/../tecsrust_uart_led_sample/target/armv7a-none-eabi/release/libitron.a(compiler_builtins-70f608aea3cde50d.compiler_builtins.5a681add74c93a61-cgu.010.rcgu.o)
                                          0x8 (size before relaxing)
                0x0000000000141f00                __exidx_end = .

.rel.dyn        0x0000000000141f00        0x0
 .rel.iplt      0x0000000000141f00        0x0 objs/start.o

.data           0x0000000000141f00       0x40
                0x0000000000141f00                __start_data = .
 *(.data)
 .data          0x0000000000141f00        0x0 objs/start.o
 .data          0x0000000000141f00        0x0 objs/log_output.o
 .data          0x0000000000141f00        0x0 objs/vasyslog.o
 .data          0x0000000000141f00        0x0 objs/t_perror.o
 .data          0x0000000000141f00        0x0 objs/strerror.o
 .data          0x0000000000141f00        0x0 objs/tTask_rProcessor1Migratable_tecsgen.o
 .data          0x0000000000141f00        0x0 objs/tSemaphore_rProcessor1Migratable_tecsgen.o
 .data          0x0000000000141f00        0x0 objs/tInterruptRequest_rProcessor1Migratable_tecsgen.o
 .data          0x0000000000141f00        0x0 objs/tISR_rProcessor1Migratable_tecsgen.o
 .data          0x0000000000141f00        0x0 objs/tTerminateRoutine_rProcessor1Migratable_tecsgen.o
 .data          0x0000000000141f00        0x0 objs/tSerialPortMain_rProcessor1Migratable_tecsgen.o
 .data          0x0000000000141f00        0x0 objs/tSerialAdapter_rProcessor1Migratable_tecsgen.o
 .data          0x0000000000141f00        0x0 objs/tSysLog_rProcessor1Migratable_tecsgen.o
 .data          0x0000000000141f00        0x0 objs/tSysLogAdapter_rProcessor1Migratable_tecsgen.o
 .data          0x0000000000141f00        0x0 objs/tLogTaskMain_rProcessor1Migratable_tecsgen.o
 .data          0x0000000000141f00        0x0 objs/tPutLogZyboZ7_rProcessor1Migratable_tecsgen.o
 .data          0x0000000000141f00        0x0 objs/tXUartPs_rProcessor1Migratable_tecsgen.o
 .data          0x0000000000141f00        0x0 objs/tSIOPortZyboZ7Main_rProcessor1Migratable_tecsgen.o
 .data          0x0000000000141f00        0x0 objs/tTask.o
 .data          0x0000000000141f00        0x0 objs/tInterruptRequest.o
 .data          0x0000000000141f00        0x0 objs/tISR.o
 .data          0x0000000000141f00        0x0 objs/tTerminateRoutine.o
 .data          0x0000000000141f00        0x0 objs/tSerialPortMain.o
 .data          0x0000000000141f00        0x0 objs/tSerialAdapter.o
 .data          0x0000000000141f00        0x0 objs/tSysLog.o
 .data          0x0000000000141f00        0x0 objs/tSysLogAdapter.o
 .data          0x0000000000141f00        0x0 objs/tLogTaskMain.o
 .data          0x0000000000141f00        0x0 objs/tPutLogZyboZ7.o
 .data          0x0000000000141f00        0x0 objs/tXUartPs.o
 .data          0x0000000000141f00        0x0 objs/init_tecs.o
 .data          0x0000000000141f00        0x0 objs/kernel_cfg.o
 .data          0x0000000000141f00        0x0 ./gen/../tecsrust_uart_led_sample/target/armv7a-none-eabi/release/libitron.a(63f8a0b8a638da8c-udivmodsi4.o)
 .data          0x0000000000141f00        0x0 ./gen/../tecsrust_uart_led_sample/target/armv7a-none-eabi/release/libitron.a(63f8a0b8a638da8c-udivsi3.o)
 .data          0x0000000000141f00        0x0 ./gen/../tecsrust_uart_led_sample/target/armv7a-none-eabi/release/libitron.a(63f8a0b8a638da8c-aeabi_div0.o)
 .data          0x0000000000141f00       0x40 ./libkernel.a(target_kernel_impl.o)
                0x0000000000141f00                arm_memory_area
 .data          0x0000000000141f40        0x0 ./libkernel.a(chip_kernel_impl.o)
 .data          0x0000000000141f40        0x0 ./libkernel.a(mpcore_kernel_impl.o)
 .data          0x0000000000141f40        0x0 ./libkernel.a(gic_kernel_impl.o)
 .data          0x0000000000141f40        0x0 ./libkernel.a(pl310.o)
 .data          0x0000000000141f40        0x0 ./libkernel.a(mpcore_timer.o)
 .data          0x0000000000141f40        0x0 ./libkernel.a(core_kernel_impl.o)
 .data          0x0000000000141f40        0x0 ./libkernel.a(arm.o)
 .data          0x0000000000141f40        0x0 ./libkernel.a(startup.o)
 .data          0x0000000000141f40        0x0 ./libkernel.a(task.o)
 .data          0x0000000000141f40        0x0 ./libkernel.a(taskhook.o)
 .data          0x0000000000141f40        0x0 ./libkernel.a(wait.o)
 .data          0x0000000000141f40        0x0 ./libkernel.a(time_event.o)
 .data          0x0000000000141f40        0x0 ./libkernel.a(task_sync.o)
 .data          0x0000000000141f40        0x0 ./libkernel.a(semaphore.o)
 .data          0x0000000000141f40        0x0 ./libkernel.a(dataqueue.o)
 .data          0x0000000000141f40        0x0 ./libkernel.a(mutex.o)
 .data          0x0000000000141f40        0x0 ./libkernel.a(spin_lock.o)
 .data          0x0000000000141f40        0x0 ./libkernel.a(sys_manage.o)
 .data          0x0000000000141f40        0x0 ./libkernel.a(interrupt.o)
 .data          0x0000000000141f40        0x0 ./libkernel.a(core_support.o)
 .data          0x0000000000141f40        0x0 ./libkernel.a(task_term.o)
 .data          0x0000000000141f40        0x0 ./libkernel.a(gic_support.o)
 .data          0x0000000000141f40        0x0 /usr/lib/gcc/arm-none-eabi/10.3.1/../../../arm-none-eabi/lib/thumb/v7-a/nofp/libc.a(lib_a-memset.o)
 *(.data.*)
                0x0000000000141f40                __end_data = .
                0x0000000000141f00                __start_idata = LOADADDR (.data)

.igot.plt       0x0000000000141f40        0x0
 .igot.plt      0x0000000000141f40        0x0 objs/start.o
                0x0000000000141f40                . = ALIGN (0x4)
                0x0000000000141f40                _edata = .
                [!provide]                        PROVIDE (edata = .)

.bss            0x0000000000141f40     0xc5f8
                0x0000000000141f40                __start_bss = .
 *(.bss)
 .bss           0x0000000000141f40        0x0 objs/start.o
 .bss           0x0000000000141f40        0x0 objs/log_output.o
 .bss           0x0000000000141f40        0x0 objs/vasyslog.o
 .bss           0x0000000000141f40        0x0 objs/t_perror.o
 .bss           0x0000000000141f40        0x0 objs/strerror.o
 .bss           0x0000000000141f40        0x0 objs/tTask_rProcessor1Migratable_tecsgen.o
 .bss           0x0000000000141f40        0x0 objs/tSemaphore_rProcessor1Migratable_tecsgen.o
 .bss           0x0000000000141f40        0x0 objs/tInterruptRequest_rProcessor1Migratable_tecsgen.o
 .bss           0x0000000000141f40        0x0 objs/tISR_rProcessor1Migratable_tecsgen.o
 .bss           0x0000000000141f40        0x0 objs/tTerminateRoutine_rProcessor1Migratable_tecsgen.o
 .bss           0x0000000000141f40      0x234 objs/tSerialPortMain_rProcessor1Migratable_tecsgen.o
                0x0000000000141f40                tSerialPortMain_CB_tab
                0x0000000000141f74                tSerialPortMain_SerialPort1_SerialPortMain_CB_sendBuffer_INIT
                0x0000000000142074                tSerialPortMain_SerialPort1_SerialPortMain_CB_receiveBuffer_INIT
 .bss           0x0000000000142174        0x0 objs/tSerialAdapter_rProcessor1Migratable_tecsgen.o
 .bss           0x0000000000142174      0x49c objs/tSysLog_rProcessor1Migratable_tecsgen.o
                0x0000000000142174                tSysLog_SINGLE_CELL_CB
                0x0000000000142190                tSysLog_SINGLE_CELL_CB_logBuffer_INIT
 .bss           0x0000000000142610        0x0 objs/tSysLogAdapter_rProcessor1Migratable_tecsgen.o
 .bss           0x0000000000142610        0x0 objs/tLogTaskMain_rProcessor1Migratable_tecsgen.o
 .bss           0x0000000000142610        0x0 objs/tPutLogZyboZ7_rProcessor1Migratable_tecsgen.o
 .bss           0x0000000000142610        0x8 objs/tXUartPs_rProcessor1Migratable_tecsgen.o
                0x0000000000142610                tXUartPs_CB_tab
 .bss           0x0000000000142618        0x0 objs/tSIOPortZyboZ7Main_rProcessor1Migratable_tecsgen.o
 .bss           0x0000000000142618        0x0 objs/tTask.o
 .bss           0x0000000000142618        0x0 objs/tInterruptRequest.o
 .bss           0x0000000000142618        0x0 objs/tISR.o
 .bss           0x0000000000142618        0x0 objs/tTerminateRoutine.o
 .bss           0x0000000000142618        0x0 objs/tSerialPortMain.o
 .bss           0x0000000000142618        0x0 objs/tSerialAdapter.o
 .bss           0x0000000000142618        0x0 objs/tSysLog.o
 .bss           0x0000000000142618        0x0 objs/tSysLogAdapter.o
 .bss           0x0000000000142618        0x0 objs/tLogTaskMain.o
 .bss           0x0000000000142618        0x0 objs/tPutLogZyboZ7.o
 .bss           0x0000000000142618        0x0 objs/tXUartPs.o
 .bss           0x0000000000142618        0x0 objs/init_tecs.o
 .bss           0x0000000000142618       0x18 objs/kernel_cfg.o
                0x0000000000142618                _kernel_tevtcb_prc2
                0x0000000000142620                _kernel_tevtcb_prc1
                0x0000000000142628                _kernel_kerflg_table
 .bss           0x0000000000142630        0x0 ./gen/../tecsrust_uart_led_sample/target/armv7a-none-eabi/release/libitron.a(63f8a0b8a638da8c-udivmodsi4.o)
 .bss           0x0000000000142630        0x0 ./gen/../tecsrust_uart_led_sample/target/armv7a-none-eabi/release/libitron.a(63f8a0b8a638da8c-udivsi3.o)
 .bss           0x0000000000142630        0x0 ./gen/../tecsrust_uart_led_sample/target/armv7a-none-eabi/release/libitron.a(63f8a0b8a638da8c-aeabi_div0.o)
 .bss           0x0000000000142630        0x0 ./libkernel.a(target_kernel_impl.o)
 .bss           0x0000000000142630        0x0 ./libkernel.a(chip_kernel_impl.o)
 .bss           0x0000000000142630        0x0 ./libkernel.a(mpcore_kernel_impl.o)
 .bss           0x0000000000142630        0x0 ./libkernel.a(gic_kernel_impl.o)
 .bss           0x0000000000142630        0x0 ./libkernel.a(pl310.o)
 .bss           0x0000000000142630        0x0 ./libkernel.a(mpcore_timer.o)
 *fill*         0x0000000000142630     0x19d0 
 .bss           0x0000000000144000     0x4010 ./libkernel.a(core_kernel_impl.o)
                0x0000000000148000                _kernel_giant_lock
                0x0000000000148004                TOPPERS_sil_spn_var
                0x0000000000148008                _kernel_start_sync
 .bss           0x0000000000148010        0x0 ./libkernel.a(arm.o)
 .bss           0x0000000000148010        0xc ./libkernel.a(startup.o)
 .bss           0x000000000014801c        0x0 ./libkernel.a(task.o)
 .bss           0x000000000014801c        0xc ./libkernel.a(taskhook.o)
                0x000000000014801c                _kernel_mtxhook_release_all
                0x0000000000148020                _kernel_mtxhook_scan_ceilmtx
                0x0000000000148024                _kernel_mtxhook_check_ceilpri
 .bss           0x0000000000148028        0x0 ./libkernel.a(wait.o)
 .bss           0x0000000000148028       0x1c ./libkernel.a(time_event.o)
                0x0000000000148028                _kernel_current_evttim
                0x000000000014802c                _kernel_boundary_evttim
                0x0000000000148030                _kernel_monotonic_evttim
                0x0000000000148038                _kernel_systim_offset
                0x0000000000148040                _kernel_current_hrtcnt
 .bss           0x0000000000148044        0x0 ./libkernel.a(task_sync.o)
 .bss           0x0000000000148044        0x0 ./libkernel.a(semaphore.o)
 .bss           0x0000000000148044        0x0 ./libkernel.a(dataqueue.o)
 .bss           0x0000000000148044        0x0 ./libkernel.a(mutex.o)
 .bss           0x0000000000148044        0x0 ./libkernel.a(spin_lock.o)
 .bss           0x0000000000148044        0x0 ./libkernel.a(sys_manage.o)
 .bss           0x0000000000148044        0x0 ./libkernel.a(interrupt.o)
 .bss           0x0000000000148044        0x0 ./libkernel.a(core_support.o)
 .bss           0x0000000000148044        0x0 ./libkernel.a(task_term.o)
 .bss           0x0000000000148044        0x0 ./libkernel.a(gic_support.o)
 .bss           0x0000000000148044        0x0 /usr/lib/gcc/arm-none-eabi/10.3.1/../../../arm-none-eabi/lib/thumb/v7-a/nofp/libc.a(lib_a-memset.o)
 *(.bss.*)
 .bss..L_MergedGlobals
                0x0000000000148044       0x24 ./gen/../tecsrust_uart_led_sample/target/armv7a-none-eabi/release/libitron.a(itron-45c5fd98eb955c4a.itron.9d87066d26af0b75-cgu.0.rcgu.o)
 *(.kernel_data_*)
 .kernel_data_CLS_ALL_PRC1
                0x0000000000148068      0x13c objs/kernel_cfg.o
 .kernel_data_CLS_ALL_PRC2
                0x00000000001481a4       0xc4 objs/kernel_cfg.o
 .kernel_data_CLS_PRC1
                0x0000000000148268       0x68 objs/kernel_cfg.o
 .kernel_data_CLS_PRC2
                0x00000000001482d0       0x68 objs/kernel_cfg.o
 *(.stack*)
 .stack_CLS_ALL_PRC1
                0x0000000000148338     0x3100 objs/kernel_cfg.o
 .stack_CLS_ALL_PRC2
                0x000000000014b438     0x2100 objs/kernel_cfg.o
 .stack_CLS_PRC1
                0x000000000014d538      0x800 objs/kernel_cfg.o
 .stack_CLS_PRC2
                0x000000000014dd38      0x800 objs/kernel_cfg.o
 *(COMMON)
                0x000000000014e538                __end_bss = .
                0x000000000014e538                . = ALIGN (0x4)
                0x000000000014e538                _end = .
                0x000000000014e538                _heap = .
                [!provide]                        PROVIDE (end = .)

.comment        0x0000000000000000       0x67
 *(.comment)
 .comment       0x0000000000000000       0x33 objs/log_output.o
                                         0x34 (size before relaxing)
 .comment       0x0000000000000033       0x34 objs/vasyslog.o
 .comment       0x0000000000000033       0x34 objs/t_perror.o
 .comment       0x0000000000000033       0x34 objs/strerror.o
 .comment       0x0000000000000033       0x34 objs/tTask_rProcessor1Migratable_tecsgen.o
 .comment       0x0000000000000033       0x34 objs/tSemaphore_rProcessor1Migratable_tecsgen.o
 .comment       0x0000000000000033       0x34 objs/tInterruptRequest_rProcessor1Migratable_tecsgen.o
 .comment       0x0000000000000033       0x34 objs/tISR_rProcessor1Migratable_tecsgen.o
 .comment       0x0000000000000033       0x34 objs/tTerminateRoutine_rProcessor1Migratable_tecsgen.o
 .comment       0x0000000000000033       0x34 objs/tSerialPortMain_rProcessor1Migratable_tecsgen.o
 .comment       0x0000000000000033       0x34 objs/tSerialAdapter_rProcessor1Migratable_tecsgen.o
 .comment       0x0000000000000033       0x34 objs/tSysLog_rProcessor1Migratable_tecsgen.o
 .comment       0x0000000000000033       0x34 objs/tSysLogAdapter_rProcessor1Migratable_tecsgen.o
 .comment       0x0000000000000033       0x34 objs/tLogTaskMain_rProcessor1Migratable_tecsgen.o
 .comment       0x0000000000000033       0x34 objs/tPutLogZyboZ7_rProcessor1Migratable_tecsgen.o
 .comment       0x0000000000000033       0x34 objs/tXUartPs_rProcessor1Migratable_tecsgen.o
 .comment       0x0000000000000033       0x34 objs/tSIOPortZyboZ7Main_rProcessor1Migratable_tecsgen.o
 .comment       0x0000000000000033       0x34 objs/tTask.o
 .comment       0x0000000000000033       0x34 objs/tInterruptRequest.o
 .comment       0x0000000000000033       0x34 objs/tISR.o
 .comment       0x0000000000000033       0x34 objs/tTerminateRoutine.o
 .comment       0x0000000000000033       0x34 objs/tSerialPortMain.o
 .comment       0x0000000000000033       0x34 objs/tSerialAdapter.o
 .comment       0x0000000000000033       0x34 objs/tSysLog.o
 .comment       0x0000000000000033       0x34 objs/tSysLogAdapter.o
 .comment       0x0000000000000033       0x34 objs/tLogTaskMain.o
 .comment       0x0000000000000033       0x34 objs/tPutLogZyboZ7.o
 .comment       0x0000000000000033       0x34 objs/tXUartPs.o
 .comment       0x0000000000000033       0x34 objs/init_tecs.o
 .comment       0x0000000000000033       0x34 objs/kernel_cfg.o
 .comment       0x0000000000000033       0x34 ./gen/../tecsrust_uart_led_sample/target/armv7a-none-eabi/release/libitron.a(itron-45c5fd98eb955c4a.itron.9d87066d26af0b75-cgu.0.rcgu.o)
                                         0x35 (size before relaxing)
 .comment       0x0000000000000067       0x35 ./gen/../tecsrust_uart_led_sample/target/armv7a-none-eabi/release/libitron.a(itron-fbcb73bf0b635dd5.itron.68e737fdf62a80e5-cgu.0.rcgu.o)
 .comment       0x0000000000000067       0x35 ./gen/../tecsrust_uart_led_sample/target/armv7a-none-eabi/release/libitron.a(core-d049573bc16596f9.core.5587a85061e7188a-cgu.0.rcgu.o)
 .comment       0x0000000000000067       0x35 ./gen/../tecsrust_uart_led_sample/target/armv7a-none-eabi/release/libitron.a(compiler_builtins-70f608aea3cde50d.compiler_builtins.5a681add74c93a61-cgu.162.rcgu.o)
 .comment       0x0000000000000067       0x35 ./gen/../tecsrust_uart_led_sample/target/armv7a-none-eabi/release/libitron.a(compiler_builtins-70f608aea3cde50d.compiler_builtins.5a681add74c93a61-cgu.174.rcgu.o)
 .comment       0x0000000000000067       0x35 ./gen/../tecsrust_uart_led_sample/target/armv7a-none-eabi/release/libitron.a(compiler_builtins-70f608aea3cde50d.compiler_builtins.5a681add74c93a61-cgu.178.rcgu.o)
 .comment       0x0000000000000067       0x35 ./gen/../tecsrust_uart_led_sample/target/armv7a-none-eabi/release/libitron.a(compiler_builtins-70f608aea3cde50d.compiler_builtins.5a681add74c93a61-cgu.180.rcgu.o)
 .comment       0x0000000000000067       0x35 ./gen/../tecsrust_uart_led_sample/target/armv7a-none-eabi/release/libitron.a(compiler_builtins-70f608aea3cde50d.compiler_builtins.5a681add74c93a61-cgu.201.rcgu.o)
 .comment       0x0000000000000067       0x35 ./gen/../tecsrust_uart_led_sample/target/armv7a-none-eabi/release/libitron.a(compiler_builtins-70f608aea3cde50d.compiler_builtins.5a681add74c93a61-cgu.206.rcgu.o)
 .comment       0x0000000000000067       0x35 ./gen/../tecsrust_uart_led_sample/target/armv7a-none-eabi/release/libitron.a(compiler_builtins-70f608aea3cde50d.compiler_builtins.5a681add74c93a61-cgu.210.rcgu.o)
 .comment       0x0000000000000067       0x35 ./gen/../tecsrust_uart_led_sample/target/armv7a-none-eabi/release/libitron.a(compiler_builtins-70f608aea3cde50d.compiler_builtins.5a681add74c93a61-cgu.223.rcgu.o)
 .comment       0x0000000000000067       0x35 ./gen/../tecsrust_uart_led_sample/target/armv7a-none-eabi/release/libitron.a(compiler_builtins-70f608aea3cde50d.compiler_builtins.5a681add74c93a61-cgu.253.rcgu.o)
 .comment       0x0000000000000067       0x35 ./gen/../tecsrust_uart_led_sample/target/armv7a-none-eabi/release/libitron.a(compiler_builtins-70f608aea3cde50d.compiler_builtins.5a681add74c93a61-cgu.261.rcgu.o)
 .comment       0x0000000000000067       0x35 ./gen/../tecsrust_uart_led_sample/target/armv7a-none-eabi/release/libitron.a(compiler_builtins-70f608aea3cde50d.compiler_builtins.5a681add74c93a61-cgu.263.rcgu.o)
 .comment       0x0000000000000067       0x35 ./gen/../tecsrust_uart_led_sample/target/armv7a-none-eabi/release/libitron.a(compiler_builtins-70f608aea3cde50d.compiler_builtins.5a681add74c93a61-cgu.270.rcgu.o)
 .comment       0x0000000000000067       0x35 ./gen/../tecsrust_uart_led_sample/target/armv7a-none-eabi/release/libitron.a(compiler_builtins-70f608aea3cde50d.compiler_builtins.5a681add74c93a61-cgu.283.rcgu.o)
 .comment       0x0000000000000067       0x35 ./gen/../tecsrust_uart_led_sample/target/armv7a-none-eabi/release/libitron.a(compiler_builtins-70f608aea3cde50d.compiler_builtins.5a681add74c93a61-cgu.287.rcgu.o)
 .comment       0x0000000000000067       0x35 ./gen/../tecsrust_uart_led_sample/target/armv7a-none-eabi/release/libitron.a(compiler_builtins-70f608aea3cde50d.compiler_builtins.5a681add74c93a61-cgu.300.rcgu.o)
 .comment       0x0000000000000067       0x35 ./gen/../tecsrust_uart_led_sample/target/armv7a-none-eabi/release/libitron.a(compiler_builtins-70f608aea3cde50d.compiler_builtins.5a681add74c93a61-cgu.310.rcgu.o)
 .comment       0x0000000000000067       0x35 ./gen/../tecsrust_uart_led_sample/target/armv7a-none-eabi/release/libitron.a(compiler_builtins-70f608aea3cde50d.compiler_builtins.5a681add74c93a61-cgu.355.rcgu.o)
 .comment       0x0000000000000067       0x35 ./gen/../tecsrust_uart_led_sample/target/armv7a-none-eabi/release/libitron.a(compiler_builtins-70f608aea3cde50d.compiler_builtins.5a681add74c93a61-cgu.361.rcgu.o)
 .comment       0x0000000000000067       0x35 ./gen/../tecsrust_uart_led_sample/target/armv7a-none-eabi/release/libitron.a(compiler_builtins-70f608aea3cde50d.compiler_builtins.5a681add74c93a61-cgu.365.rcgu.o)
 .comment       0x0000000000000067       0x35 ./gen/../tecsrust_uart_led_sample/target/armv7a-none-eabi/release/libitron.a(compiler_builtins-70f608aea3cde50d.compiler_builtins.5a681add74c93a61-cgu.375.rcgu.o)
 .comment       0x0000000000000067       0x35 ./gen/../tecsrust_uart_led_sample/target/armv7a-none-eabi/release/libitron.a(compiler_builtins-70f608aea3cde50d.compiler_builtins.5a681add74c93a61-cgu.393.rcgu.o)
 .comment       0x0000000000000067       0x35 ./gen/../tecsrust_uart_led_sample/target/armv7a-none-eabi/release/libitron.a(compiler_builtins-70f608aea3cde50d.compiler_builtins.5a681add74c93a61-cgu.395.rcgu.o)
 .comment       0x0000000000000067       0x35 ./gen/../tecsrust_uart_led_sample/target/armv7a-none-eabi/release/libitron.a(compiler_builtins-70f608aea3cde50d.compiler_builtins.5a681add74c93a61-cgu.410.rcgu.o)
 .comment       0x0000000000000067       0x35 ./gen/../tecsrust_uart_led_sample/target/armv7a-none-eabi/release/libitron.a(compiler_builtins-70f608aea3cde50d.compiler_builtins.5a681add74c93a61-cgu.411.rcgu.o)
 .comment       0x0000000000000067       0x35 ./gen/../tecsrust_uart_led_sample/target/armv7a-none-eabi/release/libitron.a(compiler_builtins-70f608aea3cde50d.compiler_builtins.5a681add74c93a61-cgu.000.rcgu.o)
 .comment       0x0000000000000067       0x35 ./gen/../tecsrust_uart_led_sample/target/armv7a-none-eabi/release/libitron.a(compiler_builtins-70f608aea3cde50d.compiler_builtins.5a681add74c93a61-cgu.004.rcgu.o)
 .comment       0x0000000000000067       0x35 ./gen/../tecsrust_uart_led_sample/target/armv7a-none-eabi/release/libitron.a(compiler_builtins-70f608aea3cde50d.compiler_builtins.5a681add74c93a61-cgu.009.rcgu.o)
 .comment       0x0000000000000067       0x35 ./gen/../tecsrust_uart_led_sample/target/armv7a-none-eabi/release/libitron.a(compiler_builtins-70f608aea3cde50d.compiler_builtins.5a681add74c93a61-cgu.019.rcgu.o)
 .comment       0x0000000000000067       0x35 ./gen/../tecsrust_uart_led_sample/target/armv7a-none-eabi/release/libitron.a(compiler_builtins-70f608aea3cde50d.compiler_builtins.5a681add74c93a61-cgu.347.rcgu.o)
 .comment       0x0000000000000067       0x34 ./gen/../tecsrust_uart_led_sample/target/armv7a-none-eabi/release/libitron.a(63f8a0b8a638da8c-aeabi_div0.o)
 .comment       0x0000000000000067       0x35 ./gen/../tecsrust_uart_led_sample/target/armv7a-none-eabi/release/libitron.a(compiler_builtins-70f608aea3cde50d.compiler_builtins.5a681add74c93a61-cgu.010.rcgu.o)
 .comment       0x0000000000000067       0x34 ./libkernel.a(target_kernel_impl.o)
 .comment       0x0000000000000067       0x34 ./libkernel.a(chip_kernel_impl.o)
 .comment       0x0000000000000067       0x34 ./libkernel.a(mpcore_kernel_impl.o)
 .comment       0x0000000000000067       0x34 ./libkernel.a(gic_kernel_impl.o)
 .comment       0x0000000000000067       0x34 ./libkernel.a(pl310.o)
 .comment       0x0000000000000067       0x34 ./libkernel.a(mpcore_timer.o)
 .comment       0x0000000000000067       0x34 ./libkernel.a(core_kernel_impl.o)
 .comment       0x0000000000000067       0x34 ./libkernel.a(arm.o)
 .comment       0x0000000000000067       0x34 ./libkernel.a(startup.o)
 .comment       0x0000000000000067       0x34 ./libkernel.a(task.o)
 .comment       0x0000000000000067       0x34 ./libkernel.a(taskhook.o)
 .comment       0x0000000000000067       0x34 ./libkernel.a(wait.o)
 .comment       0x0000000000000067       0x34 ./libkernel.a(time_event.o)
 .comment       0x0000000000000067       0x34 ./libkernel.a(task_sync.o)
 .comment       0x0000000000000067       0x34 ./libkernel.a(semaphore.o)
 .comment       0x0000000000000067       0x34 ./libkernel.a(dataqueue.o)
 .comment       0x0000000000000067       0x34 ./libkernel.a(mutex.o)
 .comment       0x0000000000000067       0x34 ./libkernel.a(spin_lock.o)
 .comment       0x0000000000000067       0x34 ./libkernel.a(sys_manage.o)
 .comment       0x0000000000000067       0x34 ./libkernel.a(interrupt.o)
 .comment       0x0000000000000067       0x34 ./libkernel.a(task_term.o)
 .comment       0x0000000000000067       0x34 /usr/lib/gcc/arm-none-eabi/10.3.1/../../../arm-none-eabi/lib/thumb/v7-a/nofp/libc.a(lib_a-memset.o)
                0x0000000001000000                _heap_size = 0x1000000
                0x000000000114e538                _heap_limit = (_heap + _heap_size)

.ARM.attributes
                0x0000000000000000       0x35
 .ARM.attributes
                0x0000000000000000       0x21 objs/start.o
 .ARM.attributes
                0x0000000000000021       0x33 objs/log_output.o
 .ARM.attributes
                0x0000000000000054       0x33 objs/vasyslog.o
 .ARM.attributes
                0x0000000000000087       0x33 objs/t_perror.o
 .ARM.attributes
                0x00000000000000ba       0x33 objs/strerror.o
 .ARM.attributes
                0x00000000000000ed       0x33 objs/tTask_rProcessor1Migratable_tecsgen.o
 .ARM.attributes
                0x0000000000000120       0x33 objs/tSemaphore_rProcessor1Migratable_tecsgen.o
 .ARM.attributes
                0x0000000000000153       0x33 objs/tInterruptRequest_rProcessor1Migratable_tecsgen.o
 .ARM.attributes
                0x0000000000000186       0x33 objs/tISR_rProcessor1Migratable_tecsgen.o
 .ARM.attributes
                0x00000000000001b9       0x33 objs/tTerminateRoutine_rProcessor1Migratable_tecsgen.o
 .ARM.attributes
                0x00000000000001ec       0x33 objs/tSerialPortMain_rProcessor1Migratable_tecsgen.o
 .ARM.attributes
                0x000000000000021f       0x33 objs/tSerialAdapter_rProcessor1Migratable_tecsgen.o
 .ARM.attributes
                0x0000000000000252       0x33 objs/tSysLog_rProcessor1Migratable_tecsgen.o
 .ARM.attributes
                0x0000000000000285       0x33 objs/tSysLogAdapter_rProcessor1Migratable_tecsgen.o
 .ARM.attributes
                0x00000000000002b8       0x33 objs/tLogTaskMain_rProcessor1Migratable_tecsgen.o
 .ARM.attributes
                0x00000000000002eb       0x33 objs/tPutLogZyboZ7_rProcessor1Migratable_tecsgen.o
 .ARM.attributes
                0x000000000000031e       0x33 objs/tXUartPs_rProcessor1Migratable_tecsgen.o
 .ARM.attributes
                0x0000000000000351       0x33 objs/tSIOPortZyboZ7Main_rProcessor1Migratable_tecsgen.o
 .ARM.attributes
                0x0000000000000384       0x33 objs/tTask.o
 .ARM.attributes
                0x00000000000003b7       0x39 objs/tInterruptRequest.o
 .ARM.attributes
                0x00000000000003f0       0x33 objs/tISR.o
 .ARM.attributes
                0x0000000000000423       0x33 objs/tTerminateRoutine.o
 .ARM.attributes
                0x0000000000000456       0x33 objs/tSerialPortMain.o
 .ARM.attributes
                0x0000000000000489       0x33 objs/tSerialAdapter.o
 .ARM.attributes
                0x00000000000004bc       0x33 objs/tSysLog.o
 .ARM.attributes
                0x00000000000004ef       0x33 objs/tSysLogAdapter.o
 .ARM.attributes
                0x0000000000000522       0x33 objs/tLogTaskMain.o
 .ARM.attributes
                0x0000000000000555       0x33 objs/tPutLogZyboZ7.o
 .ARM.attributes
                0x0000000000000588       0x33 objs/tXUartPs.o
 .ARM.attributes
                0x00000000000005bb       0x33 objs/init_tecs.o
 .ARM.attributes
                0x00000000000005ee       0x33 objs/kernel_cfg.o
 .ARM.attributes
                0x0000000000000621       0x34 ./gen/../tecsrust_uart_led_sample/target/armv7a-none-eabi/release/libitron.a(itron-45c5fd98eb955c4a.itron.9d87066d26af0b75-cgu.0.rcgu.o)
 .ARM.attributes
                0x0000000000000655       0x34 ./gen/../tecsrust_uart_led_sample/target/armv7a-none-eabi/release/libitron.a(itron-fbcb73bf0b635dd5.itron.68e737fdf62a80e5-cgu.0.rcgu.o)
 .ARM.attributes
                0x0000000000000689       0x32 ./gen/../tecsrust_uart_led_sample/target/armv7a-none-eabi/release/libitron.a(core-d049573bc16596f9.core.5587a85061e7188a-cgu.0.rcgu.o)
 .ARM.attributes
                0x00000000000006bb       0x34 ./gen/../tecsrust_uart_led_sample/target/armv7a-none-eabi/release/libitron.a(compiler_builtins-70f608aea3cde50d.compiler_builtins.5a681add74c93a61-cgu.162.rcgu.o)
 .ARM.attributes
                0x00000000000006ef       0x34 ./gen/../tecsrust_uart_led_sample/target/armv7a-none-eabi/release/libitron.a(compiler_builtins-70f608aea3cde50d.compiler_builtins.5a681add74c93a61-cgu.174.rcgu.o)
 .ARM.attributes
                0x0000000000000723       0x34 ./gen/../tecsrust_uart_led_sample/target/armv7a-none-eabi/release/libitron.a(compiler_builtins-70f608aea3cde50d.compiler_builtins.5a681add74c93a61-cgu.178.rcgu.o)
 .ARM.attributes
                0x0000000000000757       0x34 ./gen/../tecsrust_uart_led_sample/target/armv7a-none-eabi/release/libitron.a(compiler_builtins-70f608aea3cde50d.compiler_builtins.5a681add74c93a61-cgu.180.rcgu.o)
 .ARM.attributes
                0x000000000000078b       0x34 ./gen/../tecsrust_uart_led_sample/target/armv7a-none-eabi/release/libitron.a(compiler_builtins-70f608aea3cde50d.compiler_builtins.5a681add74c93a61-cgu.201.rcgu.o)
 .ARM.attributes
                0x00000000000007bf       0x34 ./gen/../tecsrust_uart_led_sample/target/armv7a-none-eabi/release/libitron.a(compiler_builtins-70f608aea3cde50d.compiler_builtins.5a681add74c93a61-cgu.206.rcgu.o)
 .ARM.attributes
                0x00000000000007f3       0x34 ./gen/../tecsrust_uart_led_sample/target/armv7a-none-eabi/release/libitron.a(compiler_builtins-70f608aea3cde50d.compiler_builtins.5a681add74c93a61-cgu.210.rcgu.o)
 .ARM.attributes
                0x0000000000000827       0x34 ./gen/../tecsrust_uart_led_sample/target/armv7a-none-eabi/release/libitron.a(compiler_builtins-70f608aea3cde50d.compiler_builtins.5a681add74c93a61-cgu.223.rcgu.o)
 .ARM.attributes
                0x000000000000085b       0x34 ./gen/../tecsrust_uart_led_sample/target/armv7a-none-eabi/release/libitron.a(compiler_builtins-70f608aea3cde50d.compiler_builtins.5a681add74c93a61-cgu.253.rcgu.o)
 .ARM.attributes
                0x000000000000088f       0x34 ./gen/../tecsrust_uart_led_sample/target/armv7a-none-eabi/release/libitron.a(compiler_builtins-70f608aea3cde50d.compiler_builtins.5a681add74c93a61-cgu.261.rcgu.o)
 .ARM.attributes
                0x00000000000008c3       0x34 ./gen/../tecsrust_uart_led_sample/target/armv7a-none-eabi/release/libitron.a(compiler_builtins-70f608aea3cde50d.compiler_builtins.5a681add74c93a61-cgu.263.rcgu.o)
 .ARM.attributes
                0x00000000000008f7       0x34 ./gen/../tecsrust_uart_led_sample/target/armv7a-none-eabi/release/libitron.a(compiler_builtins-70f608aea3cde50d.compiler_builtins.5a681add74c93a61-cgu.270.rcgu.o)
 .ARM.attributes
                0x000000000000092b       0x34 ./gen/../tecsrust_uart_led_sample/target/armv7a-none-eabi/release/libitron.a(compiler_builtins-70f608aea3cde50d.compiler_builtins.5a681add74c93a61-cgu.283.rcgu.o)
 .ARM.attributes
                0x000000000000095f       0x34 ./gen/../tecsrust_uart_led_sample/target/armv7a-none-eabi/release/libitron.a(compiler_builtins-70f608aea3cde50d.compiler_builtins.5a681add74c93a61-cgu.287.rcgu.o)
 .ARM.attributes
                0x0000000000000993       0x34 ./gen/../tecsrust_uart_led_sample/target/armv7a-none-eabi/release/libitron.a(compiler_builtins-70f608aea3cde50d.compiler_builtins.5a681add74c93a61-cgu.300.rcgu.o)
 .ARM.attributes
                0x00000000000009c7       0x34 ./gen/../tecsrust_uart_led_sample/target/armv7a-none-eabi/release/libitron.a(compiler_builtins-70f608aea3cde50d.compiler_builtins.5a681add74c93a61-cgu.310.rcgu.o)
 .ARM.attributes
                0x00000000000009fb       0x34 ./gen/../tecsrust_uart_led_sample/target/armv7a-none-eabi/release/libitron.a(compiler_builtins-70f608aea3cde50d.compiler_builtins.5a681add74c93a61-cgu.355.rcgu.o)
 .ARM.attributes
                0x0000000000000a2f       0x34 ./gen/../tecsrust_uart_led_sample/target/armv7a-none-eabi/release/libitron.a(compiler_builtins-70f608aea3cde50d.compiler_builtins.5a681add74c93a61-cgu.361.rcgu.o)
 .ARM.attributes
                0x0000000000000a63       0x34 ./gen/../tecsrust_uart_led_sample/target/armv7a-none-eabi/release/libitron.a(compiler_builtins-70f608aea3cde50d.compiler_builtins.5a681add74c93a61-cgu.365.rcgu.o)
 .ARM.attributes
                0x0000000000000a97       0x34 ./gen/../tecsrust_uart_led_sample/target/armv7a-none-eabi/release/libitron.a(compiler_builtins-70f608aea3cde50d.compiler_builtins.5a681add74c93a61-cgu.375.rcgu.o)
 .ARM.attributes
                0x0000000000000acb       0x34 ./gen/../tecsrust_uart_led_sample/target/armv7a-none-eabi/release/libitron.a(compiler_builtins-70f608aea3cde50d.compiler_builtins.5a681add74c93a61-cgu.393.rcgu.o)
 .ARM.attributes
                0x0000000000000aff       0x34 ./gen/../tecsrust_uart_led_sample/target/armv7a-none-eabi/release/libitron.a(compiler_builtins-70f608aea3cde50d.compiler_builtins.5a681add74c93a61-cgu.395.rcgu.o)
 .ARM.attributes
                0x0000000000000b33       0x32 ./gen/../tecsrust_uart_led_sample/target/armv7a-none-eabi/release/libitron.a(compiler_builtins-70f608aea3cde50d.compiler_builtins.5a681add74c93a61-cgu.410.rcgu.o)
 .ARM.attributes
                0x0000000000000b65       0x32 ./gen/../tecsrust_uart_led_sample/target/armv7a-none-eabi/release/libitron.a(compiler_builtins-70f608aea3cde50d.compiler_builtins.5a681add74c93a61-cgu.411.rcgu.o)
 .ARM.attributes
                0x0000000000000b97       0x1d ./gen/../tecsrust_uart_led_sample/target/armv7a-none-eabi/release/libitron.a(63f8a0b8a638da8c-udivmodsi4.o)
 .ARM.attributes
                0x0000000000000bb4       0x1d ./gen/../tecsrust_uart_led_sample/target/armv7a-none-eabi/release/libitron.a(63f8a0b8a638da8c-udivsi3.o)
 .ARM.attributes
                0x0000000000000bd1       0x34 ./gen/../tecsrust_uart_led_sample/target/armv7a-none-eabi/release/libitron.a(compiler_builtins-70f608aea3cde50d.compiler_builtins.5a681add74c93a61-cgu.000.rcgu.o)
 .ARM.attributes
                0x0000000000000c05       0x34 ./gen/../tecsrust_uart_led_sample/target/armv7a-none-eabi/release/libitron.a(compiler_builtins-70f608aea3cde50d.compiler_builtins.5a681add74c93a61-cgu.004.rcgu.o)
 .ARM.attributes
                0x0000000000000c39       0x34 ./gen/../tecsrust_uart_led_sample/target/armv7a-none-eabi/release/libitron.a(compiler_builtins-70f608aea3cde50d.compiler_builtins.5a681add74c93a61-cgu.009.rcgu.o)
 .ARM.attributes
                0x0000000000000c6d       0x34 ./gen/../tecsrust_uart_led_sample/target/armv7a-none-eabi/release/libitron.a(compiler_builtins-70f608aea3cde50d.compiler_builtins.5a681add74c93a61-cgu.019.rcgu.o)
 .ARM.attributes
                0x0000000000000ca1       0x34 ./gen/../tecsrust_uart_led_sample/target/armv7a-none-eabi/release/libitron.a(compiler_builtins-70f608aea3cde50d.compiler_builtins.5a681add74c93a61-cgu.347.rcgu.o)
 .ARM.attributes
                0x0000000000000cd5       0x2f ./gen/../tecsrust_uart_led_sample/target/armv7a-none-eabi/release/libitron.a(63f8a0b8a638da8c-aeabi_div0.o)
 .ARM.attributes
                0x0000000000000d04       0x34 ./gen/../tecsrust_uart_led_sample/target/armv7a-none-eabi/release/libitron.a(compiler_builtins-70f608aea3cde50d.compiler_builtins.5a681add74c93a61-cgu.010.rcgu.o)
 .ARM.attributes
                0x0000000000000d38       0x33 ./libkernel.a(target_kernel_impl.o)
 .ARM.attributes
                0x0000000000000d6b       0x33 ./libkernel.a(chip_kernel_impl.o)
 .ARM.attributes
                0x0000000000000d9e       0x33 ./libkernel.a(mpcore_kernel_impl.o)
 .ARM.attributes
                0x0000000000000dd1       0x33 ./libkernel.a(gic_kernel_impl.o)
 .ARM.attributes
                0x0000000000000e04       0x33 ./libkernel.a(pl310.o)
 .ARM.attributes
                0x0000000000000e37       0x33 ./libkernel.a(mpcore_timer.o)
 .ARM.attributes
                0x0000000000000e6a       0x33 ./libkernel.a(core_kernel_impl.o)
 .ARM.attributes
                0x0000000000000e9d       0x33 ./libkernel.a(arm.o)
 .ARM.attributes
                0x0000000000000ed0       0x33 ./libkernel.a(startup.o)
 .ARM.attributes
                0x0000000000000f03       0x33 ./libkernel.a(task.o)
 .ARM.attributes
                0x0000000000000f36       0x39 ./libkernel.a(taskhook.o)
 .ARM.attributes
                0x0000000000000f6f       0x33 ./libkernel.a(wait.o)
 .ARM.attributes
                0x0000000000000fa2       0x33 ./libkernel.a(time_event.o)
 .ARM.attributes
                0x0000000000000fd5       0x33 ./libkernel.a(task_sync.o)
 .ARM.attributes
                0x0000000000001008       0x33 ./libkernel.a(semaphore.o)
 .ARM.attributes
                0x000000000000103b       0x33 ./libkernel.a(dataqueue.o)
 .ARM.attributes
                0x000000000000106e       0x33 ./libkernel.a(mutex.o)
 .ARM.attributes
                0x00000000000010a1       0x33 ./libkernel.a(spin_lock.o)
 .ARM.attributes
                0x00000000000010d4       0x33 ./libkernel.a(sys_manage.o)
 .ARM.attributes
                0x0000000000001107       0x33 ./libkernel.a(interrupt.o)
 .ARM.attributes
                0x000000000000113a       0x21 ./libkernel.a(core_support.o)
 .ARM.attributes
                0x000000000000115b       0x33 ./libkernel.a(task_term.o)
 .ARM.attributes
                0x000000000000118e       0x21 ./libkernel.a(gic_support.o)
 .ARM.attributes
                0x00000000000011af       0x2f /usr/lib/gcc/arm-none-eabi/10.3.1/../../../arm-none-eabi/lib/thumb/v7-a/nofp/libc.a(lib_a-memset.o)

.note.GNU-stack
                0x0000000000000000        0x0
 .note.GNU-stack
                0x0000000000000000        0x0 ./gen/../tecsrust_uart_led_sample/target/armv7a-none-eabi/release/libitron.a(itron-45c5fd98eb955c4a.itron.9d87066d26af0b75-cgu.0.rcgu.o)
 .note.GNU-stack
                0x0000000000000000        0x0 ./gen/../tecsrust_uart_led_sample/target/armv7a-none-eabi/release/libitron.a(itron-fbcb73bf0b635dd5.itron.68e737fdf62a80e5-cgu.0.rcgu.o)
 .note.GNU-stack
                0x0000000000000000        0x0 ./gen/../tecsrust_uart_led_sample/target/armv7a-none-eabi/release/libitron.a(core-d049573bc16596f9.core.5587a85061e7188a-cgu.0.rcgu.o)
 .note.GNU-stack
                0x0000000000000000        0x0 ./gen/../tecsrust_uart_led_sample/target/armv7a-none-eabi/release/libitron.a(compiler_builtins-70f608aea3cde50d.compiler_builtins.5a681add74c93a61-cgu.162.rcgu.o)
 .note.GNU-stack
                0x0000000000000000        0x0 ./gen/../tecsrust_uart_led_sample/target/armv7a-none-eabi/release/libitron.a(compiler_builtins-70f608aea3cde50d.compiler_builtins.5a681add74c93a61-cgu.174.rcgu.o)
 .note.GNU-stack
                0x0000000000000000        0x0 ./gen/../tecsrust_uart_led_sample/target/armv7a-none-eabi/release/libitron.a(compiler_builtins-70f608aea3cde50d.compiler_builtins.5a681add74c93a61-cgu.178.rcgu.o)
 .note.GNU-stack
                0x0000000000000000        0x0 ./gen/../tecsrust_uart_led_sample/target/armv7a-none-eabi/release/libitron.a(compiler_builtins-70f608aea3cde50d.compiler_builtins.5a681add74c93a61-cgu.180.rcgu.o)
 .note.GNU-stack
                0x0000000000000000        0x0 ./gen/../tecsrust_uart_led_sample/target/armv7a-none-eabi/release/libitron.a(compiler_builtins-70f608aea3cde50d.compiler_builtins.5a681add74c93a61-cgu.201.rcgu.o)
 .note.GNU-stack
                0x0000000000000000        0x0 ./gen/../tecsrust_uart_led_sample/target/armv7a-none-eabi/release/libitron.a(compiler_builtins-70f608aea3cde50d.compiler_builtins.5a681add74c93a61-cgu.206.rcgu.o)
 .note.GNU-stack
                0x0000000000000000        0x0 ./gen/../tecsrust_uart_led_sample/target/armv7a-none-eabi/release/libitron.a(compiler_builtins-70f608aea3cde50d.compiler_builtins.5a681add74c93a61-cgu.210.rcgu.o)
 .note.GNU-stack
                0x0000000000000000        0x0 ./gen/../tecsrust_uart_led_sample/target/armv7a-none-eabi/release/libitron.a(compiler_builtins-70f608aea3cde50d.compiler_builtins.5a681add74c93a61-cgu.223.rcgu.o)
 .note.GNU-stack
                0x0000000000000000        0x0 ./gen/../tecsrust_uart_led_sample/target/armv7a-none-eabi/release/libitron.a(compiler_builtins-70f608aea3cde50d.compiler_builtins.5a681add74c93a61-cgu.253.rcgu.o)
 .note.GNU-stack
                0x0000000000000000        0x0 ./gen/../tecsrust_uart_led_sample/target/armv7a-none-eabi/release/libitron.a(compiler_builtins-70f608aea3cde50d.compiler_builtins.5a681add74c93a61-cgu.261.rcgu.o)
 .note.GNU-stack
                0x0000000000000000        0x0 ./gen/../tecsrust_uart_led_sample/target/armv7a-none-eabi/release/libitron.a(compiler_builtins-70f608aea3cde50d.compiler_builtins.5a681add74c93a61-cgu.263.rcgu.o)
 .note.GNU-stack
                0x0000000000000000        0x0 ./gen/../tecsrust_uart_led_sample/target/armv7a-none-eabi/release/libitron.a(compiler_builtins-70f608aea3cde50d.compiler_builtins.5a681add74c93a61-cgu.270.rcgu.o)
 .note.GNU-stack
                0x0000000000000000        0x0 ./gen/../tecsrust_uart_led_sample/target/armv7a-none-eabi/release/libitron.a(compiler_builtins-70f608aea3cde50d.compiler_builtins.5a681add74c93a61-cgu.283.rcgu.o)
 .note.GNU-stack
                0x0000000000000000        0x0 ./gen/../tecsrust_uart_led_sample/target/armv7a-none-eabi/release/libitron.a(compiler_builtins-70f608aea3cde50d.compiler_builtins.5a681add74c93a61-cgu.287.rcgu.o)
 .note.GNU-stack
                0x0000000000000000        0x0 ./gen/../tecsrust_uart_led_sample/target/armv7a-none-eabi/release/libitron.a(compiler_builtins-70f608aea3cde50d.compiler_builtins.5a681add74c93a61-cgu.300.rcgu.o)
 .note.GNU-stack
                0x0000000000000000        0x0 ./gen/../tecsrust_uart_led_sample/target/armv7a-none-eabi/release/libitron.a(compiler_builtins-70f608aea3cde50d.compiler_builtins.5a681add74c93a61-cgu.310.rcgu.o)
 .note.GNU-stack
                0x0000000000000000        0x0 ./gen/../tecsrust_uart_led_sample/target/armv7a-none-eabi/release/libitron.a(compiler_builtins-70f608aea3cde50d.compiler_builtins.5a681add74c93a61-cgu.355.rcgu.o)
 .note.GNU-stack
                0x0000000000000000        0x0 ./gen/../tecsrust_uart_led_sample/target/armv7a-none-eabi/release/libitron.a(compiler_builtins-70f608aea3cde50d.compiler_builtins.5a681add74c93a61-cgu.361.rcgu.o)
 .note.GNU-stack
                0x0000000000000000        0x0 ./gen/../tecsrust_uart_led_sample/target/armv7a-none-eabi/release/libitron.a(compiler_builtins-70f608aea3cde50d.compiler_builtins.5a681add74c93a61-cgu.365.rcgu.o)
 .note.GNU-stack
                0x0000000000000000        0x0 ./gen/../tecsrust_uart_led_sample/target/armv7a-none-eabi/release/libitron.a(compiler_builtins-70f608aea3cde50d.compiler_builtins.5a681add74c93a61-cgu.375.rcgu.o)
 .note.GNU-stack
                0x0000000000000000        0x0 ./gen/../tecsrust_uart_led_sample/target/armv7a-none-eabi/release/libitron.a(compiler_builtins-70f608aea3cde50d.compiler_builtins.5a681add74c93a61-cgu.393.rcgu.o)
 .note.GNU-stack
                0x0000000000000000        0x0 ./gen/../tecsrust_uart_led_sample/target/armv7a-none-eabi/release/libitron.a(compiler_builtins-70f608aea3cde50d.compiler_builtins.5a681add74c93a61-cgu.395.rcgu.o)
 .note.GNU-stack
                0x0000000000000000        0x0 ./gen/../tecsrust_uart_led_sample/target/armv7a-none-eabi/release/libitron.a(compiler_builtins-70f608aea3cde50d.compiler_builtins.5a681add74c93a61-cgu.410.rcgu.o)
 .note.GNU-stack
                0x0000000000000000        0x0 ./gen/../tecsrust_uart_led_sample/target/armv7a-none-eabi/release/libitron.a(compiler_builtins-70f608aea3cde50d.compiler_builtins.5a681add74c93a61-cgu.411.rcgu.o)
 .note.GNU-stack
                0x0000000000000000        0x0 ./gen/../tecsrust_uart_led_sample/target/armv7a-none-eabi/release/libitron.a(compiler_builtins-70f608aea3cde50d.compiler_builtins.5a681add74c93a61-cgu.000.rcgu.o)
 .note.GNU-stack
                0x0000000000000000        0x0 ./gen/../tecsrust_uart_led_sample/target/armv7a-none-eabi/release/libitron.a(compiler_builtins-70f608aea3cde50d.compiler_builtins.5a681add74c93a61-cgu.004.rcgu.o)
 .note.GNU-stack
                0x0000000000000000        0x0 ./gen/../tecsrust_uart_led_sample/target/armv7a-none-eabi/release/libitron.a(compiler_builtins-70f608aea3cde50d.compiler_builtins.5a681add74c93a61-cgu.009.rcgu.o)
 .note.GNU-stack
                0x0000000000000000        0x0 ./gen/../tecsrust_uart_led_sample/target/armv7a-none-eabi/release/libitron.a(compiler_builtins-70f608aea3cde50d.compiler_builtins.5a681add74c93a61-cgu.019.rcgu.o)
 .note.GNU-stack
                0x0000000000000000        0x0 ./gen/../tecsrust_uart_led_sample/target/armv7a-none-eabi/release/libitron.a(compiler_builtins-70f608aea3cde50d.compiler_builtins.5a681add74c93a61-cgu.347.rcgu.o)
 .note.GNU-stack
                0x0000000000000000        0x0 ./gen/../tecsrust_uart_led_sample/target/armv7a-none-eabi/release/libitron.a(compiler_builtins-70f608aea3cde50d.compiler_builtins.5a681add74c93a61-cgu.010.rcgu.o)

.debug
 *(.debug)

.line
 *(.line)

.debug_srcinfo
 *(.debug_srcinfo)

.debug_sfnames
 *(.debug_sfnames)

.debug_aranges  0x0000000000000000     0x1b70
 *(.debug_aranges)
 .debug_aranges
                0x0000000000000000       0x20 objs/start.o
 .debug_aranges
                0x0000000000000020       0x20 objs/log_output.o
 .debug_aranges
                0x0000000000000040       0x20 objs/vasyslog.o
 .debug_aranges
                0x0000000000000060       0x20 objs/t_perror.o
 .debug_aranges
                0x0000000000000080       0x20 objs/strerror.o
 .debug_aranges
                0x00000000000000a0       0x20 objs/tTask_rProcessor1Migratable_tecsgen.o
 .debug_aranges
                0x00000000000000c0       0x20 objs/tSemaphore_rProcessor1Migratable_tecsgen.o
 .debug_aranges
                0x00000000000000e0       0x20 objs/tInterruptRequest_rProcessor1Migratable_tecsgen.o
 .debug_aranges
                0x0000000000000100       0x20 objs/tISR_rProcessor1Migratable_tecsgen.o
 .debug_aranges
                0x0000000000000120       0x20 objs/tTerminateRoutine_rProcessor1Migratable_tecsgen.o
 .debug_aranges
                0x0000000000000140       0x20 objs/tSerialPortMain_rProcessor1Migratable_tecsgen.o
 .debug_aranges
                0x0000000000000160       0x20 objs/tSerialAdapter_rProcessor1Migratable_tecsgen.o
 .debug_aranges
                0x0000000000000180       0x20 objs/tSysLog_rProcessor1Migratable_tecsgen.o
 .debug_aranges
                0x00000000000001a0       0x20 objs/tSysLogAdapter_rProcessor1Migratable_tecsgen.o
 .debug_aranges
                0x00000000000001c0       0x20 objs/tLogTaskMain_rProcessor1Migratable_tecsgen.o
 .debug_aranges
                0x00000000000001e0       0x20 objs/tPutLogZyboZ7_rProcessor1Migratable_tecsgen.o
 .debug_aranges
                0x0000000000000200       0x20 objs/tXUartPs_rProcessor1Migratable_tecsgen.o
 .debug_aranges
                0x0000000000000220       0x20 objs/tSIOPortZyboZ7Main_rProcessor1Migratable_tecsgen.o
 .debug_aranges
                0x0000000000000240       0x20 objs/tTask.o
 .debug_aranges
                0x0000000000000260       0x20 objs/tISR.o
 .debug_aranges
                0x0000000000000280       0x20 objs/tTerminateRoutine.o
 .debug_aranges
                0x00000000000002a0       0x20 objs/tSerialPortMain.o
 .debug_aranges
                0x00000000000002c0       0x20 objs/tSerialAdapter.o
 .debug_aranges
                0x00000000000002e0       0x20 objs/tSysLog.o
 .debug_aranges
                0x0000000000000300       0x20 objs/tSysLogAdapter.o
 .debug_aranges
                0x0000000000000320       0x20 objs/tLogTaskMain.o
 .debug_aranges
                0x0000000000000340       0x20 objs/tPutLogZyboZ7.o
 .debug_aranges
                0x0000000000000360       0x20 objs/tXUartPs.o
 .debug_aranges
                0x0000000000000380       0x20 objs/init_tecs.o
 .debug_aranges
                0x00000000000003a0       0x20 objs/kernel_cfg.o
 .debug_aranges
                0x00000000000003c0     0x1048 ./gen/../tecsrust_uart_led_sample/target/armv7a-none-eabi/release/libitron.a(core-d049573bc16596f9.core.5587a85061e7188a-cgu.0.rcgu.o)
 .debug_aranges
                0x0000000000001408       0x20 ./gen/../tecsrust_uart_led_sample/target/armv7a-none-eabi/release/libitron.a(compiler_builtins-70f608aea3cde50d.compiler_builtins.5a681add74c93a61-cgu.162.rcgu.o)
 .debug_aranges
                0x0000000000001428       0x20 ./gen/../tecsrust_uart_led_sample/target/armv7a-none-eabi/release/libitron.a(compiler_builtins-70f608aea3cde50d.compiler_builtins.5a681add74c93a61-cgu.174.rcgu.o)
 .debug_aranges
                0x0000000000001448       0x20 ./gen/../tecsrust_uart_led_sample/target/armv7a-none-eabi/release/libitron.a(compiler_builtins-70f608aea3cde50d.compiler_builtins.5a681add74c93a61-cgu.178.rcgu.o)
 .debug_aranges
                0x0000000000001468       0x20 ./gen/../tecsrust_uart_led_sample/target/armv7a-none-eabi/release/libitron.a(compiler_builtins-70f608aea3cde50d.compiler_builtins.5a681add74c93a61-cgu.180.rcgu.o)
 .debug_aranges
                0x0000000000001488       0x20 ./gen/../tecsrust_uart_led_sample/target/armv7a-none-eabi/release/libitron.a(compiler_builtins-70f608aea3cde50d.compiler_builtins.5a681add74c93a61-cgu.201.rcgu.o)
 .debug_aranges
                0x00000000000014a8       0x20 ./gen/../tecsrust_uart_led_sample/target/armv7a-none-eabi/release/libitron.a(compiler_builtins-70f608aea3cde50d.compiler_builtins.5a681add74c93a61-cgu.206.rcgu.o)
 .debug_aranges
                0x00000000000014c8       0x20 ./gen/../tecsrust_uart_led_sample/target/armv7a-none-eabi/release/libitron.a(compiler_builtins-70f608aea3cde50d.compiler_builtins.5a681add74c93a61-cgu.210.rcgu.o)
 .debug_aranges
                0x00000000000014e8       0x20 ./gen/../tecsrust_uart_led_sample/target/armv7a-none-eabi/release/libitron.a(compiler_builtins-70f608aea3cde50d.compiler_builtins.5a681add74c93a61-cgu.223.rcgu.o)
 .debug_aranges
                0x0000000000001508       0x20 ./gen/../tecsrust_uart_led_sample/target/armv7a-none-eabi/release/libitron.a(compiler_builtins-70f608aea3cde50d.compiler_builtins.5a681add74c93a61-cgu.253.rcgu.o)
 .debug_aranges
                0x0000000000001528       0x20 ./gen/../tecsrust_uart_led_sample/target/armv7a-none-eabi/release/libitron.a(compiler_builtins-70f608aea3cde50d.compiler_builtins.5a681add74c93a61-cgu.261.rcgu.o)
 .debug_aranges
                0x0000000000001548       0x20 ./gen/../tecsrust_uart_led_sample/target/armv7a-none-eabi/release/libitron.a(compiler_builtins-70f608aea3cde50d.compiler_builtins.5a681add74c93a61-cgu.263.rcgu.o)
 .debug_aranges
                0x0000000000001568       0x20 ./gen/../tecsrust_uart_led_sample/target/armv7a-none-eabi/release/libitron.a(compiler_builtins-70f608aea3cde50d.compiler_builtins.5a681add74c93a61-cgu.270.rcgu.o)
 .debug_aranges
                0x0000000000001588       0x20 ./gen/../tecsrust_uart_led_sample/target/armv7a-none-eabi/release/libitron.a(compiler_builtins-70f608aea3cde50d.compiler_builtins.5a681add74c93a61-cgu.283.rcgu.o)
 .debug_aranges
                0x00000000000015a8       0x20 ./gen/../tecsrust_uart_led_sample/target/armv7a-none-eabi/release/libitron.a(compiler_builtins-70f608aea3cde50d.compiler_builtins.5a681add74c93a61-cgu.287.rcgu.o)
 .debug_aranges
                0x00000000000015c8       0x20 ./gen/../tecsrust_uart_led_sample/target/armv7a-none-eabi/release/libitron.a(compiler_builtins-70f608aea3cde50d.compiler_builtins.5a681add74c93a61-cgu.300.rcgu.o)
 .debug_aranges
                0x00000000000015e8       0x20 ./gen/../tecsrust_uart_led_sample/target/armv7a-none-eabi/release/libitron.a(compiler_builtins-70f608aea3cde50d.compiler_builtins.5a681add74c93a61-cgu.310.rcgu.o)
 .debug_aranges
                0x0000000000001608       0x20 ./gen/../tecsrust_uart_led_sample/target/armv7a-none-eabi/release/libitron.a(compiler_builtins-70f608aea3cde50d.compiler_builtins.5a681add74c93a61-cgu.355.rcgu.o)
 .debug_aranges
                0x0000000000001628       0x20 ./gen/../tecsrust_uart_led_sample/target/armv7a-none-eabi/release/libitron.a(compiler_builtins-70f608aea3cde50d.compiler_builtins.5a681add74c93a61-cgu.361.rcgu.o)
 .debug_aranges
                0x0000000000001648       0x20 ./gen/../tecsrust_uart_led_sample/target/armv7a-none-eabi/release/libitron.a(compiler_builtins-70f608aea3cde50d.compiler_builtins.5a681add74c93a61-cgu.365.rcgu.o)
 .debug_aranges
                0x0000000000001668       0x20 ./gen/../tecsrust_uart_led_sample/target/armv7a-none-eabi/release/libitron.a(compiler_builtins-70f608aea3cde50d.compiler_builtins.5a681add74c93a61-cgu.375.rcgu.o)
 .debug_aranges
                0x0000000000001688       0x20 ./gen/../tecsrust_uart_led_sample/target/armv7a-none-eabi/release/libitron.a(compiler_builtins-70f608aea3cde50d.compiler_builtins.5a681add74c93a61-cgu.393.rcgu.o)
 .debug_aranges
                0x00000000000016a8       0x20 ./gen/../tecsrust_uart_led_sample/target/armv7a-none-eabi/release/libitron.a(compiler_builtins-70f608aea3cde50d.compiler_builtins.5a681add74c93a61-cgu.395.rcgu.o)
 .debug_aranges
                0x00000000000016c8       0x20 ./gen/../tecsrust_uart_led_sample/target/armv7a-none-eabi/release/libitron.a(63f8a0b8a638da8c-udivmodsi4.o)
 .debug_aranges
                0x00000000000016e8       0x20 ./gen/../tecsrust_uart_led_sample/target/armv7a-none-eabi/release/libitron.a(63f8a0b8a638da8c-udivsi3.o)
 .debug_aranges
                0x0000000000001708       0x30 ./gen/../tecsrust_uart_led_sample/target/armv7a-none-eabi/release/libitron.a(compiler_builtins-70f608aea3cde50d.compiler_builtins.5a681add74c93a61-cgu.000.rcgu.o)
 .debug_aranges
                0x0000000000001738       0x30 ./gen/../tecsrust_uart_led_sample/target/armv7a-none-eabi/release/libitron.a(compiler_builtins-70f608aea3cde50d.compiler_builtins.5a681add74c93a61-cgu.004.rcgu.o)
 .debug_aranges
                0x0000000000001768       0x40 ./gen/../tecsrust_uart_led_sample/target/armv7a-none-eabi/release/libitron.a(compiler_builtins-70f608aea3cde50d.compiler_builtins.5a681add74c93a61-cgu.009.rcgu.o)
 .debug_aranges
                0x00000000000017a8       0x60 ./gen/../tecsrust_uart_led_sample/target/armv7a-none-eabi/release/libitron.a(compiler_builtins-70f608aea3cde50d.compiler_builtins.5a681add74c93a61-cgu.019.rcgu.o)
 .debug_aranges
                0x0000000000001808       0x20 ./gen/../tecsrust_uart_led_sample/target/armv7a-none-eabi/release/libitron.a(compiler_builtins-70f608aea3cde50d.compiler_builtins.5a681add74c93a61-cgu.347.rcgu.o)
 .debug_aranges
                0x0000000000001828       0x28 ./gen/../tecsrust_uart_led_sample/target/armv7a-none-eabi/release/libitron.a(63f8a0b8a638da8c-aeabi_div0.o)
 .debug_aranges
                0x0000000000001850       0x28 ./gen/../tecsrust_uart_led_sample/target/armv7a-none-eabi/release/libitron.a(compiler_builtins-70f608aea3cde50d.compiler_builtins.5a681add74c93a61-cgu.010.rcgu.o)
 .debug_aranges
                0x0000000000001878       0x20 ./libkernel.a(target_kernel_impl.o)
 .debug_aranges
                0x0000000000001898       0x20 ./libkernel.a(chip_kernel_impl.o)
 .debug_aranges
                0x00000000000018b8       0x20 ./libkernel.a(mpcore_kernel_impl.o)
 .debug_aranges
                0x00000000000018d8       0x20 ./libkernel.a(gic_kernel_impl.o)
 .debug_aranges
                0x00000000000018f8       0x20 ./libkernel.a(pl310.o)
 .debug_aranges
                0x0000000000001918       0x20 ./libkernel.a(mpcore_timer.o)
 .debug_aranges
                0x0000000000001938       0x20 ./libkernel.a(core_kernel_impl.o)
 .debug_aranges
                0x0000000000001958       0x20 ./libkernel.a(arm.o)
 .debug_aranges
                0x0000000000001978       0x20 ./libkernel.a(startup.o)
 .debug_aranges
                0x0000000000001998       0x20 ./libkernel.a(task.o)
 .debug_aranges
                0x00000000000019b8       0x18 ./libkernel.a(taskhook.o)
 .debug_aranges
                0x00000000000019d0       0x20 ./libkernel.a(wait.o)
 .debug_aranges
                0x00000000000019f0       0x20 ./libkernel.a(time_event.o)
 .debug_aranges
                0x0000000000001a10       0x20 ./libkernel.a(task_sync.o)
 .debug_aranges
                0x0000000000001a30       0x20 ./libkernel.a(semaphore.o)
 .debug_aranges
                0x0000000000001a50       0x20 ./libkernel.a(dataqueue.o)
 .debug_aranges
                0x0000000000001a70       0x20 ./libkernel.a(mutex.o)
 .debug_aranges
                0x0000000000001a90       0x20 ./libkernel.a(spin_lock.o)
 .debug_aranges
                0x0000000000001ab0       0x20 ./libkernel.a(sys_manage.o)
 .debug_aranges
                0x0000000000001ad0       0x20 ./libkernel.a(interrupt.o)
 .debug_aranges
                0x0000000000001af0       0x20 ./libkernel.a(core_support.o)
 .debug_aranges
                0x0000000000001b10       0x20 ./libkernel.a(task_term.o)
 .debug_aranges
                0x0000000000001b30       0x20 ./libkernel.a(gic_support.o)
 .debug_aranges
                0x0000000000001b50       0x20 /usr/lib/gcc/arm-none-eabi/10.3.1/../../../arm-none-eabi/lib/thumb/v7-a/nofp/libc.a(lib_a-memset.o)

.debug_pubnames
 *(.debug_pubnames)

.debug_info     0x0000000000000000    0x52078
 *(.debug_info)
 .debug_info    0x0000000000000000       0x26 objs/start.o
 .debug_info    0x0000000000000026      0x52c objs/log_output.o
 .debug_info    0x0000000000000552      0x1ee objs/vasyslog.o
 .debug_info    0x0000000000000740      0x1ff objs/t_perror.o
 .debug_info    0x000000000000093f       0xe5 objs/strerror.o
 .debug_info    0x0000000000000a24      0x140 objs/tTask_rProcessor1Migratable_tecsgen.o
 .debug_info    0x0000000000000b64      0x139 objs/tSemaphore_rProcessor1Migratable_tecsgen.o
 .debug_info    0x0000000000000c9d      0x13b objs/tInterruptRequest_rProcessor1Migratable_tecsgen.o
 .debug_info    0x0000000000000dd8      0x140 objs/tISR_rProcessor1Migratable_tecsgen.o
 .debug_info    0x0000000000000f18      0x193 objs/tTerminateRoutine_rProcessor1Migratable_tecsgen.o
 .debug_info    0x00000000000010ab      0x73c objs/tSerialPortMain_rProcessor1Migratable_tecsgen.o
 .debug_info    0x00000000000017e7      0x2b6 objs/tSerialAdapter_rProcessor1Migratable_tecsgen.o
 .debug_info    0x0000000000001a9d      0x265 objs/tSysLog_rProcessor1Migratable_tecsgen.o
 .debug_info    0x0000000000001d02       0x9a objs/tSysLogAdapter_rProcessor1Migratable_tecsgen.o
 .debug_info    0x0000000000001d9c      0x212 objs/tLogTaskMain_rProcessor1Migratable_tecsgen.o
 .debug_info    0x0000000000001fae       0x9a objs/tPutLogZyboZ7_rProcessor1Migratable_tecsgen.o
 .debug_info    0x0000000000002048      0x30e objs/tXUartPs_rProcessor1Migratable_tecsgen.o
 .debug_info    0x0000000000002356       0xe3 objs/tSIOPortZyboZ7Main_rProcessor1Migratable_tecsgen.o
 .debug_info    0x0000000000002439      0x142 objs/tTask.o
 .debug_info    0x000000000000257b      0x216 objs/tISR.o
 .debug_info    0x0000000000002791      0x168 objs/tTerminateRoutine.o
 .debug_info    0x00000000000028f9     0x17ed objs/tSerialPortMain.o
 .debug_info    0x00000000000040e6      0x485 objs/tSerialAdapter.o
 .debug_info    0x000000000000456b      0xbb6 objs/tSysLog.o
 .debug_info    0x0000000000005121      0x33b objs/tSysLogAdapter.o
 .debug_info    0x000000000000545c      0x7d8 objs/tLogTaskMain.o
 .debug_info    0x0000000000005c34      0x40f objs/tPutLogZyboZ7.o
 .debug_info    0x0000000000006043      0xe7b objs/tXUartPs.o
 .debug_info    0x0000000000006ebe      0x1a9 objs/init_tecs.o
 .debug_info    0x0000000000007067     0x20b1 objs/kernel_cfg.o
 .debug_info    0x0000000000009118    0x1f3e5 ./gen/../tecsrust_uart_led_sample/target/armv7a-none-eabi/release/libitron.a(core-d049573bc16596f9.core.5587a85061e7188a-cgu.0.rcgu.o)
 .debug_info    0x00000000000284fd      0x26d ./gen/../tecsrust_uart_led_sample/target/armv7a-none-eabi/release/libitron.a(compiler_builtins-70f608aea3cde50d.compiler_builtins.5a681add74c93a61-cgu.162.rcgu.o)
 .debug_info    0x000000000002876a       0xb3 ./gen/../tecsrust_uart_led_sample/target/armv7a-none-eabi/release/libitron.a(compiler_builtins-70f608aea3cde50d.compiler_builtins.5a681add74c93a61-cgu.174.rcgu.o)
 .debug_info    0x000000000002881d       0x51 ./gen/../tecsrust_uart_led_sample/target/armv7a-none-eabi/release/libitron.a(compiler_builtins-70f608aea3cde50d.compiler_builtins.5a681add74c93a61-cgu.178.rcgu.o)
 .debug_info    0x000000000002886e      0x173 ./gen/../tecsrust_uart_led_sample/target/armv7a-none-eabi/release/libitron.a(compiler_builtins-70f608aea3cde50d.compiler_builtins.5a681add74c93a61-cgu.180.rcgu.o)
 .debug_info    0x00000000000289e1      0x1a4 ./gen/../tecsrust_uart_led_sample/target/armv7a-none-eabi/release/libitron.a(compiler_builtins-70f608aea3cde50d.compiler_builtins.5a681add74c93a61-cgu.201.rcgu.o)
 .debug_info    0x0000000000028b85      0x196 ./gen/../tecsrust_uart_led_sample/target/armv7a-none-eabi/release/libitron.a(compiler_builtins-70f608aea3cde50d.compiler_builtins.5a681add74c93a61-cgu.206.rcgu.o)
 .debug_info    0x0000000000028d1b      0x340 ./gen/../tecsrust_uart_led_sample/target/armv7a-none-eabi/release/libitron.a(compiler_builtins-70f608aea3cde50d.compiler_builtins.5a681add74c93a61-cgu.210.rcgu.o)
 .debug_info    0x000000000002905b       0x95 ./gen/../tecsrust_uart_led_sample/target/armv7a-none-eabi/release/libitron.a(compiler_builtins-70f608aea3cde50d.compiler_builtins.5a681add74c93a61-cgu.223.rcgu.o)
 .debug_info    0x00000000000290f0       0xd1 ./gen/../tecsrust_uart_led_sample/target/armv7a-none-eabi/release/libitron.a(compiler_builtins-70f608aea3cde50d.compiler_builtins.5a681add74c93a61-cgu.253.rcgu.o)
 .debug_info    0x00000000000291c1      0x1a2 ./gen/../tecsrust_uart_led_sample/target/armv7a-none-eabi/release/libitron.a(compiler_builtins-70f608aea3cde50d.compiler_builtins.5a681add74c93a61-cgu.261.rcgu.o)
 .debug_info    0x0000000000029363       0x51 ./gen/../tecsrust_uart_led_sample/target/armv7a-none-eabi/release/libitron.a(compiler_builtins-70f608aea3cde50d.compiler_builtins.5a681add74c93a61-cgu.263.rcgu.o)
 .debug_info    0x00000000000293b4      0x244 ./gen/../tecsrust_uart_led_sample/target/armv7a-none-eabi/release/libitron.a(compiler_builtins-70f608aea3cde50d.compiler_builtins.5a681add74c93a61-cgu.270.rcgu.o)
 .debug_info    0x00000000000295f8      0x157 ./gen/../tecsrust_uart_led_sample/target/armv7a-none-eabi/release/libitron.a(compiler_builtins-70f608aea3cde50d.compiler_builtins.5a681add74c93a61-cgu.283.rcgu.o)
 .debug_info    0x000000000002974f      0x186 ./gen/../tecsrust_uart_led_sample/target/armv7a-none-eabi/release/libitron.a(compiler_builtins-70f608aea3cde50d.compiler_builtins.5a681add74c93a61-cgu.287.rcgu.o)
 .debug_info    0x00000000000298d5      0x316 ./gen/../tecsrust_uart_led_sample/target/armv7a-none-eabi/release/libitron.a(compiler_builtins-70f608aea3cde50d.compiler_builtins.5a681add74c93a61-cgu.300.rcgu.o)
 .debug_info    0x0000000000029beb       0xb1 ./gen/../tecsrust_uart_led_sample/target/armv7a-none-eabi/release/libitron.a(compiler_builtins-70f608aea3cde50d.compiler_builtins.5a681add74c93a61-cgu.310.rcgu.o)
 .debug_info    0x0000000000029c9c       0x51 ./gen/../tecsrust_uart_led_sample/target/armv7a-none-eabi/release/libitron.a(compiler_builtins-70f608aea3cde50d.compiler_builtins.5a681add74c93a61-cgu.355.rcgu.o)
 .debug_info    0x0000000000029ced      0x1dc ./gen/../tecsrust_uart_led_sample/target/armv7a-none-eabi/release/libitron.a(compiler_builtins-70f608aea3cde50d.compiler_builtins.5a681add74c93a61-cgu.361.rcgu.o)
 .debug_info    0x0000000000029ec9      0x242 ./gen/../tecsrust_uart_led_sample/target/armv7a-none-eabi/release/libitron.a(compiler_builtins-70f608aea3cde50d.compiler_builtins.5a681add74c93a61-cgu.365.rcgu.o)
 .debug_info    0x000000000002a10b      0x1a4 ./gen/../tecsrust_uart_led_sample/target/armv7a-none-eabi/release/libitron.a(compiler_builtins-70f608aea3cde50d.compiler_builtins.5a681add74c93a61-cgu.375.rcgu.o)
 .debug_info    0x000000000002a2af       0x51 ./gen/../tecsrust_uart_led_sample/target/armv7a-none-eabi/release/libitron.a(compiler_builtins-70f608aea3cde50d.compiler_builtins.5a681add74c93a61-cgu.393.rcgu.o)
 .debug_info    0x000000000002a300      0x287 ./gen/../tecsrust_uart_led_sample/target/armv7a-none-eabi/release/libitron.a(compiler_builtins-70f608aea3cde50d.compiler_builtins.5a681add74c93a61-cgu.395.rcgu.o)
 .debug_info    0x000000000002a587       0x26 ./gen/../tecsrust_uart_led_sample/target/armv7a-none-eabi/release/libitron.a(63f8a0b8a638da8c-udivmodsi4.o)
 .debug_info    0x000000000002a5ad       0x26 ./gen/../tecsrust_uart_led_sample/target/armv7a-none-eabi/release/libitron.a(63f8a0b8a638da8c-udivsi3.o)
 .debug_info    0x000000000002a5d3     0x1700 ./gen/../tecsrust_uart_led_sample/target/armv7a-none-eabi/release/libitron.a(compiler_builtins-70f608aea3cde50d.compiler_builtins.5a681add74c93a61-cgu.000.rcgu.o)
 .debug_info    0x000000000002bcd3      0xf8f ./gen/../tecsrust_uart_led_sample/target/armv7a-none-eabi/release/libitron.a(compiler_builtins-70f608aea3cde50d.compiler_builtins.5a681add74c93a61-cgu.004.rcgu.o)
 .debug_info    0x000000000002cc62      0xbd0 ./gen/../tecsrust_uart_led_sample/target/armv7a-none-eabi/release/libitron.a(compiler_builtins-70f608aea3cde50d.compiler_builtins.5a681add74c93a61-cgu.009.rcgu.o)
 .debug_info    0x000000000002d832      0x364 ./gen/../tecsrust_uart_led_sample/target/armv7a-none-eabi/release/libitron.a(compiler_builtins-70f608aea3cde50d.compiler_builtins.5a681add74c93a61-cgu.019.rcgu.o)
 .debug_info    0x000000000002db96       0xa1 ./gen/../tecsrust_uart_led_sample/target/armv7a-none-eabi/release/libitron.a(compiler_builtins-70f608aea3cde50d.compiler_builtins.5a681add74c93a61-cgu.347.rcgu.o)
 .debug_info    0x000000000002dc37       0xe2 ./gen/../tecsrust_uart_led_sample/target/armv7a-none-eabi/release/libitron.a(63f8a0b8a638da8c-aeabi_div0.o)
 .debug_info    0x000000000002dd19      0x495 ./gen/../tecsrust_uart_led_sample/target/armv7a-none-eabi/release/libitron.a(compiler_builtins-70f608aea3cde50d.compiler_builtins.5a681add74c93a61-cgu.010.rcgu.o)
 .debug_info    0x000000000002e1ae      0x60a ./libkernel.a(target_kernel_impl.o)
 .debug_info    0x000000000002e7b8      0x445 ./libkernel.a(chip_kernel_impl.o)
 .debug_info    0x000000000002ebfd      0x77c ./libkernel.a(mpcore_kernel_impl.o)
 .debug_info    0x000000000002f379     0x115f ./libkernel.a(gic_kernel_impl.o)
 .debug_info    0x00000000000304d8      0xa1a ./libkernel.a(pl310.o)
 .debug_info    0x0000000000030ef2      0x463 ./libkernel.a(mpcore_timer.o)
 .debug_info    0x0000000000031355     0x1684 ./libkernel.a(core_kernel_impl.o)
 .debug_info    0x00000000000329d9      0x4e2 ./libkernel.a(arm.o)
 .debug_info    0x0000000000032ebb     0x11e9 ./libkernel.a(startup.o)
 .debug_info    0x00000000000340a4     0x268b ./libkernel.a(task.o)
 .debug_info    0x000000000003672f      0x87d ./libkernel.a(taskhook.o)
 .debug_info    0x0000000000036fac     0x1bd2 ./libkernel.a(wait.o)
 .debug_info    0x0000000000038b7e     0x286c ./libkernel.a(time_event.o)
 .debug_info    0x000000000003b3ea     0x31c3 ./libkernel.a(task_sync.o)
 .debug_info    0x000000000003e5ad     0x2913 ./libkernel.a(semaphore.o)
 .debug_info    0x0000000000040ec0     0x46c9 ./libkernel.a(dataqueue.o)
 .debug_info    0x0000000000045589     0x30f8 ./libkernel.a(mutex.o)
 .debug_info    0x0000000000048681     0x161f ./libkernel.a(spin_lock.o)
 .debug_info    0x0000000000049ca0     0x3c19 ./libkernel.a(sys_manage.o)
 .debug_info    0x000000000004d8b9     0x2247 ./libkernel.a(interrupt.o)
 .debug_info    0x000000000004fb00       0x26 ./libkernel.a(core_support.o)
 .debug_info    0x000000000004fb26     0x23f5 ./libkernel.a(task_term.o)
 .debug_info    0x0000000000051f1b       0x26 ./libkernel.a(gic_support.o)
 .debug_info    0x0000000000051f41      0x137 /usr/lib/gcc/arm-none-eabi/10.3.1/../../../arm-none-eabi/lib/thumb/v7-a/nofp/libc.a(lib_a-memset.o)

.debug_abbrev   0x0000000000000000     0x8b1a
 *(.debug_abbrev)
 .debug_abbrev  0x0000000000000000       0x14 objs/start.o
 .debug_abbrev  0x0000000000000014      0x1da objs/log_output.o
 .debug_abbrev  0x00000000000001ee      0x116 objs/vasyslog.o
 .debug_abbrev  0x0000000000000304      0x106 objs/t_perror.o
 .debug_abbrev  0x000000000000040a       0x8a objs/strerror.o
 .debug_abbrev  0x0000000000000494       0xed objs/tTask_rProcessor1Migratable_tecsgen.o
 .debug_abbrev  0x0000000000000581       0xed objs/tSemaphore_rProcessor1Migratable_tecsgen.o
 .debug_abbrev  0x000000000000066e       0xde objs/tInterruptRequest_rProcessor1Migratable_tecsgen.o
 .debug_abbrev  0x000000000000074c       0xed objs/tISR_rProcessor1Migratable_tecsgen.o
 .debug_abbrev  0x0000000000000839       0xff objs/tTerminateRoutine_rProcessor1Migratable_tecsgen.o
 .debug_abbrev  0x0000000000000938      0x1db objs/tSerialPortMain_rProcessor1Migratable_tecsgen.o
 .debug_abbrev  0x0000000000000b13      0x10b objs/tSerialAdapter_rProcessor1Migratable_tecsgen.o
 .debug_abbrev  0x0000000000000c1e       0xe8 objs/tSysLog_rProcessor1Migratable_tecsgen.o
 .debug_abbrev  0x0000000000000d06       0x42 objs/tSysLogAdapter_rProcessor1Migratable_tecsgen.o
 .debug_abbrev  0x0000000000000d48      0x137 objs/tLogTaskMain_rProcessor1Migratable_tecsgen.o
 .debug_abbrev  0x0000000000000e7f       0x42 objs/tPutLogZyboZ7_rProcessor1Migratable_tecsgen.o
 .debug_abbrev  0x0000000000000ec1      0x18b objs/tXUartPs_rProcessor1Migratable_tecsgen.o
 .debug_abbrev  0x000000000000104c       0x9e objs/tSIOPortZyboZ7Main_rProcessor1Migratable_tecsgen.o
 .debug_abbrev  0x00000000000010ea       0xdf objs/tTask.o
 .debug_abbrev  0x00000000000011c9      0x111 objs/tISR.o
 .debug_abbrev  0x00000000000012da       0xcd objs/tTerminateRoutine.o
 .debug_abbrev  0x00000000000013a7      0x3dd objs/tSerialPortMain.o
 .debug_abbrev  0x0000000000001784      0x156 objs/tSerialAdapter.o
 .debug_abbrev  0x00000000000018da      0x273 objs/tSysLog.o
 .debug_abbrev  0x0000000000001b4d      0x108 objs/tSysLogAdapter.o
 .debug_abbrev  0x0000000000001c55      0x288 objs/tLogTaskMain.o
 .debug_abbrev  0x0000000000001edd      0x1d0 objs/tPutLogZyboZ7.o
 .debug_abbrev  0x00000000000020ad      0x2fa objs/tXUartPs.o
 .debug_abbrev  0x00000000000023a7       0x72 objs/init_tecs.o
 .debug_abbrev  0x0000000000002419      0x3ab objs/kernel_cfg.o
 .debug_abbrev  0x00000000000027c4      0x2fb ./gen/../tecsrust_uart_led_sample/target/armv7a-none-eabi/release/libitron.a(core-d049573bc16596f9.core.5587a85061e7188a-cgu.0.rcgu.o)
 .debug_abbrev  0x0000000000002abf       0xc5 ./gen/../tecsrust_uart_led_sample/target/armv7a-none-eabi/release/libitron.a(compiler_builtins-70f608aea3cde50d.compiler_builtins.5a681add74c93a61-cgu.162.rcgu.o)
 .debug_abbrev  0x0000000000002b84       0x70 ./gen/../tecsrust_uart_led_sample/target/armv7a-none-eabi/release/libitron.a(compiler_builtins-70f608aea3cde50d.compiler_builtins.5a681add74c93a61-cgu.174.rcgu.o)
 .debug_abbrev  0x0000000000002bf4       0x2e ./gen/../tecsrust_uart_led_sample/target/armv7a-none-eabi/release/libitron.a(compiler_builtins-70f608aea3cde50d.compiler_builtins.5a681add74c93a61-cgu.178.rcgu.o)
 .debug_abbrev  0x0000000000002c22       0x9b ./gen/../tecsrust_uart_led_sample/target/armv7a-none-eabi/release/libitron.a(compiler_builtins-70f608aea3cde50d.compiler_builtins.5a681add74c93a61-cgu.180.rcgu.o)
 .debug_abbrev  0x0000000000002cbd       0xa3 ./gen/../tecsrust_uart_led_sample/target/armv7a-none-eabi/release/libitron.a(compiler_builtins-70f608aea3cde50d.compiler_builtins.5a681add74c93a61-cgu.201.rcgu.o)
 .debug_abbrev  0x0000000000002d60       0x9b ./gen/../tecsrust_uart_led_sample/target/armv7a-none-eabi/release/libitron.a(compiler_builtins-70f608aea3cde50d.compiler_builtins.5a681add74c93a61-cgu.206.rcgu.o)
 .debug_abbrev  0x0000000000002dfb       0xaa ./gen/../tecsrust_uart_led_sample/target/armv7a-none-eabi/release/libitron.a(compiler_builtins-70f608aea3cde50d.compiler_builtins.5a681add74c93a61-cgu.210.rcgu.o)
 .debug_abbrev  0x0000000000002ea5       0x5f ./gen/../tecsrust_uart_led_sample/target/armv7a-none-eabi/release/libitron.a(compiler_builtins-70f608aea3cde50d.compiler_builtins.5a681add74c93a61-cgu.223.rcgu.o)
 .debug_abbrev  0x0000000000002f04       0x81 ./gen/../tecsrust_uart_led_sample/target/armv7a-none-eabi/release/libitron.a(compiler_builtins-70f608aea3cde50d.compiler_builtins.5a681add74c93a61-cgu.253.rcgu.o)
 .debug_abbrev  0x0000000000002f85       0x9f ./gen/../tecsrust_uart_led_sample/target/armv7a-none-eabi/release/libitron.a(compiler_builtins-70f608aea3cde50d.compiler_builtins.5a681add74c93a61-cgu.261.rcgu.o)
 .debug_abbrev  0x0000000000003024       0x2e ./gen/../tecsrust_uart_led_sample/target/armv7a-none-eabi/release/libitron.a(compiler_builtins-70f608aea3cde50d.compiler_builtins.5a681add74c93a61-cgu.263.rcgu.o)
 .debug_abbrev  0x0000000000003052       0xaf ./gen/../tecsrust_uart_led_sample/target/armv7a-none-eabi/release/libitron.a(compiler_builtins-70f608aea3cde50d.compiler_builtins.5a681add74c93a61-cgu.270.rcgu.o)
 .debug_abbrev  0x0000000000003101       0x9b ./gen/../tecsrust_uart_led_sample/target/armv7a-none-eabi/release/libitron.a(compiler_builtins-70f608aea3cde50d.compiler_builtins.5a681add74c93a61-cgu.283.rcgu.o)
 .debug_abbrev  0x000000000000319c       0x9f ./gen/../tecsrust_uart_led_sample/target/armv7a-none-eabi/release/libitron.a(compiler_builtins-70f608aea3cde50d.compiler_builtins.5a681add74c93a61-cgu.287.rcgu.o)
 .debug_abbrev  0x000000000000323b       0xcc ./gen/../tecsrust_uart_led_sample/target/armv7a-none-eabi/release/libitron.a(compiler_builtins-70f608aea3cde50d.compiler_builtins.5a681add74c93a61-cgu.300.rcgu.o)
 .debug_abbrev  0x0000000000003307       0x7b ./gen/../tecsrust_uart_led_sample/target/armv7a-none-eabi/release/libitron.a(compiler_builtins-70f608aea3cde50d.compiler_builtins.5a681add74c93a61-cgu.310.rcgu.o)
 .debug_abbrev  0x0000000000003382       0x2e ./gen/../tecsrust_uart_led_sample/target/armv7a-none-eabi/release/libitron.a(compiler_builtins-70f608aea3cde50d.compiler_builtins.5a681add74c93a61-cgu.355.rcgu.o)
 .debug_abbrev  0x00000000000033b0       0x9b ./gen/../tecsrust_uart_led_sample/target/armv7a-none-eabi/release/libitron.a(compiler_builtins-70f608aea3cde50d.compiler_builtins.5a681add74c93a61-cgu.361.rcgu.o)
 .debug_abbrev  0x000000000000344b       0xe0 ./gen/../tecsrust_uart_led_sample/target/armv7a-none-eabi/release/libitron.a(compiler_builtins-70f608aea3cde50d.compiler_builtins.5a681add74c93a61-cgu.365.rcgu.o)
 .debug_abbrev  0x000000000000352b       0xa3 ./gen/../tecsrust_uart_led_sample/target/armv7a-none-eabi/release/libitron.a(compiler_builtins-70f608aea3cde50d.compiler_builtins.5a681add74c93a61-cgu.375.rcgu.o)
 .debug_abbrev  0x00000000000035ce       0x2e ./gen/../tecsrust_uart_led_sample/target/armv7a-none-eabi/release/libitron.a(compiler_builtins-70f608aea3cde50d.compiler_builtins.5a681add74c93a61-cgu.393.rcgu.o)
 .debug_abbrev  0x00000000000035fc       0xc5 ./gen/../tecsrust_uart_led_sample/target/armv7a-none-eabi/release/libitron.a(compiler_builtins-70f608aea3cde50d.compiler_builtins.5a681add74c93a61-cgu.395.rcgu.o)
 .debug_abbrev  0x00000000000036c1       0x14 ./gen/../tecsrust_uart_led_sample/target/armv7a-none-eabi/release/libitron.a(63f8a0b8a638da8c-udivmodsi4.o)
 .debug_abbrev  0x00000000000036d5       0x14 ./gen/../tecsrust_uart_led_sample/target/armv7a-none-eabi/release/libitron.a(63f8a0b8a638da8c-udivsi3.o)
 .debug_abbrev  0x00000000000036e9      0x19d ./gen/../tecsrust_uart_led_sample/target/armv7a-none-eabi/release/libitron.a(compiler_builtins-70f608aea3cde50d.compiler_builtins.5a681add74c93a61-cgu.000.rcgu.o)
 .debug_abbrev  0x0000000000003886      0x18e ./gen/../tecsrust_uart_led_sample/target/armv7a-none-eabi/release/libitron.a(compiler_builtins-70f608aea3cde50d.compiler_builtins.5a681add74c93a61-cgu.004.rcgu.o)
 .debug_abbrev  0x0000000000003a14      0x142 ./gen/../tecsrust_uart_led_sample/target/armv7a-none-eabi/release/libitron.a(compiler_builtins-70f608aea3cde50d.compiler_builtins.5a681add74c93a61-cgu.009.rcgu.o)
 .debug_abbrev  0x0000000000003b56      0x13b ./gen/../tecsrust_uart_led_sample/target/armv7a-none-eabi/release/libitron.a(compiler_builtins-70f608aea3cde50d.compiler_builtins.5a681add74c93a61-cgu.019.rcgu.o)
 .debug_abbrev  0x0000000000003c91       0x5f ./gen/../tecsrust_uart_led_sample/target/armv7a-none-eabi/release/libitron.a(compiler_builtins-70f608aea3cde50d.compiler_builtins.5a681add74c93a61-cgu.347.rcgu.o)
 .debug_abbrev  0x0000000000003cf0       0x75 ./gen/../tecsrust_uart_led_sample/target/armv7a-none-eabi/release/libitron.a(63f8a0b8a638da8c-aeabi_div0.o)
 .debug_abbrev  0x0000000000003d65       0xc1 ./gen/../tecsrust_uart_led_sample/target/armv7a-none-eabi/release/libitron.a(compiler_builtins-70f608aea3cde50d.compiler_builtins.5a681add74c93a61-cgu.010.rcgu.o)
 .debug_abbrev  0x0000000000003e26      0x2a0 ./libkernel.a(target_kernel_impl.o)
 .debug_abbrev  0x00000000000040c6      0x168 ./libkernel.a(chip_kernel_impl.o)
 .debug_abbrev  0x000000000000422e      0x279 ./libkernel.a(mpcore_kernel_impl.o)
 .debug_abbrev  0x00000000000044a7      0x317 ./libkernel.a(gic_kernel_impl.o)
 .debug_abbrev  0x00000000000047be      0x1b2 ./libkernel.a(pl310.o)
 .debug_abbrev  0x0000000000004970      0x182 ./libkernel.a(mpcore_timer.o)
 .debug_abbrev  0x0000000000004af2      0x4c5 ./libkernel.a(core_kernel_impl.o)
 .debug_abbrev  0x0000000000004fb7      0x148 ./libkernel.a(arm.o)
 .debug_abbrev  0x00000000000050ff      0x4bd ./libkernel.a(startup.o)
 .debug_abbrev  0x00000000000055bc      0x4fe ./libkernel.a(task.o)
 .debug_abbrev  0x0000000000005aba      0x17b ./libkernel.a(taskhook.o)
 .debug_abbrev  0x0000000000005c35      0x3c0 ./libkernel.a(wait.o)
 .debug_abbrev  0x0000000000005ff5      0x58f ./libkernel.a(time_event.o)
 .debug_abbrev  0x0000000000006584      0x438 ./libkernel.a(task_sync.o)
 .debug_abbrev  0x00000000000069bc      0x47b ./libkernel.a(semaphore.o)
 .debug_abbrev  0x0000000000006e37      0x4f4 ./libkernel.a(dataqueue.o)
 .debug_abbrev  0x000000000000732b      0x4fc ./libkernel.a(mutex.o)
 .debug_abbrev  0x0000000000007827      0x454 ./libkernel.a(spin_lock.o)
 .debug_abbrev  0x0000000000007c7b      0x4d3 ./libkernel.a(sys_manage.o)
 .debug_abbrev  0x000000000000814e      0x456 ./libkernel.a(interrupt.o)
 .debug_abbrev  0x00000000000085a4       0x14 ./libkernel.a(core_support.o)
 .debug_abbrev  0x00000000000085b8      0x49a ./libkernel.a(task_term.o)
 .debug_abbrev  0x0000000000008a52       0x14 ./libkernel.a(gic_support.o)
 .debug_abbrev  0x0000000000008a66       0xb4 /usr/lib/gcc/arm-none-eabi/10.3.1/../../../arm-none-eabi/lib/thumb/v7-a/nofp/libc.a(lib_a-memset.o)

.debug_line     0x0000000000000000    0x349b4
 *(.debug_line)
 .debug_line    0x0000000000000000       0xa8 objs/start.o
 .debug_line    0x00000000000000a8      0x391 objs/log_output.o
 .debug_line    0x0000000000000439      0x1e2 objs/vasyslog.o
 .debug_line    0x000000000000061b       0xfd objs/t_perror.o
 .debug_line    0x0000000000000718       0xad objs/strerror.o
 .debug_line    0x00000000000007c5       0x99 objs/tTask_rProcessor1Migratable_tecsgen.o
 .debug_line    0x000000000000085e       0xa3 objs/tSemaphore_rProcessor1Migratable_tecsgen.o
 .debug_line    0x0000000000000901       0xbd objs/tInterruptRequest_rProcessor1Migratable_tecsgen.o
 .debug_line    0x00000000000009be       0x97 objs/tISR_rProcessor1Migratable_tecsgen.o
 .debug_line    0x0000000000000a55       0xac objs/tTerminateRoutine_rProcessor1Migratable_tecsgen.o
 .debug_line    0x0000000000000b01      0x15f objs/tSerialPortMain_rProcessor1Migratable_tecsgen.o
 .debug_line    0x0000000000000c60       0xd7 objs/tSerialAdapter_rProcessor1Migratable_tecsgen.o
 .debug_line    0x0000000000000d37       0xe8 objs/tSysLog_rProcessor1Migratable_tecsgen.o
 .debug_line    0x0000000000000e1f       0x67 objs/tSysLogAdapter_rProcessor1Migratable_tecsgen.o
 .debug_line    0x0000000000000e86      0x100 objs/tLogTaskMain_rProcessor1Migratable_tecsgen.o
 .debug_line    0x0000000000000f86       0x66 objs/tPutLogZyboZ7_rProcessor1Migratable_tecsgen.o
 .debug_line    0x0000000000000fec      0x104 objs/tXUartPs_rProcessor1Migratable_tecsgen.o
 .debug_line    0x00000000000010f0       0x94 objs/tSIOPortZyboZ7Main_rProcessor1Migratable_tecsgen.o
 .debug_line    0x0000000000001184       0xda objs/tTask.o
 .debug_line    0x000000000000125e        0x0 objs/tInterruptRequest.o
 .debug_line    0x000000000000125e       0xd6 objs/tISR.o
 .debug_line    0x0000000000001334       0xd5 objs/tTerminateRoutine.o
 .debug_line    0x0000000000001409      0xd66 objs/tSerialPortMain.o
 .debug_line    0x000000000000216f      0x24a objs/tSerialAdapter.o
 .debug_line    0x00000000000023b9      0x5ff objs/tSysLog.o
 .debug_line    0x00000000000029b8      0x12f objs/tSysLogAdapter.o
 .debug_line    0x0000000000002ae7      0x360 objs/tLogTaskMain.o
 .debug_line    0x0000000000002e47      0x250 objs/tPutLogZyboZ7.o
 .debug_line    0x0000000000003097      0x668 objs/tXUartPs.o
 .debug_line    0x00000000000036ff       0x8a objs/init_tecs.o
 .debug_line    0x0000000000003789      0x328 objs/kernel_cfg.o
 .debug_line    0x0000000000003ab1    0x18a11 ./gen/../tecsrust_uart_led_sample/target/armv7a-none-eabi/release/libitron.a(core-d049573bc16596f9.core.5587a85061e7188a-cgu.0.rcgu.o)
 .debug_line    0x000000000001c4c2      0x36a ./gen/../tecsrust_uart_led_sample/target/armv7a-none-eabi/release/libitron.a(compiler_builtins-70f608aea3cde50d.compiler_builtins.5a681add74c93a61-cgu.162.rcgu.o)
 .debug_line    0x000000000001c82c       0x97 ./gen/../tecsrust_uart_led_sample/target/armv7a-none-eabi/release/libitron.a(compiler_builtins-70f608aea3cde50d.compiler_builtins.5a681add74c93a61-cgu.174.rcgu.o)
 .debug_line    0x000000000001c8c3       0x44 ./gen/../tecsrust_uart_led_sample/target/armv7a-none-eabi/release/libitron.a(compiler_builtins-70f608aea3cde50d.compiler_builtins.5a681add74c93a61-cgu.178.rcgu.o)
 .debug_line    0x000000000001c907      0x22e ./gen/../tecsrust_uart_led_sample/target/armv7a-none-eabi/release/libitron.a(compiler_builtins-70f608aea3cde50d.compiler_builtins.5a681add74c93a61-cgu.180.rcgu.o)
 .debug_line    0x000000000001cb35      0x1cf ./gen/../tecsrust_uart_led_sample/target/armv7a-none-eabi/release/libitron.a(compiler_builtins-70f608aea3cde50d.compiler_builtins.5a681add74c93a61-cgu.201.rcgu.o)
 .debug_line    0x000000000001cd04      0x249 ./gen/../tecsrust_uart_led_sample/target/armv7a-none-eabi/release/libitron.a(compiler_builtins-70f608aea3cde50d.compiler_builtins.5a681add74c93a61-cgu.206.rcgu.o)
 .debug_line    0x000000000001cf4d      0x420 ./gen/../tecsrust_uart_led_sample/target/armv7a-none-eabi/release/libitron.a(compiler_builtins-70f608aea3cde50d.compiler_builtins.5a681add74c93a61-cgu.210.rcgu.o)
 .debug_line    0x000000000001d36d       0x82 ./gen/../tecsrust_uart_led_sample/target/armv7a-none-eabi/release/libitron.a(compiler_builtins-70f608aea3cde50d.compiler_builtins.5a681add74c93a61-cgu.223.rcgu.o)
 .debug_line    0x000000000001d3ef       0x97 ./gen/../tecsrust_uart_led_sample/target/armv7a-none-eabi/release/libitron.a(compiler_builtins-70f608aea3cde50d.compiler_builtins.5a681add74c93a61-cgu.253.rcgu.o)
 .debug_line    0x000000000001d486      0x21d ./gen/../tecsrust_uart_led_sample/target/armv7a-none-eabi/release/libitron.a(compiler_builtins-70f608aea3cde50d.compiler_builtins.5a681add74c93a61-cgu.261.rcgu.o)
 .debug_line    0x000000000001d6a3       0x44 ./gen/../tecsrust_uart_led_sample/target/armv7a-none-eabi/release/libitron.a(compiler_builtins-70f608aea3cde50d.compiler_builtins.5a681add74c93a61-cgu.263.rcgu.o)
 .debug_line    0x000000000001d6e7      0x269 ./gen/../tecsrust_uart_led_sample/target/armv7a-none-eabi/release/libitron.a(compiler_builtins-70f608aea3cde50d.compiler_builtins.5a681add74c93a61-cgu.270.rcgu.o)
 .debug_line    0x000000000001d950      0x216 ./gen/../tecsrust_uart_led_sample/target/armv7a-none-eabi/release/libitron.a(compiler_builtins-70f608aea3cde50d.compiler_builtins.5a681add74c93a61-cgu.283.rcgu.o)
 .debug_line    0x000000000001db66      0x213 ./gen/../tecsrust_uart_led_sample/target/armv7a-none-eabi/release/libitron.a(compiler_builtins-70f608aea3cde50d.compiler_builtins.5a681add74c93a61-cgu.287.rcgu.o)
 .debug_line    0x000000000001dd79      0x416 ./gen/../tecsrust_uart_led_sample/target/armv7a-none-eabi/release/libitron.a(compiler_builtins-70f608aea3cde50d.compiler_builtins.5a681add74c93a61-cgu.300.rcgu.o)
 .debug_line    0x000000000001e18f       0xd9 ./gen/../tecsrust_uart_led_sample/target/armv7a-none-eabi/release/libitron.a(compiler_builtins-70f608aea3cde50d.compiler_builtins.5a681add74c93a61-cgu.310.rcgu.o)
 .debug_line    0x000000000001e268       0x44 ./gen/../tecsrust_uart_led_sample/target/armv7a-none-eabi/release/libitron.a(compiler_builtins-70f608aea3cde50d.compiler_builtins.5a681add74c93a61-cgu.355.rcgu.o)
 .debug_line    0x000000000001e2ac      0x249 ./gen/../tecsrust_uart_led_sample/target/armv7a-none-eabi/release/libitron.a(compiler_builtins-70f608aea3cde50d.compiler_builtins.5a681add74c93a61-cgu.361.rcgu.o)
 .debug_line    0x000000000001e4f5      0x27b ./gen/../tecsrust_uart_led_sample/target/armv7a-none-eabi/release/libitron.a(compiler_builtins-70f608aea3cde50d.compiler_builtins.5a681add74c93a61-cgu.365.rcgu.o)
 .debug_line    0x000000000001e770      0x1cf ./gen/../tecsrust_uart_led_sample/target/armv7a-none-eabi/release/libitron.a(compiler_builtins-70f608aea3cde50d.compiler_builtins.5a681add74c93a61-cgu.375.rcgu.o)
 .debug_line    0x000000000001e93f       0x44 ./gen/../tecsrust_uart_led_sample/target/armv7a-none-eabi/release/libitron.a(compiler_builtins-70f608aea3cde50d.compiler_builtins.5a681add74c93a61-cgu.393.rcgu.o)
 .debug_line    0x000000000001e983      0x370 ./gen/../tecsrust_uart_led_sample/target/armv7a-none-eabi/release/libitron.a(compiler_builtins-70f608aea3cde50d.compiler_builtins.5a681add74c93a61-cgu.395.rcgu.o)
 .debug_line    0x000000000001ecf3       0xaf ./gen/../tecsrust_uart_led_sample/target/armv7a-none-eabi/release/libitron.a(63f8a0b8a638da8c-udivmodsi4.o)
 .debug_line    0x000000000001eda2       0xab ./gen/../tecsrust_uart_led_sample/target/armv7a-none-eabi/release/libitron.a(63f8a0b8a638da8c-udivsi3.o)
 .debug_line    0x000000000001ee4d      0xf93 ./gen/../tecsrust_uart_led_sample/target/armv7a-none-eabi/release/libitron.a(compiler_builtins-70f608aea3cde50d.compiler_builtins.5a681add74c93a61-cgu.000.rcgu.o)
 .debug_line    0x000000000001fde0      0xc1b ./gen/../tecsrust_uart_led_sample/target/armv7a-none-eabi/release/libitron.a(compiler_builtins-70f608aea3cde50d.compiler_builtins.5a681add74c93a61-cgu.004.rcgu.o)
 .debug_line    0x00000000000209fb      0x7e3 ./gen/../tecsrust_uart_led_sample/target/armv7a-none-eabi/release/libitron.a(compiler_builtins-70f608aea3cde50d.compiler_builtins.5a681add74c93a61-cgu.009.rcgu.o)
 .debug_line    0x00000000000211de      0x599 ./gen/../tecsrust_uart_led_sample/target/armv7a-none-eabi/release/libitron.a(compiler_builtins-70f608aea3cde50d.compiler_builtins.5a681add74c93a61-cgu.019.rcgu.o)
 .debug_line    0x0000000000021777       0xad ./gen/../tecsrust_uart_led_sample/target/armv7a-none-eabi/release/libitron.a(compiler_builtins-70f608aea3cde50d.compiler_builtins.5a681add74c93a61-cgu.347.rcgu.o)
 .debug_line    0x0000000000021824       0x70 ./gen/../tecsrust_uart_led_sample/target/armv7a-none-eabi/release/libitron.a(63f8a0b8a638da8c-aeabi_div0.o)
 .debug_line    0x0000000000021894      0x54f ./gen/../tecsrust_uart_led_sample/target/armv7a-none-eabi/release/libitron.a(compiler_builtins-70f608aea3cde50d.compiler_builtins.5a681add74c93a61-cgu.010.rcgu.o)
 .debug_line    0x0000000000021de3      0x273 ./libkernel.a(target_kernel_impl.o)
 .debug_line    0x0000000000022056      0x180 ./libkernel.a(chip_kernel_impl.o)
 .debug_line    0x00000000000221d6      0x2af ./libkernel.a(mpcore_kernel_impl.o)
 .debug_line    0x0000000000022485      0x8fa ./libkernel.a(gic_kernel_impl.o)
 .debug_line    0x0000000000022d7f      0x557 ./libkernel.a(pl310.o)
 .debug_line    0x00000000000232d6      0x261 ./libkernel.a(mpcore_timer.o)
 .debug_line    0x0000000000023537      0x801 ./libkernel.a(core_kernel_impl.o)
 .debug_line    0x0000000000023d38      0x3c3 ./libkernel.a(arm.o)
 .debug_line    0x00000000000240fb      0x816 ./libkernel.a(startup.o)
 .debug_line    0x0000000000024911     0x122a ./libkernel.a(task.o)
 .debug_line    0x0000000000025b3b      0x12e ./libkernel.a(taskhook.o)
 .debug_line    0x0000000000025c69      0xd4a ./libkernel.a(wait.o)
 .debug_line    0x00000000000269b3     0x150b ./libkernel.a(time_event.o)
 .debug_line    0x0000000000027ebe     0x1d03 ./libkernel.a(task_sync.o)
 .debug_line    0x0000000000029bc1     0x173a ./libkernel.a(semaphore.o)
 .debug_line    0x000000000002b2fb     0x2af5 ./libkernel.a(dataqueue.o)
 .debug_line    0x000000000002ddf0     0x1d12 ./libkernel.a(mutex.o)
 .debug_line    0x000000000002fb02      0x9fe ./libkernel.a(spin_lock.o)
 .debug_line    0x0000000000030500     0x1f9a ./libkernel.a(sys_manage.o)
 .debug_line    0x000000000003249a      0xf9b ./libkernel.a(interrupt.o)
 .debug_line    0x0000000000033435      0x1ad ./libkernel.a(core_support.o)
 .debug_line    0x00000000000335e2     0x1183 ./libkernel.a(task_term.o)
 .debug_line    0x0000000000034765       0x8e ./libkernel.a(gic_support.o)
 .debug_line    0x00000000000347f3      0x1c1 /usr/lib/gcc/arm-none-eabi/10.3.1/../../../arm-none-eabi/lib/thumb/v7-a/nofp/libc.a(lib_a-memset.o)

.debug_frame    0x0000000000000000     0x6600
 *(.debug_frame)
 .debug_frame   0x0000000000000000       0xac objs/log_output.o
 .debug_frame   0x00000000000000ac       0x2c objs/vasyslog.o
 .debug_frame   0x00000000000000d8       0x30 objs/t_perror.o
 .debug_frame   0x0000000000000108       0x20 objs/strerror.o
 .debug_frame   0x0000000000000128       0x20 objs/tTask_rProcessor1Migratable_tecsgen.o
 .debug_frame   0x0000000000000148       0x20 objs/tSemaphore_rProcessor1Migratable_tecsgen.o
 .debug_frame   0x0000000000000168       0x20 objs/tInterruptRequest_rProcessor1Migratable_tecsgen.o
 .debug_frame   0x0000000000000188       0x20 objs/tISR_rProcessor1Migratable_tecsgen.o
 .debug_frame   0x00000000000001a8       0x20 objs/tTerminateRoutine_rProcessor1Migratable_tecsgen.o
 .debug_frame   0x00000000000001c8       0x80 objs/tSerialPortMain_rProcessor1Migratable_tecsgen.o
 .debug_frame   0x0000000000000248       0x20 objs/tSerialAdapter_rProcessor1Migratable_tecsgen.o
 .debug_frame   0x0000000000000268       0x20 objs/tSysLog_rProcessor1Migratable_tecsgen.o
 .debug_frame   0x0000000000000288       0x20 objs/tSysLogAdapter_rProcessor1Migratable_tecsgen.o
 .debug_frame   0x00000000000002a8       0x30 objs/tLogTaskMain_rProcessor1Migratable_tecsgen.o
 .debug_frame   0x00000000000002d8       0x20 objs/tPutLogZyboZ7_rProcessor1Migratable_tecsgen.o
 .debug_frame   0x00000000000002f8       0x30 objs/tXUartPs_rProcessor1Migratable_tecsgen.o
 .debug_frame   0x0000000000000328       0x20 objs/tSIOPortZyboZ7Main_rProcessor1Migratable_tecsgen.o
 .debug_frame   0x0000000000000348       0x20 objs/tTask.o
 .debug_frame   0x0000000000000368       0x20 objs/tISR.o
 .debug_frame   0x0000000000000388       0x20 objs/tTerminateRoutine.o
 .debug_frame   0x00000000000003a8      0x150 objs/tSerialPortMain.o
 .debug_frame   0x00000000000004f8       0xf0 objs/tSerialAdapter.o
 .debug_frame   0x00000000000005e8       0xa4 objs/tSysLog.o
 .debug_frame   0x000000000000068c       0x60 objs/tSysLogAdapter.o
 .debug_frame   0x00000000000006ec       0xa8 objs/tLogTaskMain.o
 .debug_frame   0x0000000000000794       0x48 objs/tPutLogZyboZ7.o
 .debug_frame   0x00000000000007dc       0xa0 objs/tXUartPs.o
 .debug_frame   0x000000000000087c       0x2c objs/init_tecs.o
 .debug_frame   0x00000000000008a8       0x50 objs/kernel_cfg.o
 .debug_frame   0x00000000000008f8     0x42a8 ./gen/../tecsrust_uart_led_sample/target/armv7a-none-eabi/release/libitron.a(core-d049573bc16596f9.core.5587a85061e7188a-cgu.0.rcgu.o)
 .debug_frame   0x0000000000004ba0       0x30 ./gen/../tecsrust_uart_led_sample/target/armv7a-none-eabi/release/libitron.a(compiler_builtins-70f608aea3cde50d.compiler_builtins.5a681add74c93a61-cgu.162.rcgu.o)
 .debug_frame   0x0000000000004bd0       0x30 ./gen/../tecsrust_uart_led_sample/target/armv7a-none-eabi/release/libitron.a(compiler_builtins-70f608aea3cde50d.compiler_builtins.5a681add74c93a61-cgu.174.rcgu.o)
 .debug_frame   0x0000000000004c00       0x30 ./gen/../tecsrust_uart_led_sample/target/armv7a-none-eabi/release/libitron.a(compiler_builtins-70f608aea3cde50d.compiler_builtins.5a681add74c93a61-cgu.178.rcgu.o)
 .debug_frame   0x0000000000004c30       0x30 ./gen/../tecsrust_uart_led_sample/target/armv7a-none-eabi/release/libitron.a(compiler_builtins-70f608aea3cde50d.compiler_builtins.5a681add74c93a61-cgu.180.rcgu.o)
 .debug_frame   0x0000000000004c60       0x30 ./gen/../tecsrust_uart_led_sample/target/armv7a-none-eabi/release/libitron.a(compiler_builtins-70f608aea3cde50d.compiler_builtins.5a681add74c93a61-cgu.201.rcgu.o)
 .debug_frame   0x0000000000004c90       0x30 ./gen/../tecsrust_uart_led_sample/target/armv7a-none-eabi/release/libitron.a(compiler_builtins-70f608aea3cde50d.compiler_builtins.5a681add74c93a61-cgu.206.rcgu.o)
 .debug_frame   0x0000000000004cc0       0x30 ./gen/../tecsrust_uart_led_sample/target/armv7a-none-eabi/release/libitron.a(compiler_builtins-70f608aea3cde50d.compiler_builtins.5a681add74c93a61-cgu.210.rcgu.o)
 .debug_frame   0x0000000000004cf0       0x30 ./gen/../tecsrust_uart_led_sample/target/armv7a-none-eabi/release/libitron.a(compiler_builtins-70f608aea3cde50d.compiler_builtins.5a681add74c93a61-cgu.223.rcgu.o)
 .debug_frame   0x0000000000004d20       0x30 ./gen/../tecsrust_uart_led_sample/target/armv7a-none-eabi/release/libitron.a(compiler_builtins-70f608aea3cde50d.compiler_builtins.5a681add74c93a61-cgu.253.rcgu.o)
 .debug_frame   0x0000000000004d50       0x38 ./gen/../tecsrust_uart_led_sample/target/armv7a-none-eabi/release/libitron.a(compiler_builtins-70f608aea3cde50d.compiler_builtins.5a681add74c93a61-cgu.261.rcgu.o)
 .debug_frame   0x0000000000004d88       0x30 ./gen/../tecsrust_uart_led_sample/target/armv7a-none-eabi/release/libitron.a(compiler_builtins-70f608aea3cde50d.compiler_builtins.5a681add74c93a61-cgu.263.rcgu.o)
 .debug_frame   0x0000000000004db8       0x30 ./gen/../tecsrust_uart_led_sample/target/armv7a-none-eabi/release/libitron.a(compiler_builtins-70f608aea3cde50d.compiler_builtins.5a681add74c93a61-cgu.270.rcgu.o)
 .debug_frame   0x0000000000004de8       0x30 ./gen/../tecsrust_uart_led_sample/target/armv7a-none-eabi/release/libitron.a(compiler_builtins-70f608aea3cde50d.compiler_builtins.5a681add74c93a61-cgu.283.rcgu.o)
 .debug_frame   0x0000000000004e18       0x38 ./gen/../tecsrust_uart_led_sample/target/armv7a-none-eabi/release/libitron.a(compiler_builtins-70f608aea3cde50d.compiler_builtins.5a681add74c93a61-cgu.287.rcgu.o)
 .debug_frame   0x0000000000004e50       0x30 ./gen/../tecsrust_uart_led_sample/target/armv7a-none-eabi/release/libitron.a(compiler_builtins-70f608aea3cde50d.compiler_builtins.5a681add74c93a61-cgu.300.rcgu.o)
 .debug_frame   0x0000000000004e80       0x30 ./gen/../tecsrust_uart_led_sample/target/armv7a-none-eabi/release/libitron.a(compiler_builtins-70f608aea3cde50d.compiler_builtins.5a681add74c93a61-cgu.310.rcgu.o)
 .debug_frame   0x0000000000004eb0       0x30 ./gen/../tecsrust_uart_led_sample/target/armv7a-none-eabi/release/libitron.a(compiler_builtins-70f608aea3cde50d.compiler_builtins.5a681add74c93a61-cgu.355.rcgu.o)
 .debug_frame   0x0000000000004ee0       0x38 ./gen/../tecsrust_uart_led_sample/target/armv7a-none-eabi/release/libitron.a(compiler_builtins-70f608aea3cde50d.compiler_builtins.5a681add74c93a61-cgu.361.rcgu.o)
 .debug_frame   0x0000000000004f18       0x34 ./gen/../tecsrust_uart_led_sample/target/armv7a-none-eabi/release/libitron.a(compiler_builtins-70f608aea3cde50d.compiler_builtins.5a681add74c93a61-cgu.365.rcgu.o)
 .debug_frame   0x0000000000004f4c       0x30 ./gen/../tecsrust_uart_led_sample/target/armv7a-none-eabi/release/libitron.a(compiler_builtins-70f608aea3cde50d.compiler_builtins.5a681add74c93a61-cgu.375.rcgu.o)
 .debug_frame   0x0000000000004f7c       0x30 ./gen/../tecsrust_uart_led_sample/target/armv7a-none-eabi/release/libitron.a(compiler_builtins-70f608aea3cde50d.compiler_builtins.5a681add74c93a61-cgu.393.rcgu.o)
 .debug_frame   0x0000000000004fac       0x30 ./gen/../tecsrust_uart_led_sample/target/armv7a-none-eabi/release/libitron.a(compiler_builtins-70f608aea3cde50d.compiler_builtins.5a681add74c93a61-cgu.395.rcgu.o)
 .debug_frame   0x0000000000004fdc       0x90 ./gen/../tecsrust_uart_led_sample/target/armv7a-none-eabi/release/libitron.a(compiler_builtins-70f608aea3cde50d.compiler_builtins.5a681add74c93a61-cgu.000.rcgu.o)
 .debug_frame   0x000000000000506c       0x90 ./gen/../tecsrust_uart_led_sample/target/armv7a-none-eabi/release/libitron.a(compiler_builtins-70f608aea3cde50d.compiler_builtins.5a681add74c93a61-cgu.004.rcgu.o)
 .debug_frame   0x00000000000050fc       0xc4 ./gen/../tecsrust_uart_led_sample/target/armv7a-none-eabi/release/libitron.a(compiler_builtins-70f608aea3cde50d.compiler_builtins.5a681add74c93a61-cgu.009.rcgu.o)
 .debug_frame   0x00000000000051c0      0x138 ./gen/../tecsrust_uart_led_sample/target/armv7a-none-eabi/release/libitron.a(compiler_builtins-70f608aea3cde50d.compiler_builtins.5a681add74c93a61-cgu.019.rcgu.o)
 .debug_frame   0x00000000000052f8       0x34 ./gen/../tecsrust_uart_led_sample/target/armv7a-none-eabi/release/libitron.a(compiler_builtins-70f608aea3cde50d.compiler_builtins.5a681add74c93a61-cgu.347.rcgu.o)
 .debug_frame   0x000000000000532c       0x30 ./gen/../tecsrust_uart_led_sample/target/armv7a-none-eabi/release/libitron.a(63f8a0b8a638da8c-aeabi_div0.o)
 .debug_frame   0x000000000000535c       0x6c ./gen/../tecsrust_uart_led_sample/target/armv7a-none-eabi/release/libitron.a(compiler_builtins-70f608aea3cde50d.compiler_builtins.5a681add74c93a61-cgu.010.rcgu.o)
 .debug_frame   0x00000000000053c8       0x78 ./libkernel.a(target_kernel_impl.o)
 .debug_frame   0x0000000000005440       0x3c ./libkernel.a(chip_kernel_impl.o)
 .debug_frame   0x000000000000547c       0x5c ./libkernel.a(mpcore_kernel_impl.o)
 .debug_frame   0x00000000000054d8       0x80 ./libkernel.a(gic_kernel_impl.o)
 .debug_frame   0x0000000000005558       0x50 ./libkernel.a(pl310.o)
 .debug_frame   0x00000000000055a8       0x40 ./libkernel.a(mpcore_timer.o)
 .debug_frame   0x00000000000055e8       0xfc ./libkernel.a(core_kernel_impl.o)
 .debug_frame   0x00000000000056e4       0xa0 ./libkernel.a(arm.o)
 .debug_frame   0x0000000000005784       0xd4 ./libkernel.a(startup.o)
 .debug_frame   0x0000000000005858      0x15c ./libkernel.a(task.o)
 .debug_frame   0x00000000000059b4      0x12c ./libkernel.a(wait.o)
 .debug_frame   0x0000000000005ae0      0x1b0 ./libkernel.a(time_event.o)
 .debug_frame   0x0000000000005c90      0x138 ./libkernel.a(task_sync.o)
 .debug_frame   0x0000000000005dc8       0xfc ./libkernel.a(semaphore.o)
 .debug_frame   0x0000000000005ec4      0x224 ./libkernel.a(dataqueue.o)
 .debug_frame   0x00000000000060e8      0x198 ./libkernel.a(mutex.o)
 .debug_frame   0x0000000000006280       0x7c ./libkernel.a(spin_lock.o)
 .debug_frame   0x00000000000062fc      0x184 ./libkernel.a(sys_manage.o)
 .debug_frame   0x0000000000006480       0x9c ./libkernel.a(interrupt.o)
 .debug_frame   0x000000000000651c       0xb8 ./libkernel.a(task_term.o)
 .debug_frame   0x00000000000065d4       0x2c /usr/lib/gcc/arm-none-eabi/10.3.1/../../../arm-none-eabi/lib/thumb/v7-a/nofp/libc.a(lib_a-memset.o)

.debug_str      0x0000000000000000    0x43e48
 *(.debug_str)
 .debug_str     0x0000000000000000       0x7c objs/start.o
 .debug_str     0x000000000000007c      0x1cd objs/log_output.o
                                        0x290 (size before relaxing)
 .debug_str     0x0000000000000249       0x4d objs/vasyslog.o
                                        0x218 (size before relaxing)
 .debug_str     0x0000000000000296       0x4c objs/t_perror.o
                                        0x216 (size before relaxing)
 .debug_str     0x00000000000002e2       0x1c objs/strerror.o
                                        0x1b0 (size before relaxing)
 .debug_str     0x00000000000002fe       0xd9 objs/tTask_rProcessor1Migratable_tecsgen.o
                                        0x1d7 (size before relaxing)
 .debug_str     0x00000000000003d7       0x72 objs/tSemaphore_rProcessor1Migratable_tecsgen.o
                                        0x1eb (size before relaxing)
 .debug_str     0x0000000000000449       0xa4 objs/tInterruptRequest_rProcessor1Migratable_tecsgen.o
                                        0x225 (size before relaxing)
 .debug_str     0x00000000000004ed       0x5a objs/tISR_rProcessor1Migratable_tecsgen.o
                                        0x1d2 (size before relaxing)
 .debug_str     0x0000000000000547      0x153 objs/tTerminateRoutine_rProcessor1Migratable_tecsgen.o
                                        0x2cd (size before relaxing)
 .debug_str     0x000000000000069a      0x4fc objs/tSerialPortMain_rProcessor1Migratable_tecsgen.o
                                        0x6ae (size before relaxing)
 .debug_str     0x0000000000000b96       0xc8 objs/tSerialAdapter_rProcessor1Migratable_tecsgen.o
                                        0x31c (size before relaxing)
 .debug_str     0x0000000000000c5e      0x104 objs/tSysLog_rProcessor1Migratable_tecsgen.o
                                        0x2d9 (size before relaxing)
 .debug_str     0x0000000000000d62       0x52 objs/tSysLogAdapter_rProcessor1Migratable_tecsgen.o
                                        0x1b5 (size before relaxing)
 .debug_str     0x0000000000000db4      0x144 objs/tLogTaskMain_rProcessor1Migratable_tecsgen.o
                                        0x335 (size before relaxing)
 .debug_str     0x0000000000000ef8       0x50 objs/tPutLogZyboZ7_rProcessor1Migratable_tecsgen.o
                                        0x1b3 (size before relaxing)
 .debug_str     0x0000000000000f48      0x138 objs/tXUartPs_rProcessor1Migratable_tecsgen.o
                                        0x34a (size before relaxing)
 .debug_str     0x0000000000001080       0x7a objs/tSIOPortZyboZ7Main_rProcessor1Migratable_tecsgen.o
                                        0x1f8 (size before relaxing)
 .debug_str     0x00000000000010fa       0x61 objs/tTask.o
                                        0x1ed (size before relaxing)
 .debug_str     0x000000000000115b       0x29 objs/tInterruptRequest.o
                                         0xea (size before relaxing)
 .debug_str     0x0000000000001184       0x44 objs/tISR.o
                                        0x27b (size before relaxing)
 .debug_str     0x00000000000011c8       0x57 objs/tTerminateRoutine.o
                                        0x248 (size before relaxing)
 .debug_str     0x000000000000121f      0x40a objs/tSerialPortMain.o
                                        0x965 (size before relaxing)
 .debug_str     0x0000000000001629       0x82 objs/tSerialAdapter.o
                                        0x2f1 (size before relaxing)
 .debug_str     0x00000000000016ab      0x1c5 objs/tSysLog.o
                                        0x49b (size before relaxing)
 .debug_str     0x0000000000001870       0x6c objs/tSysLogAdapter.o
                                        0x2d9 (size before relaxing)
 .debug_str     0x00000000000018dc       0x77 objs/tLogTaskMain.o
                                        0x5d9 (size before relaxing)
 .debug_str     0x0000000000001953       0x45 objs/tPutLogZyboZ7.o
                                        0x3e9 (size before relaxing)
 .debug_str     0x0000000000001998      0x124 objs/tXUartPs.o
                                        0x60a (size before relaxing)
 .debug_str     0x0000000000001abc       0x31 objs/init_tecs.o
                                        0x2ec (size before relaxing)
 .debug_str     0x0000000000001aed     0x124c objs/kernel_cfg.o
                                       0x160f (size before relaxing)
 .debug_str     0x0000000000002d39    0x393b4 ./gen/../tecsrust_uart_led_sample/target/armv7a-none-eabi/release/libitron.a(core-d049573bc16596f9.core.5587a85061e7188a-cgu.0.rcgu.o)
                                      0x39839 (size before relaxing)
 .debug_str     0x000000000003c0ed      0x43c ./gen/../tecsrust_uart_led_sample/target/armv7a-none-eabi/release/libitron.a(compiler_builtins-70f608aea3cde50d.compiler_builtins.5a681add74c93a61-cgu.162.rcgu.o)
                                        0x51d (size before relaxing)
 .debug_str     0x000000000003c529       0xfb ./gen/../tecsrust_uart_led_sample/target/armv7a-none-eabi/release/libitron.a(compiler_builtins-70f608aea3cde50d.compiler_builtins.5a681add74c93a61-cgu.174.rcgu.o)
                                        0x1d4 (size before relaxing)
 .debug_str     0x000000000003c624       0x6a ./gen/../tecsrust_uart_led_sample/target/armv7a-none-eabi/release/libitron.a(compiler_builtins-70f608aea3cde50d.compiler_builtins.5a681add74c93a61-cgu.178.rcgu.o)
                                         0xec (size before relaxing)
 .debug_str     0x000000000003c68e      0x2fc ./gen/../tecsrust_uart_led_sample/target/armv7a-none-eabi/release/libitron.a(compiler_builtins-70f608aea3cde50d.compiler_builtins.5a681add74c93a61-cgu.180.rcgu.o)
                                        0x3b9 (size before relaxing)
 .debug_str     0x000000000003c98a       0xfd ./gen/../tecsrust_uart_led_sample/target/armv7a-none-eabi/release/libitron.a(compiler_builtins-70f608aea3cde50d.compiler_builtins.5a681add74c93a61-cgu.201.rcgu.o)
                                        0x463 (size before relaxing)
 .debug_str     0x000000000003ca87      0x143 ./gen/../tecsrust_uart_led_sample/target/armv7a-none-eabi/release/libitron.a(compiler_builtins-70f608aea3cde50d.compiler_builtins.5a681add74c93a61-cgu.206.rcgu.o)
                                        0x416 (size before relaxing)
 .debug_str     0x000000000003cbca      0x506 ./gen/../tecsrust_uart_led_sample/target/armv7a-none-eabi/release/libitron.a(compiler_builtins-70f608aea3cde50d.compiler_builtins.5a681add74c93a61-cgu.210.rcgu.o)
                                        0x6c8 (size before relaxing)
 .debug_str     0x000000000003d0d0       0x5d ./gen/../tecsrust_uart_led_sample/target/armv7a-none-eabi/release/libitron.a(compiler_builtins-70f608aea3cde50d.compiler_builtins.5a681add74c93a61-cgu.223.rcgu.o)
                                        0x184 (size before relaxing)
 .debug_str     0x000000000003d12d       0xad ./gen/../tecsrust_uart_led_sample/target/armv7a-none-eabi/release/libitron.a(compiler_builtins-70f608aea3cde50d.compiler_builtins.5a681add74c93a61-cgu.253.rcgu.o)
                                        0x224 (size before relaxing)
 .debug_str     0x000000000003d1da      0x2ba ./gen/../tecsrust_uart_led_sample/target/armv7a-none-eabi/release/libitron.a(compiler_builtins-70f608aea3cde50d.compiler_builtins.5a681add74c93a61-cgu.261.rcgu.o)
                                        0x426 (size before relaxing)
 .debug_str     0x000000000003d494       0x6a ./gen/../tecsrust_uart_led_sample/target/armv7a-none-eabi/release/libitron.a(compiler_builtins-70f608aea3cde50d.compiler_builtins.5a681add74c93a61-cgu.263.rcgu.o)
                                         0xec (size before relaxing)
 .debug_str     0x000000000003d4fe      0x3cb ./gen/../tecsrust_uart_led_sample/target/armv7a-none-eabi/release/libitron.a(compiler_builtins-70f608aea3cde50d.compiler_builtins.5a681add74c93a61-cgu.270.rcgu.o)
                                        0x5a9 (size before relaxing)
 .debug_str     0x000000000003d8c9      0x158 ./gen/../tecsrust_uart_led_sample/target/armv7a-none-eabi/release/libitron.a(compiler_builtins-70f608aea3cde50d.compiler_builtins.5a681add74c93a61-cgu.283.rcgu.o)
                                        0x356 (size before relaxing)
 .debug_str     0x000000000003da21      0x158 ./gen/../tecsrust_uart_led_sample/target/armv7a-none-eabi/release/libitron.a(compiler_builtins-70f608aea3cde50d.compiler_builtins.5a681add74c93a61-cgu.287.rcgu.o)
                                        0x3c6 (size before relaxing)
 .debug_str     0x000000000003db79      0x62a ./gen/../tecsrust_uart_led_sample/target/armv7a-none-eabi/release/libitron.a(compiler_builtins-70f608aea3cde50d.compiler_builtins.5a681add74c93a61-cgu.300.rcgu.o)
                                        0x803 (size before relaxing)
 .debug_str     0x000000000003e1a3       0xec ./gen/../tecsrust_uart_led_sample/target/armv7a-none-eabi/release/libitron.a(compiler_builtins-70f608aea3cde50d.compiler_builtins.5a681add74c93a61-cgu.310.rcgu.o)
                                        0x1cb (size before relaxing)
 .debug_str     0x000000000003e28f       0x6a ./gen/../tecsrust_uart_led_sample/target/armv7a-none-eabi/release/libitron.a(compiler_builtins-70f608aea3cde50d.compiler_builtins.5a681add74c93a61-cgu.355.rcgu.o)
                                         0xec (size before relaxing)
 .debug_str     0x000000000003e2f9       0xf6 ./gen/../tecsrust_uart_led_sample/target/armv7a-none-eabi/release/libitron.a(compiler_builtins-70f608aea3cde50d.compiler_builtins.5a681add74c93a61-cgu.361.rcgu.o)
                                        0x4f2 (size before relaxing)
 .debug_str     0x000000000003e3ef      0x2ed ./gen/../tecsrust_uart_led_sample/target/armv7a-none-eabi/release/libitron.a(compiler_builtins-70f608aea3cde50d.compiler_builtins.5a681add74c93a61-cgu.365.rcgu.o)
                                        0x59a (size before relaxing)
 .debug_str     0x000000000003e6dc       0xad ./gen/../tecsrust_uart_led_sample/target/armv7a-none-eabi/release/libitron.a(compiler_builtins-70f608aea3cde50d.compiler_builtins.5a681add74c93a61-cgu.375.rcgu.o)
                                        0x463 (size before relaxing)
 .debug_str     0x000000000003e789       0x6a ./gen/../tecsrust_uart_led_sample/target/armv7a-none-eabi/release/libitron.a(compiler_builtins-70f608aea3cde50d.compiler_builtins.5a681add74c93a61-cgu.393.rcgu.o)
                                         0xec (size before relaxing)
 .debug_str     0x000000000003e7f3       0xab ./gen/../tecsrust_uart_led_sample/target/armv7a-none-eabi/release/libitron.a(compiler_builtins-70f608aea3cde50d.compiler_builtins.5a681add74c93a61-cgu.395.rcgu.o)
                                        0x56b (size before relaxing)
 .debug_str     0x000000000003e89e       0x94 ./gen/../tecsrust_uart_led_sample/target/armv7a-none-eabi/release/libitron.a(63f8a0b8a638da8c-udivmodsi4.o)
                                         0xa0 (size before relaxing)
 .debug_str     0x000000000003e932       0x42 ./gen/../tecsrust_uart_led_sample/target/armv7a-none-eabi/release/libitron.a(63f8a0b8a638da8c-udivsi3.o)
                                         0x9d (size before relaxing)
 .debug_str     0x000000000003e974     0x1e98 ./gen/../tecsrust_uart_led_sample/target/armv7a-none-eabi/release/libitron.a(compiler_builtins-70f608aea3cde50d.compiler_builtins.5a681add74c93a61-cgu.000.rcgu.o)
                                       0x28f2 (size before relaxing)
 .debug_str     0x000000000004080c      0x58e ./gen/../tecsrust_uart_led_sample/target/armv7a-none-eabi/release/libitron.a(compiler_builtins-70f608aea3cde50d.compiler_builtins.5a681add74c93a61-cgu.004.rcgu.o)
                                       0x1c8f (size before relaxing)
 .debug_str     0x0000000000040d9a      0xae5 ./gen/../tecsrust_uart_led_sample/target/armv7a-none-eabi/release/libitron.a(compiler_builtins-70f608aea3cde50d.compiler_builtins.5a681add74c93a61-cgu.009.rcgu.o)
                                        0xf9f (size before relaxing)
 .debug_str     0x000000000004187f      0x6b6 ./gen/../tecsrust_uart_led_sample/target/armv7a-none-eabi/release/libitron.a(compiler_builtins-70f608aea3cde50d.compiler_builtins.5a681add74c93a61-cgu.019.rcgu.o)
                                        0xad4 (size before relaxing)
 .debug_str     0x0000000000041f35      0x10e ./gen/../tecsrust_uart_led_sample/target/armv7a-none-eabi/release/libitron.a(compiler_builtins-70f608aea3cde50d.compiler_builtins.5a681add74c93a61-cgu.347.rcgu.o)
                                        0x18a (size before relaxing)
 .debug_str     0x0000000000042043      0x132 ./gen/../tecsrust_uart_led_sample/target/armv7a-none-eabi/release/libitron.a(63f8a0b8a638da8c-aeabi_div0.o)
                                        0x212 (size before relaxing)
 .debug_str     0x0000000000042175      0x40d ./gen/../tecsrust_uart_led_sample/target/armv7a-none-eabi/release/libitron.a(compiler_builtins-70f608aea3cde50d.compiler_builtins.5a681add74c93a61-cgu.010.rcgu.o)
                                        0x5f0 (size before relaxing)
 .debug_str     0x0000000000042582      0x1a8 ./libkernel.a(target_kernel_impl.o)
                                        0x55e (size before relaxing)
 .debug_str     0x000000000004272a       0x93 ./libkernel.a(chip_kernel_impl.o)
                                        0x442 (size before relaxing)
 .debug_str     0x00000000000427bd      0x16e ./libkernel.a(mpcore_kernel_impl.o)
                                        0x583 (size before relaxing)
 .debug_str     0x000000000004292b       0xf9 ./libkernel.a(gic_kernel_impl.o)
                                        0x614 (size before relaxing)
 .debug_str     0x0000000000042a24       0xcc ./libkernel.a(pl310.o)
                                        0x288 (size before relaxing)
 .debug_str     0x0000000000042af0       0xa4 ./libkernel.a(mpcore_timer.o)
                                        0x24a (size before relaxing)
 .debug_str     0x0000000000042b94      0x18b ./libkernel.a(core_kernel_impl.o)
                                        0xa03 (size before relaxing)
 .debug_str     0x0000000000042d1f      0x103 ./libkernel.a(arm.o)
                                        0x2ed (size before relaxing)
 .debug_str     0x0000000000042e22      0x162 ./libkernel.a(startup.o)
                                        0x8e9 (size before relaxing)
 .debug_str     0x0000000000042f84      0x33a ./libkernel.a(task.o)
                                        0xb91 (size before relaxing)
 .debug_str     0x00000000000432be       0x56 ./libkernel.a(taskhook.o)
                                        0x723 (size before relaxing)
 .debug_str     0x0000000000043314      0x15f ./libkernel.a(wait.o)
                                        0xa0e (size before relaxing)
 .debug_str     0x0000000000043473      0x279 ./libkernel.a(time_event.o)
                                        0xc82 (size before relaxing)
 .debug_str     0x00000000000436ec       0xc4 ./libkernel.a(task_sync.o)
                                        0xaaf (size before relaxing)
 .debug_str     0x00000000000437b0       0x8d ./libkernel.a(semaphore.o)
                                        0xb43 (size before relaxing)
 .debug_str     0x000000000004383d      0x118 ./libkernel.a(dataqueue.o)
                                        0xcac (size before relaxing)
 .debug_str     0x0000000000043955      0x11f ./libkernel.a(mutex.o)
                                        0xc8a (size before relaxing)
 .debug_str     0x0000000000043a74       0x9c ./libkernel.a(spin_lock.o)
                                        0x97e (size before relaxing)
 .debug_str     0x0000000000043b10       0xe8 ./libkernel.a(sys_manage.o)
                                        0xb07 (size before relaxing)
 .debug_str     0x0000000000043bf8       0x96 ./libkernel.a(interrupt.o)
                                        0xae2 (size before relaxing)
 .debug_str     0x0000000000043c8e       0x2c ./libkernel.a(core_support.o)
                                         0x83 (size before relaxing)
 .debug_str     0x0000000000043cba       0x5a ./libkernel.a(task_term.o)
                                        0xa50 (size before relaxing)
 .debug_str     0x0000000000043d14       0x2b ./libkernel.a(gic_support.o)
                                         0x82 (size before relaxing)
 .debug_str     0x0000000000043d3f      0x109 /usr/lib/gcc/arm-none-eabi/10.3.1/../../../arm-none-eabi/lib/thumb/v7-a/nofp/libc.a(lib_a-memset.o)
                                        0x1b3 (size before relaxing)

.debug_loc      0x0000000000000000    0x1686d
 *(.debug_loc)
 .debug_loc     0x0000000000000000      0x571 objs/log_output.o
 .debug_loc     0x0000000000000571      0x3e5 objs/vasyslog.o
 .debug_loc     0x0000000000000956       0x88 objs/t_perror.o
 .debug_loc     0x00000000000009de       0x35 objs/strerror.o
 .debug_loc     0x0000000000000a13      0x2be objs/tSerialPortMain_rProcessor1Migratable_tecsgen.o
 .debug_loc     0x0000000000000cd1       0x25 objs/tLogTaskMain_rProcessor1Migratable_tecsgen.o
 .debug_loc     0x0000000000000cf6       0x6e objs/tXUartPs_rProcessor1Migratable_tecsgen.o
 .debug_loc     0x0000000000000d64       0x4a objs/tTask.o
 .debug_loc     0x0000000000000dae       0x4a objs/tISR.o
 .debug_loc     0x0000000000000df8       0x4a objs/tTerminateRoutine.o
 .debug_loc     0x0000000000000e42      0xec1 objs/tSerialPortMain.o
 .debug_loc     0x0000000000001d03      0x3b4 objs/tSerialAdapter.o
 .debug_loc     0x00000000000020b7      0x77f objs/tSysLog.o
 .debug_loc     0x0000000000002836       0xde objs/tSysLogAdapter.o
 .debug_loc     0x0000000000002914      0x275 objs/tLogTaskMain.o
 .debug_loc     0x0000000000002b89       0x92 objs/tPutLogZyboZ7.o
 .debug_loc     0x0000000000002c1b      0x7f6 objs/tXUartPs.o
 .debug_loc     0x0000000000003411       0x8b objs/kernel_cfg.o
 .debug_loc     0x000000000000349c       0x3c ./libkernel.a(target_kernel_impl.o)
 .debug_loc     0x00000000000034d8       0x32 ./libkernel.a(chip_kernel_impl.o)
 .debug_loc     0x000000000000350a      0x172 ./libkernel.a(mpcore_kernel_impl.o)
 .debug_loc     0x000000000000367c      0xb9c ./libkernel.a(gic_kernel_impl.o)
 .debug_loc     0x0000000000004218      0x7cc ./libkernel.a(pl310.o)
 .debug_loc     0x00000000000049e4      0x266 ./libkernel.a(mpcore_timer.o)
 .debug_loc     0x0000000000004c4a      0xaf7 ./libkernel.a(core_kernel_impl.o)
 .debug_loc     0x0000000000005741      0x3be ./libkernel.a(arm.o)
 .debug_loc     0x0000000000005aff      0x60c ./libkernel.a(startup.o)
 .debug_loc     0x000000000000610b     0x199c ./libkernel.a(task.o)
 .debug_loc     0x0000000000007aa7     0x1210 ./libkernel.a(wait.o)
 .debug_loc     0x0000000000008cb7     0x18da ./libkernel.a(time_event.o)
 .debug_loc     0x000000000000a591     0x1975 ./libkernel.a(task_sync.o)
 .debug_loc     0x000000000000bf06     0x13f0 ./libkernel.a(semaphore.o)
 .debug_loc     0x000000000000d2f6     0x2bef ./libkernel.a(dataqueue.o)
 .debug_loc     0x000000000000fee5     0x1c45 ./libkernel.a(mutex.o)
 .debug_loc     0x0000000000011b2a      0x88b ./libkernel.a(spin_lock.o)
 .debug_loc     0x00000000000123b5     0x23c3 ./libkernel.a(sys_manage.o)
 .debug_loc     0x0000000000014778      0xf85 ./libkernel.a(interrupt.o)
 .debug_loc     0x00000000000156fd      0xf37 ./libkernel.a(task_term.o)
 .debug_loc     0x0000000000016634      0x239 /usr/lib/gcc/arm-none-eabi/10.3.1/../../../arm-none-eabi/lib/thumb/v7-a/nofp/libc.a(lib_a-memset.o)

.debug_macinfo
 *(.debug_macinfo)

.debug_weaknames
 *(.debug_weaknames)

.debug_funcnames
 *(.debug_funcnames)

.debug_typenames
 *(.debug_typenames)

.debug_varnames
 *(.debug_varnames)
LOAD objs/start.o
LOAD objs/log_output.o
LOAD objs/vasyslog.o
LOAD objs/t_perror.o
LOAD objs/strerror.o
LOAD objs/tTask_rProcessor1Migratable_tecsgen.o
LOAD objs/tSemaphore_rProcessor1Migratable_tecsgen.o
LOAD objs/tInterruptRequest_rProcessor1Migratable_tecsgen.o
LOAD objs/tISR_rProcessor1Migratable_tecsgen.o
LOAD objs/tTerminateRoutine_rProcessor1Migratable_tecsgen.o
LOAD objs/tSerialPortMain_rProcessor1Migratable_tecsgen.o
LOAD objs/tSerialAdapter_rProcessor1Migratable_tecsgen.o
LOAD objs/tSysLog_rProcessor1Migratable_tecsgen.o
LOAD objs/tSysLogAdapter_rProcessor1Migratable_tecsgen.o
LOAD objs/tLogTaskMain_rProcessor1Migratable_tecsgen.o
LOAD objs/tPutLogZyboZ7_rProcessor1Migratable_tecsgen.o
LOAD objs/tXUartPs_rProcessor1Migratable_tecsgen.o
LOAD objs/tSIOPortZyboZ7Main_rProcessor1Migratable_tecsgen.o
LOAD objs/tTask.o
LOAD objs/tInterruptRequest.o
LOAD objs/tISR.o
LOAD objs/tTerminateRoutine.o
LOAD objs/tSerialPortMain.o
LOAD objs/tSerialAdapter.o
LOAD objs/tSysLog.o
LOAD objs/tSysLogAdapter.o
LOAD objs/tLogTaskMain.o
LOAD objs/tPutLogZyboZ7.o
LOAD objs/tXUartPs.o
LOAD objs/init_tecs.o
LOAD objs/kernel_cfg.o
LOAD ./gen/../tecsrust_uart_led_sample/target/armv7a-none-eabi/release/libitron.a
LOAD ./libkernel.a
LOAD /usr/lib/gcc/arm-none-eabi/10.3.1/../../../arm-none-eabi/lib/thumb/v7-a/nofp/libc.a
LOAD /usr/lib/gcc/arm-none-eabi/10.3.1/thumb/v7-a/nofp/libgcc.a
OUTPUT(fmp.elf elf32-littlearm)
LOAD linker stubs

.debug_ranges   0x0000000000000000    0x12db0
 .debug_ranges  0x0000000000000000      0x378 objs/tSerialPortMain.o
 .debug_ranges  0x0000000000000378      0x188 objs/tSysLog.o
 .debug_ranges  0x0000000000000500       0x30 objs/tLogTaskMain.o
 .debug_ranges  0x0000000000000530       0x70 objs/tPutLogZyboZ7.o
 .debug_ranges  0x00000000000005a0      0x218 objs/tXUartPs.o
 .debug_ranges  0x00000000000007b8       0x18 objs/kernel_cfg.o
 .debug_ranges  0x00000000000007d0     0xcae0 ./gen/../tecsrust_uart_led_sample/target/armv7a-none-eabi/release/libitron.a(core-d049573bc16596f9.core.5587a85061e7188a-cgu.0.rcgu.o)
 .debug_ranges  0x000000000000d2b0       0x30 ./gen/../tecsrust_uart_led_sample/target/armv7a-none-eabi/release/libitron.a(compiler_builtins-70f608aea3cde50d.compiler_builtins.5a681add74c93a61-cgu.162.rcgu.o)
 .debug_ranges  0x000000000000d2e0       0x20 ./gen/../tecsrust_uart_led_sample/target/armv7a-none-eabi/release/libitron.a(compiler_builtins-70f608aea3cde50d.compiler_builtins.5a681add74c93a61-cgu.180.rcgu.o)
 .debug_ranges  0x000000000000d300       0x30 ./gen/../tecsrust_uart_led_sample/target/armv7a-none-eabi/release/libitron.a(compiler_builtins-70f608aea3cde50d.compiler_builtins.5a681add74c93a61-cgu.201.rcgu.o)
 .debug_ranges  0x000000000000d330       0x20 ./gen/../tecsrust_uart_led_sample/target/armv7a-none-eabi/release/libitron.a(compiler_builtins-70f608aea3cde50d.compiler_builtins.5a681add74c93a61-cgu.206.rcgu.o)
 .debug_ranges  0x000000000000d350       0xc0 ./gen/../tecsrust_uart_led_sample/target/armv7a-none-eabi/release/libitron.a(compiler_builtins-70f608aea3cde50d.compiler_builtins.5a681add74c93a61-cgu.210.rcgu.o)
 .debug_ranges  0x000000000000d410       0x48 ./gen/../tecsrust_uart_led_sample/target/armv7a-none-eabi/release/libitron.a(compiler_builtins-70f608aea3cde50d.compiler_builtins.5a681add74c93a61-cgu.270.rcgu.o)
 .debug_ranges  0x000000000000d458       0x18 ./gen/../tecsrust_uart_led_sample/target/armv7a-none-eabi/release/libitron.a(compiler_builtins-70f608aea3cde50d.compiler_builtins.5a681add74c93a61-cgu.283.rcgu.o)
 .debug_ranges  0x000000000000d470       0x78 ./gen/../tecsrust_uart_led_sample/target/armv7a-none-eabi/release/libitron.a(compiler_builtins-70f608aea3cde50d.compiler_builtins.5a681add74c93a61-cgu.300.rcgu.o)
 .debug_ranges  0x000000000000d4e8       0x20 ./gen/../tecsrust_uart_led_sample/target/armv7a-none-eabi/release/libitron.a(compiler_builtins-70f608aea3cde50d.compiler_builtins.5a681add74c93a61-cgu.310.rcgu.o)
 .debug_ranges  0x000000000000d508       0x18 ./gen/../tecsrust_uart_led_sample/target/armv7a-none-eabi/release/libitron.a(compiler_builtins-70f608aea3cde50d.compiler_builtins.5a681add74c93a61-cgu.361.rcgu.o)
 .debug_ranges  0x000000000000d520       0x58 ./gen/../tecsrust_uart_led_sample/target/armv7a-none-eabi/release/libitron.a(compiler_builtins-70f608aea3cde50d.compiler_builtins.5a681add74c93a61-cgu.365.rcgu.o)
 .debug_ranges  0x000000000000d578       0x30 ./gen/../tecsrust_uart_led_sample/target/armv7a-none-eabi/release/libitron.a(compiler_builtins-70f608aea3cde50d.compiler_builtins.5a681add74c93a61-cgu.375.rcgu.o)
 .debug_ranges  0x000000000000d5a8       0x30 ./gen/../tecsrust_uart_led_sample/target/armv7a-none-eabi/release/libitron.a(compiler_builtins-70f608aea3cde50d.compiler_builtins.5a681add74c93a61-cgu.395.rcgu.o)
 .debug_ranges  0x000000000000d5d8      0x9f8 ./gen/../tecsrust_uart_led_sample/target/armv7a-none-eabi/release/libitron.a(compiler_builtins-70f608aea3cde50d.compiler_builtins.5a681add74c93a61-cgu.000.rcgu.o)
 .debug_ranges  0x000000000000dfd0      0x588 ./gen/../tecsrust_uart_led_sample/target/armv7a-none-eabi/release/libitron.a(compiler_builtins-70f608aea3cde50d.compiler_builtins.5a681add74c93a61-cgu.004.rcgu.o)
 .debug_ranges  0x000000000000e558      0x3a8 ./gen/../tecsrust_uart_led_sample/target/armv7a-none-eabi/release/libitron.a(compiler_builtins-70f608aea3cde50d.compiler_builtins.5a681add74c93a61-cgu.009.rcgu.o)
 .debug_ranges  0x000000000000e900      0x1e0 ./gen/../tecsrust_uart_led_sample/target/armv7a-none-eabi/release/libitron.a(compiler_builtins-70f608aea3cde50d.compiler_builtins.5a681add74c93a61-cgu.019.rcgu.o)
 .debug_ranges  0x000000000000eae0       0x18 ./gen/../tecsrust_uart_led_sample/target/armv7a-none-eabi/release/libitron.a(63f8a0b8a638da8c-aeabi_div0.o)
 .debug_ranges  0x000000000000eaf8      0x2d8 ./gen/../tecsrust_uart_led_sample/target/armv7a-none-eabi/release/libitron.a(compiler_builtins-70f608aea3cde50d.compiler_builtins.5a681add74c93a61-cgu.010.rcgu.o)
 .debug_ranges  0x000000000000edd0       0x30 ./libkernel.a(target_kernel_impl.o)
 .debug_ranges  0x000000000000ee00       0x48 ./libkernel.a(mpcore_kernel_impl.o)
 .debug_ranges  0x000000000000ee48      0x338 ./libkernel.a(gic_kernel_impl.o)
 .debug_ranges  0x000000000000f180      0x2f0 ./libkernel.a(pl310.o)
 .debug_ranges  0x000000000000f470       0xa0 ./libkernel.a(mpcore_timer.o)
 .debug_ranges  0x000000000000f510      0x128 ./libkernel.a(core_kernel_impl.o)
 .debug_ranges  0x000000000000f638       0x18 ./libkernel.a(arm.o)
 .debug_ranges  0x000000000000f650      0x1a0 ./libkernel.a(startup.o)
 .debug_ranges  0x000000000000f7f0      0x468 ./libkernel.a(task.o)
 .debug_ranges  0x000000000000fc58      0x1e8 ./libkernel.a(wait.o)
 .debug_ranges  0x000000000000fe40      0x6e8 ./libkernel.a(time_event.o)
 .debug_ranges  0x0000000000010528      0x568 ./libkernel.a(task_sync.o)
 .debug_ranges  0x0000000000010a90      0x408 ./libkernel.a(semaphore.o)
 .debug_ranges  0x0000000000010e98      0x8a0 ./libkernel.a(dataqueue.o)
 .debug_ranges  0x0000000000011738      0x578 ./libkernel.a(mutex.o)
 .debug_ranges  0x0000000000011cb0      0x1f0 ./libkernel.a(spin_lock.o)
 .debug_ranges  0x0000000000011ea0      0x7b8 ./libkernel.a(sys_manage.o)
 .debug_ranges  0x0000000000012658      0x338 ./libkernel.a(interrupt.o)
 .debug_ranges  0x0000000000012990      0x420 ./libkernel.a(task_term.o)
