Archive member included to satisfy reference by file (symbol)

./gen/../rust_opt/target/armv7a-none-eabi/release/libitron.a(itron-280b1142b498aad8.itron.fbcde098eeebdde0-cgu.0.rcgu.o)
                              objs/kernel_cfg.o (start1)
./gen/../rust_opt/target/armv7a-none-eabi/release/libitron.a(itron-fbcb73bf0b635dd5.itron.68e737fdf62a80e5-cgu.0.rcgu.o)
                              ./gen/../rust_opt/target/armv7a-none-eabi/release/libitron.a(itron-280b1142b498aad8.itron.fbcde098eeebdde0-cgu.0.rcgu.o) (<itron::error::ErrorCode as core::fmt::Debug>::fmt)
./gen/../rust_opt/target/armv7a-none-eabi/release/libitron.a(core-d049573bc16596f9.core.5587a85061e7188a-cgu.0.rcgu.o)
                              ./gen/../rust_opt/target/armv7a-none-eabi/release/libitron.a(itron-fbcb73bf0b635dd5.itron.68e737fdf62a80e5-cgu.0.rcgu.o) (core::fmt::write)
./gen/../rust_opt/target/armv7a-none-eabi/release/libitron.a(compiler_builtins-70f608aea3cde50d.compiler_builtins.5a681add74c93a61-cgu.162.rcgu.o)
                              ./gen/../rust_opt/target/armv7a-none-eabi/release/libitron.a(core-d049573bc16596f9.core.5587a85061e7188a-cgu.0.rcgu.o) (__aeabi_memset)
./gen/../rust_opt/target/armv7a-none-eabi/release/libitron.a(compiler_builtins-70f608aea3cde50d.compiler_builtins.5a681add74c93a61-cgu.174.rcgu.o)
                              ./gen/../rust_opt/target/armv7a-none-eabi/release/libitron.a(core-d049573bc16596f9.core.5587a85061e7188a-cgu.0.rcgu.o) (__aeabi_memcpy4)
./gen/../rust_opt/target/armv7a-none-eabi/release/libitron.a(compiler_builtins-70f608aea3cde50d.compiler_builtins.5a681add74c93a61-cgu.178.rcgu.o)
                              ./gen/../rust_opt/target/armv7a-none-eabi/release/libitron.a(core-d049573bc16596f9.core.5587a85061e7188a-cgu.0.rcgu.o) (__aeabi_dmul)
./gen/../rust_opt/target/armv7a-none-eabi/release/libitron.a(compiler_builtins-70f608aea3cde50d.compiler_builtins.5a681add74c93a61-cgu.180.rcgu.o)
                              ./gen/../rust_opt/target/armv7a-none-eabi/release/libitron.a(core-d049573bc16596f9.core.5587a85061e7188a-cgu.0.rcgu.o) (__aeabi_fcmplt)
./gen/../rust_opt/target/armv7a-none-eabi/release/libitron.a(compiler_builtins-70f608aea3cde50d.compiler_builtins.5a681add74c93a61-cgu.201.rcgu.o)
                              ./gen/../rust_opt/target/armv7a-none-eabi/release/libitron.a(core-d049573bc16596f9.core.5587a85061e7188a-cgu.0.rcgu.o) (__aeabi_memclr4)
./gen/../rust_opt/target/armv7a-none-eabi/release/libitron.a(compiler_builtins-70f608aea3cde50d.compiler_builtins.5a681add74c93a61-cgu.206.rcgu.o)
                              ./gen/../rust_opt/target/armv7a-none-eabi/release/libitron.a(core-d049573bc16596f9.core.5587a85061e7188a-cgu.0.rcgu.o) (__aeabi_fcmpge)
./gen/../rust_opt/target/armv7a-none-eabi/release/libitron.a(compiler_builtins-70f608aea3cde50d.compiler_builtins.5a681add74c93a61-cgu.210.rcgu.o)
                              ./gen/../rust_opt/target/armv7a-none-eabi/release/libitron.a(core-d049573bc16596f9.core.5587a85061e7188a-cgu.0.rcgu.o) (__aeabi_f2h)
./gen/../rust_opt/target/armv7a-none-eabi/release/libitron.a(compiler_builtins-70f608aea3cde50d.compiler_builtins.5a681add74c93a61-cgu.223.rcgu.o)
                              ./gen/../rust_opt/target/armv7a-none-eabi/release/libitron.a(core-d049573bc16596f9.core.5587a85061e7188a-cgu.0.rcgu.o) (__aeabi_memcpy)
./gen/../rust_opt/target/armv7a-none-eabi/release/libitron.a(compiler_builtins-70f608aea3cde50d.compiler_builtins.5a681add74c93a61-cgu.253.rcgu.o)
                              ./gen/../rust_opt/target/armv7a-none-eabi/release/libitron.a(core-d049573bc16596f9.core.5587a85061e7188a-cgu.0.rcgu.o) (__aeabi_memcpy8)
./gen/../rust_opt/target/armv7a-none-eabi/release/libitron.a(compiler_builtins-70f608aea3cde50d.compiler_builtins.5a681add74c93a61-cgu.261.rcgu.o)
                              ./gen/../rust_opt/target/armv7a-none-eabi/release/libitron.a(core-d049573bc16596f9.core.5587a85061e7188a-cgu.0.rcgu.o) (__aeabi_dcmplt)
./gen/../rust_opt/target/armv7a-none-eabi/release/libitron.a(compiler_builtins-70f608aea3cde50d.compiler_builtins.5a681add74c93a61-cgu.263.rcgu.o)
                              ./gen/../rust_opt/target/armv7a-none-eabi/release/libitron.a(core-d049573bc16596f9.core.5587a85061e7188a-cgu.0.rcgu.o) (__aeabi_ddiv)
./gen/../rust_opt/target/armv7a-none-eabi/release/libitron.a(compiler_builtins-70f608aea3cde50d.compiler_builtins.5a681add74c93a61-cgu.270.rcgu.o)
                              ./gen/../rust_opt/target/armv7a-none-eabi/release/libitron.a(core-d049573bc16596f9.core.5587a85061e7188a-cgu.0.rcgu.o) (__aeabi_ul2d)
./gen/../rust_opt/target/armv7a-none-eabi/release/libitron.a(compiler_builtins-70f608aea3cde50d.compiler_builtins.5a681add74c93a61-cgu.283.rcgu.o)
                              ./gen/../rust_opt/target/armv7a-none-eabi/release/libitron.a(core-d049573bc16596f9.core.5587a85061e7188a-cgu.0.rcgu.o) (__aeabi_fcmpeq)
./gen/../rust_opt/target/armv7a-none-eabi/release/libitron.a(compiler_builtins-70f608aea3cde50d.compiler_builtins.5a681add74c93a61-cgu.287.rcgu.o)
                              ./gen/../rust_opt/target/armv7a-none-eabi/release/libitron.a(core-d049573bc16596f9.core.5587a85061e7188a-cgu.0.rcgu.o) (__aeabi_dcmpeq)
./gen/../rust_opt/target/armv7a-none-eabi/release/libitron.a(compiler_builtins-70f608aea3cde50d.compiler_builtins.5a681add74c93a61-cgu.300.rcgu.o)
                              ./gen/../rust_opt/target/armv7a-none-eabi/release/libitron.a(core-d049573bc16596f9.core.5587a85061e7188a-cgu.0.rcgu.o) (__aeabi_h2f)
./gen/../rust_opt/target/armv7a-none-eabi/release/libitron.a(compiler_builtins-70f608aea3cde50d.compiler_builtins.5a681add74c93a61-cgu.310.rcgu.o)
                              ./gen/../rust_opt/target/armv7a-none-eabi/release/libitron.a(core-d049573bc16596f9.core.5587a85061e7188a-cgu.0.rcgu.o) (memcmp)
./gen/../rust_opt/target/armv7a-none-eabi/release/libitron.a(compiler_builtins-70f608aea3cde50d.compiler_builtins.5a681add74c93a61-cgu.355.rcgu.o)
                              ./gen/../rust_opt/target/armv7a-none-eabi/release/libitron.a(core-d049573bc16596f9.core.5587a85061e7188a-cgu.0.rcgu.o) (__aeabi_fdiv)
./gen/../rust_opt/target/armv7a-none-eabi/release/libitron.a(compiler_builtins-70f608aea3cde50d.compiler_builtins.5a681add74c93a61-cgu.361.rcgu.o)
                              ./gen/../rust_opt/target/armv7a-none-eabi/release/libitron.a(core-d049573bc16596f9.core.5587a85061e7188a-cgu.0.rcgu.o) (__aeabi_dcmpge)
./gen/../rust_opt/target/armv7a-none-eabi/release/libitron.a(compiler_builtins-70f608aea3cde50d.compiler_builtins.5a681add74c93a61-cgu.365.rcgu.o)
                              ./gen/../rust_opt/target/armv7a-none-eabi/release/libitron.a(core-d049573bc16596f9.core.5587a85061e7188a-cgu.0.rcgu.o) (__aeabi_ul2f)
./gen/../rust_opt/target/armv7a-none-eabi/release/libitron.a(compiler_builtins-70f608aea3cde50d.compiler_builtins.5a681add74c93a61-cgu.375.rcgu.o)
                              ./gen/../rust_opt/target/armv7a-none-eabi/release/libitron.a(core-d049573bc16596f9.core.5587a85061e7188a-cgu.0.rcgu.o) (__aeabi_memclr8)
./gen/../rust_opt/target/armv7a-none-eabi/release/libitron.a(compiler_builtins-70f608aea3cde50d.compiler_builtins.5a681add74c93a61-cgu.393.rcgu.o)
                              ./gen/../rust_opt/target/armv7a-none-eabi/release/libitron.a(core-d049573bc16596f9.core.5587a85061e7188a-cgu.0.rcgu.o) (__aeabi_fmul)
./gen/../rust_opt/target/armv7a-none-eabi/release/libitron.a(compiler_builtins-70f608aea3cde50d.compiler_builtins.5a681add74c93a61-cgu.395.rcgu.o)
                              ./gen/../rust_opt/target/armv7a-none-eabi/release/libitron.a(core-d049573bc16596f9.core.5587a85061e7188a-cgu.0.rcgu.o) (__aeabi_memclr)
./gen/../rust_opt/target/armv7a-none-eabi/release/libitron.a(compiler_builtins-70f608aea3cde50d.compiler_builtins.5a681add74c93a61-cgu.410.rcgu.o)
                              objs/tSysLog.o (__aeabi_uldivmod)
./gen/../rust_opt/target/armv7a-none-eabi/release/libitron.a(compiler_builtins-70f608aea3cde50d.compiler_builtins.5a681add74c93a61-cgu.411.rcgu.o)
                              objs/log_output.o (__aeabi_uidivmod)
./gen/../rust_opt/target/armv7a-none-eabi/release/libitron.a(63f8a0b8a638da8c-udivmodsi4.o)
                              ./gen/../rust_opt/target/armv7a-none-eabi/release/libitron.a(compiler_builtins-70f608aea3cde50d.compiler_builtins.5a681add74c93a61-cgu.411.rcgu.o) (__udivmodsi4)
./gen/../rust_opt/target/armv7a-none-eabi/release/libitron.a(63f8a0b8a638da8c-udivsi3.o)
                              ./gen/../rust_opt/target/armv7a-none-eabi/release/libitron.a(core-d049573bc16596f9.core.5587a85061e7188a-cgu.0.rcgu.o) (__aeabi_uidiv)
./gen/../rust_opt/target/armv7a-none-eabi/release/libitron.a(compiler_builtins-70f608aea3cde50d.compiler_builtins.5a681add74c93a61-cgu.000.rcgu.o)
                              ./gen/../rust_opt/target/armv7a-none-eabi/release/libitron.a(compiler_builtins-70f608aea3cde50d.compiler_builtins.5a681add74c93a61-cgu.355.rcgu.o) (compiler_builtins::float::div::__divsf3)
./gen/../rust_opt/target/armv7a-none-eabi/release/libitron.a(compiler_builtins-70f608aea3cde50d.compiler_builtins.5a681add74c93a61-cgu.004.rcgu.o)
                              ./gen/../rust_opt/target/armv7a-none-eabi/release/libitron.a(compiler_builtins-70f608aea3cde50d.compiler_builtins.5a681add74c93a61-cgu.393.rcgu.o) (compiler_builtins::float::mul::__mulsf3)
./gen/../rust_opt/target/armv7a-none-eabi/release/libitron.a(compiler_builtins-70f608aea3cde50d.compiler_builtins.5a681add74c93a61-cgu.009.rcgu.o)
                              ./gen/../rust_opt/target/armv7a-none-eabi/release/libitron.a(compiler_builtins-70f608aea3cde50d.compiler_builtins.5a681add74c93a61-cgu.174.rcgu.o) (compiler_builtins::mem::memcpy)
./gen/../rust_opt/target/armv7a-none-eabi/release/libitron.a(compiler_builtins-70f608aea3cde50d.compiler_builtins.5a681add74c93a61-cgu.019.rcgu.o)
                              ./gen/../rust_opt/target/armv7a-none-eabi/release/libitron.a(compiler_builtins-70f608aea3cde50d.compiler_builtins.5a681add74c93a61-cgu.000.rcgu.o) (compiler_builtins::int::big::<impl compiler_builtins::int::traits::HInt for u128>::zero_widen_mul)
./gen/../rust_opt/target/armv7a-none-eabi/release/libitron.a(compiler_builtins-70f608aea3cde50d.compiler_builtins.5a681add74c93a61-cgu.347.rcgu.o)
                              ./gen/../rust_opt/target/armv7a-none-eabi/release/libitron.a(compiler_builtins-70f608aea3cde50d.compiler_builtins.5a681add74c93a61-cgu.410.rcgu.o) (__udivmoddi4)
./gen/../rust_opt/target/armv7a-none-eabi/release/libitron.a(63f8a0b8a638da8c-aeabi_div0.o)
                              ./gen/../rust_opt/target/armv7a-none-eabi/release/libitron.a(63f8a0b8a638da8c-udivmodsi4.o) (__aeabi_idiv0)
./gen/../rust_opt/target/armv7a-none-eabi/release/libitron.a(compiler_builtins-70f608aea3cde50d.compiler_builtins.5a681add74c93a61-cgu.010.rcgu.o)
                              ./gen/../rust_opt/target/armv7a-none-eabi/release/libitron.a(compiler_builtins-70f608aea3cde50d.compiler_builtins.5a681add74c93a61-cgu.347.rcgu.o) (compiler_builtins::int::specialized_div_rem::u64_div_rem)
./libkernel.a(target_kernel_impl.o)
                              objs/start.o (hardware_init_hook)
./libkernel.a(chip_kernel_impl.o)
                              ./libkernel.a(target_kernel_impl.o) (_kernel_chip_initialize)
./libkernel.a(mpcore_kernel_impl.o)
                              ./libkernel.a(target_kernel_impl.o) (_kernel_mpcore_mprc_initialize)
./libkernel.a(gic_kernel_impl.o)
                              ./libkernel.a(mpcore_kernel_impl.o) (_kernel_gicc_initialize)
./libkernel.a(pl310.o)        ./libkernel.a(chip_kernel_impl.o) (_kernel_pl310_initialize)
./libkernel.a(mpcore_timer.o)
                              objs/kernel_cfg.o (_kernel_target_hrt_initialize)
./libkernel.a(core_kernel_impl.o)
                              ./libkernel.a(mpcore_kernel_impl.o) (_kernel_core_initialize)
./libkernel.a(arm.o)          ./libkernel.a(mpcore_kernel_impl.o) (arm_enable_icache)
./libkernel.a(startup.o)      ./libkernel.a(chip_kernel_impl.o) (_kernel_barrier_sync)
./libkernel.a(task.o)         objs/kernel_cfg.o (_kernel_initialize_task)
./libkernel.a(taskhook.o)     ./libkernel.a(task.o) (_kernel_mtxhook_release_all)
./libkernel.a(wait.o)         ./libkernel.a(task.o) (_kernel_wait_dequeue_wobj)
./libkernel.a(time_event.o)   ./libkernel.a(startup.o) (_kernel_initialize_tmevt)
./libkernel.a(task_sync.o)    objs/tLogTaskMain.o (dly_tsk)
./libkernel.a(semaphore.o)    objs/kernel_cfg.o (_kernel_initialize_semaphore)
./libkernel.a(spin_lock.o)    ./libkernel.a(startup.o) (_kernel_force_unlock_spin)
./libkernel.a(sys_manage.o)   ./gen/../rust_opt/target/armv7a-none-eabi/release/libitron.a(itron-fbcb73bf0b635dd5.itron.68e737fdf62a80e5-cgu.0.rcgu.o) (get_tid)
./libkernel.a(interrupt.o)    objs/tSerialPortMain.o (dis_int)
./libkernel.a(core_support.o)
                              ./libkernel.a(target_kernel_impl.o) (vector_table)
./libkernel.a(task_term.o)    ./libkernel.a(core_support.o) (ext_tsk)
./libkernel.a(gic_support.o)  ./libkernel.a(core_support.o) (_kernel_irc_begin_int)
/usr/lib/gcc/arm-none-eabi/10.3.1/../../../arm-none-eabi/lib/thumb/v7-a/nofp/libc.a(lib_a-memset.o)
                              ./libkernel.a(core_kernel_impl.o) (memset)

Discarded input sections

 .llvmbc        0x0000000000000000   0x146cc0 ./gen/../rust_opt/target/armv7a-none-eabi/release/libitron.a(core-d049573bc16596f9.core.5587a85061e7188a-cgu.0.rcgu.o)
 .llvmcmd       0x0000000000000000        0x0 ./gen/../rust_opt/target/armv7a-none-eabi/release/libitron.a(core-d049573bc16596f9.core.5587a85061e7188a-cgu.0.rcgu.o)
 .llvmbc        0x0000000000000000      0xb6c ./gen/../rust_opt/target/armv7a-none-eabi/release/libitron.a(compiler_builtins-70f608aea3cde50d.compiler_builtins.5a681add74c93a61-cgu.162.rcgu.o)
 .llvmcmd       0x0000000000000000        0x0 ./gen/../rust_opt/target/armv7a-none-eabi/release/libitron.a(compiler_builtins-70f608aea3cde50d.compiler_builtins.5a681add74c93a61-cgu.162.rcgu.o)
 .llvmbc        0x0000000000000000      0xb70 ./gen/../rust_opt/target/armv7a-none-eabi/release/libitron.a(compiler_builtins-70f608aea3cde50d.compiler_builtins.5a681add74c93a61-cgu.174.rcgu.o)
 .llvmcmd       0x0000000000000000        0x0 ./gen/../rust_opt/target/armv7a-none-eabi/release/libitron.a(compiler_builtins-70f608aea3cde50d.compiler_builtins.5a681add74c93a61-cgu.174.rcgu.o)
 .llvmbc        0x0000000000000000      0xb70 ./gen/../rust_opt/target/armv7a-none-eabi/release/libitron.a(compiler_builtins-70f608aea3cde50d.compiler_builtins.5a681add74c93a61-cgu.178.rcgu.o)
 .llvmcmd       0x0000000000000000        0x0 ./gen/../rust_opt/target/armv7a-none-eabi/release/libitron.a(compiler_builtins-70f608aea3cde50d.compiler_builtins.5a681add74c93a61-cgu.178.rcgu.o)
 .llvmbc        0x0000000000000000      0xb78 ./gen/../rust_opt/target/armv7a-none-eabi/release/libitron.a(compiler_builtins-70f608aea3cde50d.compiler_builtins.5a681add74c93a61-cgu.180.rcgu.o)
 .llvmcmd       0x0000000000000000        0x0 ./gen/../rust_opt/target/armv7a-none-eabi/release/libitron.a(compiler_builtins-70f608aea3cde50d.compiler_builtins.5a681add74c93a61-cgu.180.rcgu.o)
 .llvmbc        0x0000000000000000      0xb64 ./gen/../rust_opt/target/armv7a-none-eabi/release/libitron.a(compiler_builtins-70f608aea3cde50d.compiler_builtins.5a681add74c93a61-cgu.201.rcgu.o)
 .llvmcmd       0x0000000000000000        0x0 ./gen/../rust_opt/target/armv7a-none-eabi/release/libitron.a(compiler_builtins-70f608aea3cde50d.compiler_builtins.5a681add74c93a61-cgu.201.rcgu.o)
 .llvmbc        0x0000000000000000      0xb78 ./gen/../rust_opt/target/armv7a-none-eabi/release/libitron.a(compiler_builtins-70f608aea3cde50d.compiler_builtins.5a681add74c93a61-cgu.206.rcgu.o)
 .llvmcmd       0x0000000000000000        0x0 ./gen/../rust_opt/target/armv7a-none-eabi/release/libitron.a(compiler_builtins-70f608aea3cde50d.compiler_builtins.5a681add74c93a61-cgu.206.rcgu.o)
 .llvmbc        0x0000000000000000      0xc20 ./gen/../rust_opt/target/armv7a-none-eabi/release/libitron.a(compiler_builtins-70f608aea3cde50d.compiler_builtins.5a681add74c93a61-cgu.210.rcgu.o)
 .llvmcmd       0x0000000000000000        0x0 ./gen/../rust_opt/target/armv7a-none-eabi/release/libitron.a(compiler_builtins-70f608aea3cde50d.compiler_builtins.5a681add74c93a61-cgu.210.rcgu.o)
 .llvmbc        0x0000000000000000      0xb6c ./gen/../rust_opt/target/armv7a-none-eabi/release/libitron.a(compiler_builtins-70f608aea3cde50d.compiler_builtins.5a681add74c93a61-cgu.223.rcgu.o)
 .llvmcmd       0x0000000000000000        0x0 ./gen/../rust_opt/target/armv7a-none-eabi/release/libitron.a(compiler_builtins-70f608aea3cde50d.compiler_builtins.5a681add74c93a61-cgu.223.rcgu.o)
 .llvmbc        0x0000000000000000      0xb70 ./gen/../rust_opt/target/armv7a-none-eabi/release/libitron.a(compiler_builtins-70f608aea3cde50d.compiler_builtins.5a681add74c93a61-cgu.253.rcgu.o)
 .llvmcmd       0x0000000000000000        0x0 ./gen/../rust_opt/target/armv7a-none-eabi/release/libitron.a(compiler_builtins-70f608aea3cde50d.compiler_builtins.5a681add74c93a61-cgu.253.rcgu.o)
 .llvmbc        0x0000000000000000      0xb7c ./gen/../rust_opt/target/armv7a-none-eabi/release/libitron.a(compiler_builtins-70f608aea3cde50d.compiler_builtins.5a681add74c93a61-cgu.261.rcgu.o)
 .llvmcmd       0x0000000000000000        0x0 ./gen/../rust_opt/target/armv7a-none-eabi/release/libitron.a(compiler_builtins-70f608aea3cde50d.compiler_builtins.5a681add74c93a61-cgu.261.rcgu.o)
 .llvmbc        0x0000000000000000      0xb74 ./gen/../rust_opt/target/armv7a-none-eabi/release/libitron.a(compiler_builtins-70f608aea3cde50d.compiler_builtins.5a681add74c93a61-cgu.263.rcgu.o)
 .llvmcmd       0x0000000000000000        0x0 ./gen/../rust_opt/target/armv7a-none-eabi/release/libitron.a(compiler_builtins-70f608aea3cde50d.compiler_builtins.5a681add74c93a61-cgu.263.rcgu.o)
 .llvmbc        0x0000000000000000      0xb78 ./gen/../rust_opt/target/armv7a-none-eabi/release/libitron.a(compiler_builtins-70f608aea3cde50d.compiler_builtins.5a681add74c93a61-cgu.270.rcgu.o)
 .llvmcmd       0x0000000000000000        0x0 ./gen/../rust_opt/target/armv7a-none-eabi/release/libitron.a(compiler_builtins-70f608aea3cde50d.compiler_builtins.5a681add74c93a61-cgu.270.rcgu.o)
 .llvmbc        0x0000000000000000      0xb78 ./gen/../rust_opt/target/armv7a-none-eabi/release/libitron.a(compiler_builtins-70f608aea3cde50d.compiler_builtins.5a681add74c93a61-cgu.283.rcgu.o)
 .llvmcmd       0x0000000000000000        0x0 ./gen/../rust_opt/target/armv7a-none-eabi/release/libitron.a(compiler_builtins-70f608aea3cde50d.compiler_builtins.5a681add74c93a61-cgu.283.rcgu.o)
 .llvmbc        0x0000000000000000      0xb78 ./gen/../rust_opt/target/armv7a-none-eabi/release/libitron.a(compiler_builtins-70f608aea3cde50d.compiler_builtins.5a681add74c93a61-cgu.287.rcgu.o)
 .llvmcmd       0x0000000000000000        0x0 ./gen/../rust_opt/target/armv7a-none-eabi/release/libitron.a(compiler_builtins-70f608aea3cde50d.compiler_builtins.5a681add74c93a61-cgu.287.rcgu.o)
 .llvmbc        0x0000000000000000      0xc28 ./gen/../rust_opt/target/armv7a-none-eabi/release/libitron.a(compiler_builtins-70f608aea3cde50d.compiler_builtins.5a681add74c93a61-cgu.300.rcgu.o)
 .llvmcmd       0x0000000000000000        0x0 ./gen/../rust_opt/target/armv7a-none-eabi/release/libitron.a(compiler_builtins-70f608aea3cde50d.compiler_builtins.5a681add74c93a61-cgu.300.rcgu.o)
 .llvmbc        0x0000000000000000      0xb58 ./gen/../rust_opt/target/armv7a-none-eabi/release/libitron.a(compiler_builtins-70f608aea3cde50d.compiler_builtins.5a681add74c93a61-cgu.310.rcgu.o)
 .llvmcmd       0x0000000000000000        0x0 ./gen/../rust_opt/target/armv7a-none-eabi/release/libitron.a(compiler_builtins-70f608aea3cde50d.compiler_builtins.5a681add74c93a61-cgu.310.rcgu.o)
 .llvmbc        0x0000000000000000      0xb70 ./gen/../rust_opt/target/armv7a-none-eabi/release/libitron.a(compiler_builtins-70f608aea3cde50d.compiler_builtins.5a681add74c93a61-cgu.355.rcgu.o)
 .llvmcmd       0x0000000000000000        0x0 ./gen/../rust_opt/target/armv7a-none-eabi/release/libitron.a(compiler_builtins-70f608aea3cde50d.compiler_builtins.5a681add74c93a61-cgu.355.rcgu.o)
 .llvmbc        0x0000000000000000      0xb78 ./gen/../rust_opt/target/armv7a-none-eabi/release/libitron.a(compiler_builtins-70f608aea3cde50d.compiler_builtins.5a681add74c93a61-cgu.361.rcgu.o)
 .llvmcmd       0x0000000000000000        0x0 ./gen/../rust_opt/target/armv7a-none-eabi/release/libitron.a(compiler_builtins-70f608aea3cde50d.compiler_builtins.5a681add74c93a61-cgu.361.rcgu.o)
 .llvmbc        0x0000000000000000      0xb7c ./gen/../rust_opt/target/armv7a-none-eabi/release/libitron.a(compiler_builtins-70f608aea3cde50d.compiler_builtins.5a681add74c93a61-cgu.365.rcgu.o)
 .llvmcmd       0x0000000000000000        0x0 ./gen/../rust_opt/target/armv7a-none-eabi/release/libitron.a(compiler_builtins-70f608aea3cde50d.compiler_builtins.5a681add74c93a61-cgu.365.rcgu.o)
 .llvmbc        0x0000000000000000      0xb64 ./gen/../rust_opt/target/armv7a-none-eabi/release/libitron.a(compiler_builtins-70f608aea3cde50d.compiler_builtins.5a681add74c93a61-cgu.375.rcgu.o)
 .llvmcmd       0x0000000000000000        0x0 ./gen/../rust_opt/target/armv7a-none-eabi/release/libitron.a(compiler_builtins-70f608aea3cde50d.compiler_builtins.5a681add74c93a61-cgu.375.rcgu.o)
 .llvmbc        0x0000000000000000      0xb74 ./gen/../rust_opt/target/armv7a-none-eabi/release/libitron.a(compiler_builtins-70f608aea3cde50d.compiler_builtins.5a681add74c93a61-cgu.393.rcgu.o)
 .llvmcmd       0x0000000000000000        0x0 ./gen/../rust_opt/target/armv7a-none-eabi/release/libitron.a(compiler_builtins-70f608aea3cde50d.compiler_builtins.5a681add74c93a61-cgu.393.rcgu.o)
 .llvmbc        0x0000000000000000      0xb68 ./gen/../rust_opt/target/armv7a-none-eabi/release/libitron.a(compiler_builtins-70f608aea3cde50d.compiler_builtins.5a681add74c93a61-cgu.395.rcgu.o)
 .llvmcmd       0x0000000000000000        0x0 ./gen/../rust_opt/target/armv7a-none-eabi/release/libitron.a(compiler_builtins-70f608aea3cde50d.compiler_builtins.5a681add74c93a61-cgu.395.rcgu.o)
 .llvmbc        0x0000000000000000      0xce4 ./gen/../rust_opt/target/armv7a-none-eabi/release/libitron.a(compiler_builtins-70f608aea3cde50d.compiler_builtins.5a681add74c93a61-cgu.410.rcgu.o)
 .llvmcmd       0x0000000000000000        0x0 ./gen/../rust_opt/target/armv7a-none-eabi/release/libitron.a(compiler_builtins-70f608aea3cde50d.compiler_builtins.5a681add74c93a61-cgu.410.rcgu.o)
 .llvmbc        0x0000000000000000      0xca0 ./gen/../rust_opt/target/armv7a-none-eabi/release/libitron.a(compiler_builtins-70f608aea3cde50d.compiler_builtins.5a681add74c93a61-cgu.411.rcgu.o)
 .llvmcmd       0x0000000000000000        0x0 ./gen/../rust_opt/target/armv7a-none-eabi/release/libitron.a(compiler_builtins-70f608aea3cde50d.compiler_builtins.5a681add74c93a61-cgu.411.rcgu.o)
 .llvmbc        0x0000000000000000     0x8580 ./gen/../rust_opt/target/armv7a-none-eabi/release/libitron.a(compiler_builtins-70f608aea3cde50d.compiler_builtins.5a681add74c93a61-cgu.000.rcgu.o)
 .llvmcmd       0x0000000000000000        0x0 ./gen/../rust_opt/target/armv7a-none-eabi/release/libitron.a(compiler_builtins-70f608aea3cde50d.compiler_builtins.5a681add74c93a61-cgu.000.rcgu.o)
 .llvmbc        0x0000000000000000     0x5ee0 ./gen/../rust_opt/target/armv7a-none-eabi/release/libitron.a(compiler_builtins-70f608aea3cde50d.compiler_builtins.5a681add74c93a61-cgu.004.rcgu.o)
 .llvmcmd       0x0000000000000000        0x0 ./gen/../rust_opt/target/armv7a-none-eabi/release/libitron.a(compiler_builtins-70f608aea3cde50d.compiler_builtins.5a681add74c93a61-cgu.004.rcgu.o)
 .llvmbc        0x0000000000000000     0x4cc4 ./gen/../rust_opt/target/armv7a-none-eabi/release/libitron.a(compiler_builtins-70f608aea3cde50d.compiler_builtins.5a681add74c93a61-cgu.009.rcgu.o)
 .llvmcmd       0x0000000000000000        0x0 ./gen/../rust_opt/target/armv7a-none-eabi/release/libitron.a(compiler_builtins-70f608aea3cde50d.compiler_builtins.5a681add74c93a61-cgu.009.rcgu.o)
 .llvmbc        0x0000000000000000     0x3f0c ./gen/../rust_opt/target/armv7a-none-eabi/release/libitron.a(compiler_builtins-70f608aea3cde50d.compiler_builtins.5a681add74c93a61-cgu.019.rcgu.o)
 .llvmcmd       0x0000000000000000        0x0 ./gen/../rust_opt/target/armv7a-none-eabi/release/libitron.a(compiler_builtins-70f608aea3cde50d.compiler_builtins.5a681add74c93a61-cgu.019.rcgu.o)
 .llvmbc        0x0000000000000000      0xb84 ./gen/../rust_opt/target/armv7a-none-eabi/release/libitron.a(compiler_builtins-70f608aea3cde50d.compiler_builtins.5a681add74c93a61-cgu.347.rcgu.o)
 .llvmcmd       0x0000000000000000        0x0 ./gen/../rust_opt/target/armv7a-none-eabi/release/libitron.a(compiler_builtins-70f608aea3cde50d.compiler_builtins.5a681add74c93a61-cgu.347.rcgu.o)
 .llvmbc        0x0000000000000000     0x28b8 ./gen/../rust_opt/target/armv7a-none-eabi/release/libitron.a(compiler_builtins-70f608aea3cde50d.compiler_builtins.5a681add74c93a61-cgu.010.rcgu.o)
 .llvmcmd       0x0000000000000000        0x0 ./gen/../rust_opt/target/armv7a-none-eabi/release/libitron.a(compiler_builtins-70f608aea3cde50d.compiler_builtins.5a681add74c93a61-cgu.010.rcgu.o)

Memory Configuration

Name             Origin             Length             Attributes
RAM              0x0000000000100000 0x000000001ff00000 xrw
*default*        0x0000000000000000 0xffffffffffffffff

Linker script and memory map

                [!provide]                        PROVIDE (hardware_init_hook = 0x0)
                0x0000000000000000                PROVIDE (software_init_hook = 0x0)
                0x0000000000000000                PROVIDE (software_term_hook = 0x0)

.text           0x0000000000100000    0x31010
                0x0000000000100000                __start_text = .
 *(.vector)
 .vector        0x0000000000100000       0x3c ./libkernel.a(core_support.o)
                0x0000000000100000                vector_table
                0x0000000000100020                vector_ref_table
 *(.text)
 .text          0x000000000010003c      0x11c objs/start.o
                0x000000000010003c                start
 .text          0x0000000000100158      0x42c objs/log_output.o
                0x0000000000100260                syslog_printf
                0x00000000001004f8                syslog_print
                0x000000000010054c                syslog_lostmsg
 .text          0x0000000000100584      0x2a8 objs/vasyslog.o
                0x0000000000100584                tt_syslog
 .text          0x000000000010082c       0x50 objs/t_perror.o
                0x000000000010082c                tt_perror
 .text          0x000000000010087c       0x24 objs/strerror.o
                0x000000000010087c                itron_strerror
 .text          0x00000000001008a0        0x4 objs/tTask_rProcessor1Migratable_tecsgen.o
                0x00000000001008a0                tTask_CB_initialize
 .text          0x00000000001008a4        0x4 objs/tSemaphore_rProcessor1Migratable_tecsgen.o
                0x00000000001008a4                tSemaphore_CB_initialize
 .text          0x00000000001008a8        0x4 objs/tInterruptRequest_rProcessor1Migratable_tecsgen.o
                0x00000000001008a8                tInterruptRequest_CB_initialize
 .text          0x00000000001008ac        0x4 objs/tISR_rProcessor1Migratable_tecsgen.o
                0x00000000001008ac                tISR_CB_initialize
 .text          0x00000000001008b0        0x4 objs/tTerminateRoutine_rProcessor1Migratable_tecsgen.o
                0x00000000001008b0                tTerminateRoutine_CB_initialize
 .text          0x00000000001008b4       0x50 objs/tSerialPortMain_rProcessor1Migratable_tecsgen.o
                0x00000000001008b4                tSerialPortMain_eSerialPort_open_skel
                0x00000000001008bc                tSerialPortMain_eSerialPort_close_skel
                0x00000000001008c4                tSerialPortMain_eSerialPort_read_skel
                0x00000000001008cc                tSerialPortMain_eSerialPort_write_skel
                0x00000000001008d4                tSerialPortMain_eSerialPort_control_skel
                0x00000000001008dc                tSerialPortMain_eSerialPort_refer_skel
                0x00000000001008e4                tSerialPortMain_CB_initialize
 .text          0x0000000000100904        0x4 objs/tSerialAdapter_rProcessor1Migratable_tecsgen.o
                0x0000000000100904                tSerialAdapter_CB_initialize
 .text          0x0000000000100908       0x38 objs/tSysLog_rProcessor1Migratable_tecsgen.o
                0x0000000000100908                tSysLog_CB_initialize
 .text          0x0000000000100940        0x4 objs/tSysLogAdapter_rProcessor1Migratable_tecsgen.o
                0x0000000000100940                tSysLogAdapter_CB_initialize
 .text          0x0000000000100944        0x8 objs/tLogTaskMain_rProcessor1Migratable_tecsgen.o
                0x0000000000100944                tLogTaskMain_eLogTaskTerminate_main_skel
                0x0000000000100948                tLogTaskMain_CB_initialize
 .text          0x000000000010094c        0x4 objs/tPutLogZyboZ7_rProcessor1Migratable_tecsgen.o
                0x000000000010094c                tPutLogZyboZ7_CB_initialize
 .text          0x0000000000100950       0x20 objs/tXUartPs_rProcessor1Migratable_tecsgen.o
                0x0000000000100950                tXUartPs_eTerminate_main_skel
                0x0000000000100958                tXUartPs_CB_initialize
 .text          0x0000000000100970        0x4 objs/tSIOPortZyboZ7Main_rProcessor1Migratable_tecsgen.o
                0x0000000000100970                tSIOPortZyboZ7Main_CB_initialize
 .text          0x0000000000100974        0x4 objs/tTask.o
                0x0000000000100974                tTask_start
 .text          0x0000000000100978        0x0 objs/tInterruptRequest.o
 .text          0x0000000000100978        0xc objs/tISR.o
                0x0000000000100978                tISR_start
 .text          0x0000000000100984       0x10 objs/tTerminateRoutine.o
                0x0000000000100984                tTerminateRoutine_start
 .text          0x0000000000100994      0x9e8 objs/tSerialPortMain.o
                0x0000000000100abc                tSerialPortMain_eSerialPort_open
                0x0000000000100ba0                tSerialPortMain_eSerialPort_close
                0x0000000000100c78                tSerialPortMain_eSerialPort_write
                0x0000000000100d84                tSerialPortMain_eSerialPort_read
                0x0000000000100fb8                tSerialPortMain_eSerialPort_control
                0x0000000000101008                tSerialPortMain_eSerialPort_refer
                0x0000000000101060                tSerialPortMain_eiSIOCBR_readySend
                0x000000000010112c                tSerialPortMain_eiSIOCBR_readyReceive
                0x0000000000101318                tSerialPortMain_enSerialPortManage_getChar
 .text          0x000000000010137c      0x258 objs/tSerialAdapter.o
                0x000000000010137c                serial_opn_por
                0x00000000001013d8                serial_cls_por
                0x0000000000101434                serial_rea_dat
                0x00000000001014a0                serial_wri_dat
                0x000000000010150c                serial_ctl_por
                0x0000000000101570                serial_ref_por
 .text          0x00000000001015d4      0x2cc objs/tSysLog.o
                0x00000000001015d8                tSysLog_eSysLog_write
                0x00000000001016f0                tSysLog_eSysLog_read
                0x0000000000101790                tSysLog_eSysLog_mask
                0x00000000001017c0                tSysLog_eSysLog_refer
                0x000000000010180c                tSysLog_eSysLog_flush
 .text          0x00000000001018a0       0x14 objs/tSysLogAdapter.o
                0x00000000001018a0                syslog_wri_log
                0x00000000001018a4                syslog_rea_log
                0x00000000001018a8                syslog_msk_log
                0x00000000001018ac                syslog_ref_log
                0x00000000001018b0                syslog_fls_log
 .text          0x00000000001018b4      0x21c objs/tLogTaskMain.o
                0x00000000001018b4                target_fput_log
                0x00000000001018e4                tLogTaskMain_eLogTask_flush
                0x0000000000101990                tLogTaskMain_eLogTaskBody_main
                0x0000000000101a10                tLogTaskMain_eLogTaskTerminate_main
 .text          0x0000000000101ad0       0x74 objs/tPutLogZyboZ7.o
                0x0000000000101ad0                tPutLogZyboZ7_initialize
                0x0000000000101af4                tPutLogZyboZ7_ePutLog_putChar
 .text          0x0000000000101b44      0x1f4 objs/tXUartPs.o
                0x0000000000101b44                tXUartPs_eTerminate_main
                0x0000000000101b84                tXUartPs_eSIOPort_open
                0x0000000000101bec                tXUartPs_eSIOPort_close
                0x0000000000101c1c                tXUartPs_eSIOPort_putChar
                0x0000000000101c3c                tXUartPs_eSIOPort_getChar
                0x0000000000101c5c                tXUartPs_eSIOPort_enableCBR
                0x0000000000101c90                tXUartPs_eSIOPort_disableCBR
                0x0000000000101cc4                tXUartPs_eiISR_main
 .text          0x0000000000101d38       0x3c objs/init_tecs.o
                0x0000000000101d38                initialize_tecs
 .text          0x0000000000101d74       0x2c objs/kernel_cfg.o
                0x0000000000101d74                _kernel_inthdr_82
                0x0000000000101d80                _kernel_initialize_object
 .text          0x0000000000101da0        0x0 ./gen/../rust_opt/target/armv7a-none-eabi/release/libitron.a(itron-280b1142b498aad8.itron.fbcde098eeebdde0-cgu.0.rcgu.o)
 .text          0x0000000000101da0        0x0 ./gen/../rust_opt/target/armv7a-none-eabi/release/libitron.a(itron-fbcb73bf0b635dd5.itron.68e737fdf62a80e5-cgu.0.rcgu.o)
 .text          0x0000000000101da0        0x0 ./gen/../rust_opt/target/armv7a-none-eabi/release/libitron.a(core-d049573bc16596f9.core.5587a85061e7188a-cgu.0.rcgu.o)
 .text          0x0000000000101da0        0x0 ./gen/../rust_opt/target/armv7a-none-eabi/release/libitron.a(compiler_builtins-70f608aea3cde50d.compiler_builtins.5a681add74c93a61-cgu.162.rcgu.o)
 .text          0x0000000000101da0        0x0 ./gen/../rust_opt/target/armv7a-none-eabi/release/libitron.a(compiler_builtins-70f608aea3cde50d.compiler_builtins.5a681add74c93a61-cgu.174.rcgu.o)
 .text          0x0000000000101da0        0x0 ./gen/../rust_opt/target/armv7a-none-eabi/release/libitron.a(compiler_builtins-70f608aea3cde50d.compiler_builtins.5a681add74c93a61-cgu.178.rcgu.o)
 .text          0x0000000000101da0        0x0 ./gen/../rust_opt/target/armv7a-none-eabi/release/libitron.a(compiler_builtins-70f608aea3cde50d.compiler_builtins.5a681add74c93a61-cgu.180.rcgu.o)
 .text          0x0000000000101da0        0x0 ./gen/../rust_opt/target/armv7a-none-eabi/release/libitron.a(compiler_builtins-70f608aea3cde50d.compiler_builtins.5a681add74c93a61-cgu.201.rcgu.o)
 .text          0x0000000000101da0        0x0 ./gen/../rust_opt/target/armv7a-none-eabi/release/libitron.a(compiler_builtins-70f608aea3cde50d.compiler_builtins.5a681add74c93a61-cgu.206.rcgu.o)
 .text          0x0000000000101da0        0x0 ./gen/../rust_opt/target/armv7a-none-eabi/release/libitron.a(compiler_builtins-70f608aea3cde50d.compiler_builtins.5a681add74c93a61-cgu.210.rcgu.o)
 .text          0x0000000000101da0        0x0 ./gen/../rust_opt/target/armv7a-none-eabi/release/libitron.a(compiler_builtins-70f608aea3cde50d.compiler_builtins.5a681add74c93a61-cgu.223.rcgu.o)
 .text          0x0000000000101da0        0x0 ./gen/../rust_opt/target/armv7a-none-eabi/release/libitron.a(compiler_builtins-70f608aea3cde50d.compiler_builtins.5a681add74c93a61-cgu.253.rcgu.o)
 .text          0x0000000000101da0        0x0 ./gen/../rust_opt/target/armv7a-none-eabi/release/libitron.a(compiler_builtins-70f608aea3cde50d.compiler_builtins.5a681add74c93a61-cgu.261.rcgu.o)
 .text          0x0000000000101da0        0x0 ./gen/../rust_opt/target/armv7a-none-eabi/release/libitron.a(compiler_builtins-70f608aea3cde50d.compiler_builtins.5a681add74c93a61-cgu.263.rcgu.o)
 .text          0x0000000000101da0        0x0 ./gen/../rust_opt/target/armv7a-none-eabi/release/libitron.a(compiler_builtins-70f608aea3cde50d.compiler_builtins.5a681add74c93a61-cgu.270.rcgu.o)
 .text          0x0000000000101da0        0x0 ./gen/../rust_opt/target/armv7a-none-eabi/release/libitron.a(compiler_builtins-70f608aea3cde50d.compiler_builtins.5a681add74c93a61-cgu.283.rcgu.o)
 .text          0x0000000000101da0        0x0 ./gen/../rust_opt/target/armv7a-none-eabi/release/libitron.a(compiler_builtins-70f608aea3cde50d.compiler_builtins.5a681add74c93a61-cgu.287.rcgu.o)
 .text          0x0000000000101da0        0x0 ./gen/../rust_opt/target/armv7a-none-eabi/release/libitron.a(compiler_builtins-70f608aea3cde50d.compiler_builtins.5a681add74c93a61-cgu.300.rcgu.o)
 .text          0x0000000000101da0        0x0 ./gen/../rust_opt/target/armv7a-none-eabi/release/libitron.a(compiler_builtins-70f608aea3cde50d.compiler_builtins.5a681add74c93a61-cgu.310.rcgu.o)
 .text          0x0000000000101da0        0x0 ./gen/../rust_opt/target/armv7a-none-eabi/release/libitron.a(compiler_builtins-70f608aea3cde50d.compiler_builtins.5a681add74c93a61-cgu.355.rcgu.o)
 .text          0x0000000000101da0        0x0 ./gen/../rust_opt/target/armv7a-none-eabi/release/libitron.a(compiler_builtins-70f608aea3cde50d.compiler_builtins.5a681add74c93a61-cgu.361.rcgu.o)
 .text          0x0000000000101da0        0x0 ./gen/../rust_opt/target/armv7a-none-eabi/release/libitron.a(compiler_builtins-70f608aea3cde50d.compiler_builtins.5a681add74c93a61-cgu.365.rcgu.o)
 .text          0x0000000000101da0        0x0 ./gen/../rust_opt/target/armv7a-none-eabi/release/libitron.a(compiler_builtins-70f608aea3cde50d.compiler_builtins.5a681add74c93a61-cgu.375.rcgu.o)
 .text          0x0000000000101da0        0x0 ./gen/../rust_opt/target/armv7a-none-eabi/release/libitron.a(compiler_builtins-70f608aea3cde50d.compiler_builtins.5a681add74c93a61-cgu.393.rcgu.o)
 .text          0x0000000000101da0        0x0 ./gen/../rust_opt/target/armv7a-none-eabi/release/libitron.a(compiler_builtins-70f608aea3cde50d.compiler_builtins.5a681add74c93a61-cgu.395.rcgu.o)
 .text          0x0000000000101da0        0x0 ./gen/../rust_opt/target/armv7a-none-eabi/release/libitron.a(compiler_builtins-70f608aea3cde50d.compiler_builtins.5a681add74c93a61-cgu.410.rcgu.o)
 .text          0x0000000000101da0        0x0 ./gen/../rust_opt/target/armv7a-none-eabi/release/libitron.a(compiler_builtins-70f608aea3cde50d.compiler_builtins.5a681add74c93a61-cgu.411.rcgu.o)
 .text          0x0000000000101da0      0x1e0 ./gen/../rust_opt/target/armv7a-none-eabi/release/libitron.a(63f8a0b8a638da8c-udivmodsi4.o)
                0x0000000000101da0                __udivmodsi4
 .text          0x0000000000101f80      0x1d0 ./gen/../rust_opt/target/armv7a-none-eabi/release/libitron.a(63f8a0b8a638da8c-udivsi3.o)
                0x0000000000101f80                __udivsi3
                0x0000000000101f80                __aeabi_uidiv
 .text          0x0000000000102150        0x0 ./gen/../rust_opt/target/armv7a-none-eabi/release/libitron.a(compiler_builtins-70f608aea3cde50d.compiler_builtins.5a681add74c93a61-cgu.000.rcgu.o)
 .text          0x0000000000102150        0x0 ./gen/../rust_opt/target/armv7a-none-eabi/release/libitron.a(compiler_builtins-70f608aea3cde50d.compiler_builtins.5a681add74c93a61-cgu.004.rcgu.o)
 .text          0x0000000000102150        0x0 ./gen/../rust_opt/target/armv7a-none-eabi/release/libitron.a(compiler_builtins-70f608aea3cde50d.compiler_builtins.5a681add74c93a61-cgu.009.rcgu.o)
 .text          0x0000000000102150        0x0 ./gen/../rust_opt/target/armv7a-none-eabi/release/libitron.a(compiler_builtins-70f608aea3cde50d.compiler_builtins.5a681add74c93a61-cgu.019.rcgu.o)
 .text          0x0000000000102150        0x0 ./gen/../rust_opt/target/armv7a-none-eabi/release/libitron.a(compiler_builtins-70f608aea3cde50d.compiler_builtins.5a681add74c93a61-cgu.347.rcgu.o)
 .text          0x0000000000102150        0x0 ./gen/../rust_opt/target/armv7a-none-eabi/release/libitron.a(63f8a0b8a638da8c-aeabi_div0.o)
 .text          0x0000000000102150        0x0 ./gen/../rust_opt/target/armv7a-none-eabi/release/libitron.a(compiler_builtins-70f608aea3cde50d.compiler_builtins.5a681add74c93a61-cgu.010.rcgu.o)
 .text          0x0000000000102150       0x80 ./libkernel.a(target_kernel_impl.o)
                0x0000000000102150                hardware_init_hook
                0x0000000000102160                _kernel_target_mprc_initialize
                0x0000000000102184                _kernel_target_initialize
                0x00000000001021a0                _kernel_target_exit
 .text          0x00000000001021d0       0x34 ./libkernel.a(chip_kernel_impl.o)
                0x00000000001021d0                _kernel_chip_initialize
                0x0000000000102200                _kernel_chip_terminate
 .text          0x0000000000102204       0x9c ./libkernel.a(mpcore_kernel_impl.o)
                0x0000000000102204                _kernel_mpcore_mprc_initialize
                0x0000000000102238                _kernel_mpcore_initialize
                0x000000000010228c                _kernel_mpcore_terminate
 .text          0x00000000001022a0      0x340 ./libkernel.a(gic_kernel_impl.o)
                0x00000000001022a0                _kernel_gicc_initialize
                0x00000000001022d4                _kernel_gicc_terminate
                0x00000000001022e8                _kernel_gicd_initialize
                0x0000000000102380                _kernel_gicd_terminate
                0x0000000000102394                _kernel_initialize_interrupt
 .text          0x00000000001025e0      0x12c ./libkernel.a(pl310.o)
                0x00000000001025e0                _kernel_pl310_initialize
                0x0000000000102654                _kernel_pl310_disable
                0x0000000000102694                _kernel_pl310_invalidate_all
                0x00000000001026d0                _kernel_pl310_clean_and_invalidate_all
 .text          0x000000000010270c       0x90 ./libkernel.a(mpcore_timer.o)
                0x000000000010270c                _kernel_target_hrt_initialize
                0x0000000000102754                _kernel_target_hrt_terminate
                0x0000000000102788                _kernel_target_hrt_handler
 .text          0x000000000010279c      0x4f4 ./libkernel.a(core_kernel_impl.o)
                0x000000000010279c                _kernel_arm_mmu_initialize
                0x0000000000102984                _kernel_core_initialize
                0x00000000001029e4                _kernel_core_terminate
                0x00000000001029e8                _kernel_xlog_sys
                0x0000000000102aa4                _kernel_xlog_fsr
                0x0000000000102b24                _kernel_default_int_handler
                0x0000000000102b58                _kernel_default_exc_handler
 .text          0x0000000000102c90      0x1b8 ./libkernel.a(arm.o)
                0x0000000000102c90                arm_enable_icache
                0x0000000000102cac                arm_disable_icache
                0x0000000000102cc4                armv7_invalidate_dcache
                0x0000000000102d68                arm_enable_dcache
                0x0000000000102d88                armv7_clean_and_invalidate_dcache
                0x0000000000102e2c                arm_disable_dcache
 .text          0x0000000000102e48      0x3a8 ./libkernel.a(startup.o)
                0x0000000000102ec0                _kernel_barrier_sync
                0x0000000000102f34                sta_ker
                0x000000000010304c                ext_ker
                0x00000000001030b4                _kernel_exit_kernel
                0x0000000000103134                _kernel_ext_ker_handler
 .text          0x00000000001031f0      0x9c8 ./libkernel.a(task.o)
                0x00000000001031f0                _kernel_search_schedtsk
                0x0000000000103204                _kernel_make_runnable
                0x000000000010333c                _kernel_initialize_task
                0x0000000000103450                _kernel_make_non_runnable
                0x0000000000103574                _kernel_make_dormant
                0x00000000001035a0                _kernel_make_active
                0x00000000001035cc                _kernel_change_priority
                0x0000000000103868                _kernel_change_subprio
                0x0000000000103958                _kernel_rotate_ready_queue
                0x0000000000103a3c                _kernel_task_terminate
                0x0000000000103b68                _kernel_migrate_self
                0x0000000000103b90                _kernel_migrate_activate_self
 .text          0x0000000000103bb8        0x0 ./libkernel.a(taskhook.o)
 .text          0x0000000000103bb8      0x650 ./libkernel.a(wait.o)
                0x0000000000103bb8                _kernel_wait_tmout
                0x0000000000103d08                _kernel_make_wait_tmout
                0x0000000000103dc4                _kernel_wait_dequeue_wobj
                0x0000000000103de0                _kernel_wait_complete
                0x0000000000103e84                _kernel_wait_tmout_ok
                0x0000000000103fc0                _kernel_wobj_make_wait
                0x0000000000104068                _kernel_wobj_make_wait_tmout
                0x00000000001040f4                _kernel_init_wait_queue
 .text          0x0000000000104208      0xaf8 ./libkernel.a(time_event.o)
                0x0000000000104208                _kernel_initialize_tmevt
                0x00000000001042b4                _kernel_tmevt_up
                0x0000000000104314                _kernel_tmevt_down
                0x00000000001043b8                _kernel_update_current_evttim
                0x0000000000104440                _kernel_set_hrt_event
                0x0000000000104610                _kernel_set_hrt_event_handler
                0x0000000000104714                _kernel_tmevtb_register
                0x00000000001047ac                _kernel_tmevtb_enqueue
                0x0000000000104860                _kernel_tmevtb_enqueue_reltim
                0x0000000000104934                _kernel_tmevtb_dequeue
                0x0000000000104a3c                _kernel_check_adjtim
                0x0000000000104acc                _kernel_tmevt_lefttim
                0x0000000000104b04                _kernel_signal_time
 .text          0x0000000000104d00      0xb30 ./libkernel.a(task_sync.o)
                0x0000000000104d00                slp_tsk
                0x0000000000104e4c                tslp_tsk
                0x0000000000104fac                wup_tsk
                0x0000000000105118                can_wup
                0x000000000010521c                rel_wai
                0x00000000001053e4                sus_tsk
                0x0000000000105570                rsm_tsk
                0x00000000001056bc                dly_tsk
 .text          0x0000000000105830      0x87c ./libkernel.a(semaphore.o)
                0x0000000000105830                _kernel_initialize_semaphore
                0x000000000010588c                sig_sem
                0x0000000000105a34                wai_sem
                0x0000000000105b94                pol_sem
                0x0000000000105c88                twai_sem
                0x0000000000105e24                ini_sem
                0x0000000000105f4c                ref_sem
 .text          0x00000000001060ac      0x318 ./libkernel.a(spin_lock.o)
                0x00000000001060ac                _kernel_initialize_spin_lock
                0x00000000001060f4                _kernel_force_unlock_spin
                0x0000000000106120                loc_spn
                0x00000000001061e0                try_spn
                0x0000000000106284                unl_spn
                0x0000000000106334                ref_spn
 .text          0x00000000001063c4      0xb50 ./libkernel.a(sys_manage.o)
                0x00000000001063c4                rot_rdq
                0x00000000001064f8                mrot_rdq
                0x0000000000106648                get_tid
                0x00000000001066b0                get_pid
                0x00000000001066d8                get_lod
                0x00000000001067e4                mget_lod
                0x0000000000106908                get_nth
                0x0000000000106a40                mget_nth
                0x0000000000106b90                loc_cpu
                0x0000000000106ba8                unl_cpu
                0x0000000000106bd8                dis_dsp
                0x0000000000106ca8                ena_dsp
                0x0000000000106e0c                sns_ctx
                0x0000000000106e3c                sns_loc
                0x0000000000106e48                sns_dsp
                0x0000000000106e78                sns_dpn
                0x0000000000106ed4                sns_ker
 .text          0x0000000000106f14      0x668 ./libkernel.a(interrupt.o)
                0x0000000000106f14                dis_int
                0x0000000000106fe8                ena_int
                0x00000000001070bc                clr_int
                0x0000000000107190                ras_int
                0x00000000001072b4                prb_int
                0x000000000010736c                chg_ipm
                0x0000000000107514                get_ipm
 *fill*         0x000000000010757c        0x4 
 .text          0x0000000000107580      0x3dc ./libkernel.a(core_support.o)
                0x0000000000107580                _kernel_dispatch
                0x00000000001075ac                _kernel_start_dispatch
                0x00000000001075c4                _kernel_exit_and_dispatch
                0x00000000001075f4                _kernel_call_exit_kernel
                0x0000000000107604                _kernel_dispatch_and_migrate
                0x0000000000107620                _kernel_exit_and_migrate
                0x0000000000107628                _kernel_start_r
                0x0000000000107640                _kernel_irq_handler
                0x000000000010772c                _kernel_undef_handler
                0x0000000000107740                _kernel_svc_handler
                0x0000000000107750                _kernel_pabort_handler
                0x0000000000107764                _kernel_dabort_handler
                0x00000000001077c4                _kernel_fiq_handler
                0x0000000000107930                sil_dly_nse
 .text          0x000000000010795c      0x644 ./libkernel.a(task_term.o)
                0x000000000010795c                ext_tsk
                0x0000000000107a80                ras_ter
                0x0000000000107c48                dis_ter
                0x0000000000107d00                ena_ter
                0x0000000000107e18                sns_ter
                0x0000000000107e54                ter_tsk
 .text          0x0000000000107fa0       0x8c ./libkernel.a(gic_support.o)
                0x0000000000107fa0                _kernel_irc_begin_int
                0x0000000000107fd8                _kernel_irc_end_int
                0x0000000000107fe8                _kernel_irc_get_intpri
                0x0000000000107ffc                _kernel_irc_begin_exc
                0x000000000010800c                _kernel_irc_end_exc
 .text          0x000000000010802c       0xa4 /usr/lib/gcc/arm-none-eabi/10.3.1/../../../arm-none-eabi/lib/thumb/v7-a/nofp/libc.a(lib_a-memset.o)
                0x000000000010802c                memset
 *(.text.*)
 .text._ZN68_$LT$itron..error..Error$LT$Kind$GT$$u20$as$u20$core..fmt..Debug$GT$3fmt17h998211f8ac5ba06cE
                0x00000000001080d0        0x4 ./gen/../rust_opt/target/armv7a-none-eabi/release/libitron.a(itron-280b1142b498aad8.itron.fbcde098eeebdde0-cgu.0.rcgu.o)
 .text._RNvCsgYTF1aGAkck_7___rustc17rust_begin_unwind
                0x00000000001080d4        0x4 ./gen/../rust_opt/target/armv7a-none-eabi/release/libitron.a(itron-280b1142b498aad8.itron.fbcde098eeebdde0-cgu.0.rcgu.o)
                0x00000000001080d4                __rustc::rust_begin_unwind
 .text.start1   0x00000000001080d8      0x104 ./gen/../rust_opt/target/armv7a-none-eabi/release/libitron.a(itron-280b1142b498aad8.itron.fbcde098eeebdde0-cgu.0.rcgu.o)
                0x00000000001080d8                start1
 .text.start2   0x00000000001081dc       0xc8 ./gen/../rust_opt/target/armv7a-none-eabi/release/libitron.a(itron-280b1142b498aad8.itron.fbcde098eeebdde0-cgu.0.rcgu.o)
                0x00000000001081dc                start2
 .text.start3   0x00000000001082a4       0xc8 ./gen/../rust_opt/target/armv7a-none-eabi/release/libitron.a(itron-280b1142b498aad8.itron.fbcde098eeebdde0-cgu.0.rcgu.o)
                0x00000000001082a4                start3
 .text.start4   0x000000000010836c       0xc8 ./gen/../rust_opt/target/armv7a-none-eabi/release/libitron.a(itron-280b1142b498aad8.itron.fbcde098eeebdde0-cgu.0.rcgu.o)
                0x000000000010836c                start4
 .text.start5   0x0000000000108434       0xc8 ./gen/../rust_opt/target/armv7a-none-eabi/release/libitron.a(itron-280b1142b498aad8.itron.fbcde098eeebdde0-cgu.0.rcgu.o)
                0x0000000000108434                start5
 .text.start6   0x00000000001084fc       0xc8 ./gen/../rust_opt/target/armv7a-none-eabi/release/libitron.a(itron-280b1142b498aad8.itron.fbcde098eeebdde0-cgu.0.rcgu.o)
                0x00000000001084fc                start6
 .text._ZN4core3fmt3num50_$LT$impl$u20$core..fmt..Debug$u20$for$u20$i32$GT$3fmt17h7a0e08473eadbc5bE
                0x00000000001085c4       0x20 ./gen/../rust_opt/target/armv7a-none-eabi/release/libitron.a(itron-fbcb73bf0b635dd5.itron.68e737fdf62a80e5-cgu.0.rcgu.o)
 .text._ZN75_$LT$core..num..nonzero..NonZero$LT$T$GT$$u20$as$u20$core..fmt..Display$GT$3fmt17h850f84802fa3eaddE
                0x00000000001085e4       0x20 ./gen/../rust_opt/target/armv7a-none-eabi/release/libitron.a(itron-fbcb73bf0b635dd5.itron.68e737fdf62a80e5-cgu.0.rcgu.o)
 .text._ZN60_$LT$itron..error..ErrorCode$u20$as$u20$core..fmt..Debug$GT$3fmt17hf3b2cd5bb64ff3e9E
                0x0000000000108604      0x2c4 ./gen/../rust_opt/target/armv7a-none-eabi/release/libitron.a(itron-fbcb73bf0b635dd5.itron.68e737fdf62a80e5-cgu.0.rcgu.o)
                0x0000000000108604                <itron::error::ErrorCode as core::fmt::Debug>::fmt
 .text._ZN67_$LT$itron..dataqueue..DataqueueRef$u20$as$u20$core..fmt..Debug$GT$3fmt17h5b31219d7835aa6dE
                0x00000000001088c8       0x58 ./gen/../rust_opt/target/armv7a-none-eabi/release/libitron.a(itron-fbcb73bf0b635dd5.itron.68e737fdf62a80e5-cgu.0.rcgu.o)
                0x00000000001088c8                <itron::dataqueue::DataqueueRef as core::fmt::Debug>::fmt
 .text._ZN69_$LT$itron..memorypool..MemoryPoolRef$u20$as$u20$core..fmt..Debug$GT$3fmt17h802347f6fdaf37b2E
                0x0000000000108920       0x58 ./gen/../rust_opt/target/armv7a-none-eabi/release/libitron.a(itron-fbcb73bf0b635dd5.itron.68e737fdf62a80e5-cgu.0.rcgu.o)
                0x0000000000108920                <itron::memorypool::MemoryPoolRef as core::fmt::Debug>::fmt
 .text._ZN59_$LT$itron..mutex..MutexRef$u20$as$u20$core..fmt..Debug$GT$3fmt17h6a8d309fd5365a8bE
                0x0000000000108978       0x58 ./gen/../rust_opt/target/armv7a-none-eabi/release/libitron.a(itron-fbcb73bf0b635dd5.itron.68e737fdf62a80e5-cgu.0.rcgu.o)
                0x0000000000108978                <itron::mutex::MutexRef as core::fmt::Debug>::fmt
 .text._ZN64_$LT$itron..processor..Processor$u20$as$u20$core..fmt..Debug$GT$3fmt17hc75d9d03a1c196fbE
                0x00000000001089d0       0x64 ./gen/../rust_opt/target/armv7a-none-eabi/release/libitron.a(itron-fbcb73bf0b635dd5.itron.68e737fdf62a80e5-cgu.0.rcgu.o)
                0x00000000001089d0                <itron::processor::Processor as core::fmt::Debug>::fmt
 .text._ZN67_$LT$itron..semaphore..SemaphoreRef$u20$as$u20$core..fmt..Debug$GT$3fmt17haf2e3079afc34cfaE
                0x0000000000108a34       0x58 ./gen/../rust_opt/target/armv7a-none-eabi/release/libitron.a(itron-fbcb73bf0b635dd5.itron.68e737fdf62a80e5-cgu.0.rcgu.o)
                0x0000000000108a34                <itron::semaphore::SemaphoreRef as core::fmt::Debug>::fmt
 .text._ZN57_$LT$itron..task..TaskRef$u20$as$u20$core..fmt..Debug$GT$3fmt17h29082a565a1f7a0fE
                0x0000000000108a8c       0x58 ./gen/../rust_opt/target/armv7a-none-eabi/release/libitron.a(itron-fbcb73bf0b635dd5.itron.68e737fdf62a80e5-cgu.0.rcgu.o)
                0x0000000000108a8c                <itron::task::TaskRef as core::fmt::Debug>::fmt
 .text._ZN5itron4task7current17he5bb96fe6f36c460E
                0x0000000000108ae4       0x4c ./gen/../rust_opt/target/armv7a-none-eabi/release/libitron.a(itron-fbcb73bf0b635dd5.itron.68e737fdf62a80e5-cgu.0.rcgu.o)
                0x0000000000108ae4                itron::task::current
 .text._ZN4core3num7dec2flt11decimal_seq10DecimalSeq4trim17h5efee5ea5ccf409eE
                0x0000000000108b30       0x58 ./gen/../rust_opt/target/armv7a-none-eabi/release/libitron.a(core-d049573bc16596f9.core.5587a85061e7188a-cgu.0.rcgu.o)
                0x0000000000108b30                core::num::dec2flt::decimal_seq::DecimalSeq::trim
 .text._ZN4core3num7dec2flt11decimal_seq10DecimalSeq5round17h25fcaa510171f10cE
                0x0000000000108b88       0xf0 ./gen/../rust_opt/target/armv7a-none-eabi/release/libitron.a(core-d049573bc16596f9.core.5587a85061e7188a-cgu.0.rcgu.o)
                0x0000000000108b88                core::num::dec2flt::decimal_seq::DecimalSeq::round
 .text._ZN4core3num7dec2flt11decimal_seq10DecimalSeq10left_shift17hc6cf7434fa18fb28E
                0x0000000000108c78      0x310 ./gen/../rust_opt/target/armv7a-none-eabi/release/libitron.a(core-d049573bc16596f9.core.5587a85061e7188a-cgu.0.rcgu.o)
                0x0000000000108c78                core::num::dec2flt::decimal_seq::DecimalSeq::left_shift
 .text._ZN4core3num7dec2flt11decimal_seq10DecimalSeq11right_shift17hb4403252d794ad85E
                0x0000000000108f88      0x2c8 ./gen/../rust_opt/target/armv7a-none-eabi/release/libitron.a(core-d049573bc16596f9.core.5587a85061e7188a-cgu.0.rcgu.o)
                0x0000000000108f88                core::num::dec2flt::decimal_seq::DecimalSeq::right_shift
 .text._ZN4core3num7dec2flt11decimal_seq17parse_decimal_seq17h720ae35c33f1ca0cE
                0x0000000000109250      0x4a0 ./gen/../rust_opt/target/armv7a-none-eabi/release/libitron.a(core-d049573bc16596f9.core.5587a85061e7188a-cgu.0.rcgu.o)
                0x0000000000109250                core::num::dec2flt::decimal_seq::parse_decimal_seq
 .text._ZN59_$LT$f32$u20$as$u20$core..num..dec2flt..float..RawFloat$GT$15pow10_fast_path17h6e48b725f9e4ea17E
                0x00000000001096f0       0x1c ./gen/../rust_opt/target/armv7a-none-eabi/release/libitron.a(core-d049573bc16596f9.core.5587a85061e7188a-cgu.0.rcgu.o)
                0x00000000001096f0                <f32 as core::num::dec2flt::float::RawFloat>::pow10_fast_path
 .text._ZN59_$LT$f64$u20$as$u20$core..num..dec2flt..float..RawFloat$GT$15pow10_fast_path17h11f46422e910817bE
                0x000000000010970c       0x20 ./gen/../rust_opt/target/armv7a-none-eabi/release/libitron.a(core-d049573bc16596f9.core.5587a85061e7188a-cgu.0.rcgu.o)
                0x000000000010970c                <f64 as core::num::dec2flt::float::RawFloat>::pow10_fast_path
 .text._ZN4core3num7dec2flt6lemire13compute_float17h16a9ae03feeaa31dE
                0x000000000010972c      0x28c ./gen/../rust_opt/target/armv7a-none-eabi/release/libitron.a(core-d049573bc16596f9.core.5587a85061e7188a-cgu.0.rcgu.o)
 .text._ZN4core3num7dec2flt6lemire13compute_float17h6afe090d7f4e8ea6E
                0x00000000001099b8      0x314 ./gen/../rust_opt/target/armv7a-none-eabi/release/libitron.a(core-d049573bc16596f9.core.5587a85061e7188a-cgu.0.rcgu.o)
 .text._ZN4core3num7dec2flt6lemire13compute_float17ha99c48ca86bcebfaE
                0x0000000000109ccc      0x320 ./gen/../rust_opt/target/armv7a-none-eabi/release/libitron.a(core-d049573bc16596f9.core.5587a85061e7188a-cgu.0.rcgu.o)
 .text._ZN4core3num7dec2flt6lemire22compute_product_approx17h46540bfe977aa735E
                0x0000000000109fec       0xfc ./gen/../rust_opt/target/armv7a-none-eabi/release/libitron.a(core-d049573bc16596f9.core.5587a85061e7188a-cgu.0.rcgu.o)
                0x0000000000109fec                core::num::dec2flt::lemire::compute_product_approx
 .text._ZN4core3num7dec2flt5parse12parse_number17hac599539be123f0aE
                0x000000000010a0e8      0x680 ./gen/../rust_opt/target/armv7a-none-eabi/release/libitron.a(core-d049573bc16596f9.core.5587a85061e7188a-cgu.0.rcgu.o)
                0x000000000010a0e8                core::num::dec2flt::parse::parse_number
 .text._ZN74_$LT$core..num..dec2flt..ParseFloatError$u20$as$u20$core..fmt..Display$GT$3fmt17he75ae9ab1989a457E
                0x000000000010a768       0x48 ./gen/../rust_opt/target/armv7a-none-eabi/release/libitron.a(core-d049573bc16596f9.core.5587a85061e7188a-cgu.0.rcgu.o)
                0x000000000010a768                <core::num::dec2flt::ParseFloatError as core::fmt::Display>::fmt
 .text._ZN4core3num9diy_float2Fp3mul17h224020beff8dcf6eE
                0x000000000010a7b0       0x58 ./gen/../rust_opt/target/armv7a-none-eabi/release/libitron.a(core-d049573bc16596f9.core.5587a85061e7188a-cgu.0.rcgu.o)
                0x000000000010a7b0                core::num::diy_float::Fp::mul
 .text._ZN4core3num9diy_float2Fp9normalize17h769495316c3164f0E
                0x000000000010a808       0x4c ./gen/../rust_opt/target/armv7a-none-eabi/release/libitron.a(core-d049573bc16596f9.core.5587a85061e7188a-cgu.0.rcgu.o)
                0x000000000010a808                core::num::diy_float::Fp::normalize
 .text._ZN4core3num9diy_float2Fp12normalize_to17h65a8e137fe2a9b34E
                0x000000000010a854       0xc8 ./gen/../rust_opt/target/armv7a-none-eabi/release/libitron.a(core-d049573bc16596f9.core.5587a85061e7188a-cgu.0.rcgu.o)
                0x000000000010a854                core::num::diy_float::Fp::normalize_to
 .text._ZN4core3num7flt2dec9estimator23estimate_scaling_factor17h5aed770e3586ed17E
                0x000000000010a91c       0x40 ./gen/../rust_opt/target/armv7a-none-eabi/release/libitron.a(core-d049573bc16596f9.core.5587a85061e7188a-cgu.0.rcgu.o)
                0x000000000010a91c                core::num::flt2dec::estimator::estimate_scaling_factor
 .text._ZN4core3num7flt2dec8strategy6dragon9mul_pow1017h8de41a198f06ceffE
                0x000000000010a95c      0x268 ./gen/../rust_opt/target/armv7a-none-eabi/release/libitron.a(core-d049573bc16596f9.core.5587a85061e7188a-cgu.0.rcgu.o)
                0x000000000010a95c                core::num::flt2dec::strategy::dragon::mul_pow10
 .text._ZN4core3num7flt2dec8strategy6dragon15format_shortest17hb5e0ae7b6971114eE
                0x000000000010abc4      0xd24 ./gen/../rust_opt/target/armv7a-none-eabi/release/libitron.a(core-d049573bc16596f9.core.5587a85061e7188a-cgu.0.rcgu.o)
                0x000000000010abc4                core::num::flt2dec::strategy::dragon::format_shortest
 .text._ZN4core3num7flt2dec8strategy6dragon12format_exact17h413b0182ae77793eE
                0x000000000010b8e8      0xb6c ./gen/../rust_opt/target/armv7a-none-eabi/release/libitron.a(core-d049573bc16596f9.core.5587a85061e7188a-cgu.0.rcgu.o)
                0x000000000010b8e8                core::num::flt2dec::strategy::dragon::format_exact
 .text._ZN4core3num7flt2dec8strategy5grisu12cached_power17h40510fc142d30e5bE
                0x000000000010c454       0x70 ./gen/../rust_opt/target/armv7a-none-eabi/release/libitron.a(core-d049573bc16596f9.core.5587a85061e7188a-cgu.0.rcgu.o)
                0x000000000010c454                core::num::flt2dec::strategy::grisu::cached_power
 .text._ZN4core3num7flt2dec8strategy5grisu19format_shortest_opt17ha7dc55675409a111E
                0x000000000010c4c4      0x9e4 ./gen/../rust_opt/target/armv7a-none-eabi/release/libitron.a(core-d049573bc16596f9.core.5587a85061e7188a-cgu.0.rcgu.o)
                0x000000000010c4c4                core::num::flt2dec::strategy::grisu::format_shortest_opt
 .text._ZN4core3num7flt2dec8strategy5grisu15format_shortest17hcc7bcdc55f306e7cE
                0x000000000010cea8       0x5c ./gen/../rust_opt/target/armv7a-none-eabi/release/libitron.a(core-d049573bc16596f9.core.5587a85061e7188a-cgu.0.rcgu.o)
                0x000000000010cea8                core::num::flt2dec::strategy::grisu::format_shortest
 .text._ZN4core3num7flt2dec8strategy5grisu16format_exact_opt17h10c7733a2f424f87E
                0x000000000010cf04      0x580 ./gen/../rust_opt/target/armv7a-none-eabi/release/libitron.a(core-d049573bc16596f9.core.5587a85061e7188a-cgu.0.rcgu.o)
                0x000000000010cf04                core::num::flt2dec::strategy::grisu::format_exact_opt
 .text._ZN4core3num7flt2dec8strategy5grisu16format_exact_opt14possibly_round17h324fa6da31e0b7a0E
                0x000000000010d484      0x234 ./gen/../rust_opt/target/armv7a-none-eabi/release/libitron.a(core-d049573bc16596f9.core.5587a85061e7188a-cgu.0.rcgu.o)
 .text._ZN4core3num7flt2dec8strategy5grisu12format_exact17h78d277690b9100bfE
                0x000000000010d6b8       0x6c ./gen/../rust_opt/target/armv7a-none-eabi/release/libitron.a(core-d049573bc16596f9.core.5587a85061e7188a-cgu.0.rcgu.o)
                0x000000000010d6b8                core::num::flt2dec::strategy::grisu::format_exact
 .text._ZN4core3num7flt2dec8round_up17hdfef968791b3b8f1E
                0x000000000010d724       0xb8 ./gen/../rust_opt/target/armv7a-none-eabi/release/libitron.a(core-d049573bc16596f9.core.5587a85061e7188a-cgu.0.rcgu.o)
                0x000000000010d724                core::num::flt2dec::round_up
 .text._ZN4core3num7flt2dec17digits_to_dec_str17h4ef03e8f4c666413E
                0x000000000010d7dc      0x17c ./gen/../rust_opt/target/armv7a-none-eabi/release/libitron.a(core-d049573bc16596f9.core.5587a85061e7188a-cgu.0.rcgu.o)
                0x000000000010d7dc                core::num::flt2dec::digits_to_dec_str
 .text._ZN4core3num7flt2dec17digits_to_exp_str17hc40222548b9d8bc0E
                0x000000000010d958      0x180 ./gen/../rust_opt/target/armv7a-none-eabi/release/libitron.a(core-d049573bc16596f9.core.5587a85061e7188a-cgu.0.rcgu.o)
                0x000000000010d958                core::num::flt2dec::digits_to_exp_str
 .text._ZN4core3num3fmt4Part5write17h5157de02cd0761b1E
                0x000000000010dad8      0x18c ./gen/../rust_opt/target/armv7a-none-eabi/release/libitron.a(core-d049573bc16596f9.core.5587a85061e7188a-cgu.0.rcgu.o)
                0x000000000010dad8                core::num::fmt::Part::write
 .text._ZN4core3num3fmt9Formatted3len17ha07e1e9353604e1bE
                0x000000000010dc64       0xa4 ./gen/../rust_opt/target/armv7a-none-eabi/release/libitron.a(core-d049573bc16596f9.core.5587a85061e7188a-cgu.0.rcgu.o)
                0x000000000010dc64                core::num::fmt::Formatted::len
 .text._ZN4core3num3fmt9Formatted5write17h99ed3f4f2997298bE
                0x000000000010dd08       0xac ./gen/../rust_opt/target/armv7a-none-eabi/release/libitron.a(core-d049573bc16596f9.core.5587a85061e7188a-cgu.0.rcgu.o)
                0x000000000010dd08                core::num::fmt::Formatted::write
 .text._ZN72_$LT$core..num..error..TryFromIntError$u20$as$u20$core..fmt..Display$GT$3fmt17hce3ba6a6f2a6094bE
                0x000000000010ddb4       0x20 ./gen/../rust_opt/target/armv7a-none-eabi/release/libitron.a(core-d049573bc16596f9.core.5587a85061e7188a-cgu.0.rcgu.o)
                0x000000000010ddb4                <core::num::error::TryFromIntError as core::fmt::Display>::fmt
 .text._ZN70_$LT$core..num..error..ParseIntError$u20$as$u20$core..fmt..Display$GT$3fmt17hbaea7be47c23092bE
                0x000000000010ddd4       0x34 ./gen/../rust_opt/target/armv7a-none-eabi/release/libitron.a(core-d049573bc16596f9.core.5587a85061e7188a-cgu.0.rcgu.o)
                0x000000000010ddd4                <core::num::error::ParseIntError as core::fmt::Display>::fmt
 .text.unlikely._ZN4core3num9int_log1030panic_for_nonpositive_argument17h1277070ab48dc16bE
                0x000000000010de08       0x40 ./gen/../rust_opt/target/armv7a-none-eabi/release/libitron.a(core-d049573bc16596f9.core.5587a85061e7188a-cgu.0.rcgu.o)
                0x000000000010de08                core::num::int_log10::panic_for_nonpositive_argument
 .text.unlikely._ZN4core3num8int_sqrt27panic_for_negative_argument17h646ece1cae3b97dbE
                0x000000000010de48       0x40 ./gen/../rust_opt/target/armv7a-none-eabi/release/libitron.a(core-d049573bc16596f9.core.5587a85061e7188a-cgu.0.rcgu.o)
                0x000000000010de48                core::num::int_sqrt::panic_for_negative_argument
 .text.unlikely._ZN4core3num14overflow_panic3add17hf194787efb41c60bE
                0x000000000010de88       0x40 ./gen/../rust_opt/target/armv7a-none-eabi/release/libitron.a(core-d049573bc16596f9.core.5587a85061e7188a-cgu.0.rcgu.o)
                0x000000000010de88                core::num::overflow_panic::add
 .text.unlikely._ZN4core3num14overflow_panic3sub17he2e76c1521f0700fE
                0x000000000010dec8       0x40 ./gen/../rust_opt/target/armv7a-none-eabi/release/libitron.a(core-d049573bc16596f9.core.5587a85061e7188a-cgu.0.rcgu.o)
                0x000000000010dec8                core::num::overflow_panic::sub
 .text.unlikely._ZN4core3num14overflow_panic3mul17h60bfb5e03c5b71e3E
                0x000000000010df08       0x40 ./gen/../rust_opt/target/armv7a-none-eabi/release/libitron.a(core-d049573bc16596f9.core.5587a85061e7188a-cgu.0.rcgu.o)
                0x000000000010df08                core::num::overflow_panic::mul
 .text.unlikely._ZN4core3num14overflow_panic3div17h31ae6e9c5fc383d9E
                0x000000000010df48       0x40 ./gen/../rust_opt/target/armv7a-none-eabi/release/libitron.a(core-d049573bc16596f9.core.5587a85061e7188a-cgu.0.rcgu.o)
                0x000000000010df48                core::num::overflow_panic::div
 .text.unlikely._ZN4core3num14overflow_panic3rem17h60333cfee06b13cdE
                0x000000000010df88       0x40 ./gen/../rust_opt/target/armv7a-none-eabi/release/libitron.a(core-d049573bc16596f9.core.5587a85061e7188a-cgu.0.rcgu.o)
                0x000000000010df88                core::num::overflow_panic::rem
 .text.unlikely._ZN4core3num14overflow_panic3neg17h94a197b7d7b20279E
                0x000000000010dfc8       0x40 ./gen/../rust_opt/target/armv7a-none-eabi/release/libitron.a(core-d049573bc16596f9.core.5587a85061e7188a-cgu.0.rcgu.o)
                0x000000000010dfc8                core::num::overflow_panic::neg
 .text.unlikely._ZN4core3num14overflow_panic3shr17h1944cb74e27c390cE
                0x000000000010e008       0x40 ./gen/../rust_opt/target/armv7a-none-eabi/release/libitron.a(core-d049573bc16596f9.core.5587a85061e7188a-cgu.0.rcgu.o)
                0x000000000010e008                core::num::overflow_panic::shr
 .text.unlikely._ZN4core3num14overflow_panic3shl17hc7ecc243b6763a66E
                0x000000000010e048       0x40 ./gen/../rust_opt/target/armv7a-none-eabi/release/libitron.a(core-d049573bc16596f9.core.5587a85061e7188a-cgu.0.rcgu.o)
                0x000000000010e048                core::num::overflow_panic::shl
 .text.unlikely._ZN4core3num22from_ascii_radix_panic17h345174f03d72ebe3E
                0x000000000010e088        0xc ./gen/../rust_opt/target/armv7a-none-eabi/release/libitron.a(core-d049573bc16596f9.core.5587a85061e7188a-cgu.0.rcgu.o)
                0x000000000010e088                core::num::from_ascii_radix_panic
 .text._ZN76_$LT$core..mem..transmutability..Assume$u20$as$u20$core..ops..arith..Sub$GT$3sub17h21ed15b6645713d8E
                0x000000000010e094       0x48 ./gen/../rust_opt/target/armv7a-none-eabi/release/libitron.a(core-d049573bc16596f9.core.5587a85061e7188a-cgu.0.rcgu.o)
                0x000000000010e094                <core::mem::transmutability::Assume as core::ops::arith::Sub>::sub
 .text._ZN68_$LT$core..ptr..alignment..Alignment$u20$as$u20$core..fmt..Debug$GT$3fmt17hd2f4df9dbd6e2f86E
                0x000000000010e0dc       0x88 ./gen/../rust_opt/target/armv7a-none-eabi/release/libitron.a(core-d049573bc16596f9.core.5587a85061e7188a-cgu.0.rcgu.o)
                0x000000000010e0dc                <core::ptr::alignment::Alignment as core::fmt::Debug>::fmt
 .text._ZN69_$LT$core..ffi..c_str..CStr$u20$as$u20$core..clone..CloneToUninit$GT$15clone_to_uninit17h80a4ef3d92070d94E
                0x000000000010e164       0x20 ./gen/../rust_opt/target/armv7a-none-eabi/release/libitron.a(core-d049573bc16596f9.core.5587a85061e7188a-cgu.0.rcgu.o)
                0x000000000010e164                <core::ffi::c_str::CStr as core::clone::CloneToUninit>::clone_to_uninit
 .text._ZN57_$LT$core..error..Request$u20$as$u20$core..fmt..Debug$GT$3fmt17h5f561f753496d82cE
                0x000000000010e184       0x54 ./gen/../rust_opt/target/armv7a-none-eabi/release/libitron.a(core-d049573bc16596f9.core.5587a85061e7188a-cgu.0.rcgu.o)
                0x000000000010e184                <core::error::Request as core::fmt::Debug>::fmt
 .text._ZN78_$LT$core..error..Source$u20$as$u20$core..iter..traits..iterator..Iterator$GT$4next17h4a1fc4a2554e7eceE
                0x000000000010e1d8       0x4c ./gen/../rust_opt/target/armv7a-none-eabi/release/libitron.a(core-d049573bc16596f9.core.5587a85061e7188a-cgu.0.rcgu.o)
                0x000000000010e1d8                <core::error::Source as core::iter::traits::iterator::Iterator>::next
 .text._ZN64_$LT$core..ops..range..RangeFull$u20$as$u20$core..fmt..Debug$GT$3fmt17h424403ffd1288619E
                0x000000000010e224       0x24 ./gen/../rust_opt/target/armv7a-none-eabi/release/libitron.a(core-d049573bc16596f9.core.5587a85061e7188a-cgu.0.rcgu.o)
                0x000000000010e224                <core::ops::range::RangeFull as core::fmt::Debug>::fmt
 .text._ZN71_$LT$core..ops..range..Range$LT$Idx$GT$$u20$as$u20$core..fmt..Debug$GT$3fmt17ha953e6102122b0f8E
                0x000000000010e248      0x1c8 ./gen/../rust_opt/target/armv7a-none-eabi/release/libitron.a(core-d049573bc16596f9.core.5587a85061e7188a-cgu.0.rcgu.o)
 .text._ZN105_$LT$dyn$u20$core..any..Any$u2b$core..marker..Sync$u2b$core..marker..Send$u20$as$u20$core..fmt..Debug$GT$3fmt17habd8592b3ad60da5E
                0x000000000010e410       0x54 ./gen/../rust_opt/target/armv7a-none-eabi/release/libitron.a(core-d049573bc16596f9.core.5587a85061e7188a-cgu.0.rcgu.o)
                0x000000000010e410                <dyn core::any::Any+core::marker::Send as core::fmt::Debug>::fmt
                0x000000000010e410                <dyn core::any::Any as core::fmt::Debug>::fmt
                0x000000000010e410                <dyn core::any::Any+core::marker::Sync+core::marker::Send as core::fmt::Debug>::fmt
 .text._ZN54_$LT$core..any..TypeId$u20$as$u20$core..fmt..Debug$GT$3fmt17h85ceed27d8f181fdE
                0x000000000010e464       0x78 ./gen/../rust_opt/target/armv7a-none-eabi/release/libitron.a(core-d049573bc16596f9.core.5587a85061e7188a-cgu.0.rcgu.o)
                0x000000000010e464                <core::any::TypeId as core::fmt::Debug>::fmt
 .text._ZN73_$LT$core..ascii..ascii_char..AsciiChar$u20$as$u20$core..fmt..Display$GT$3fmt17h8431bf4e4f9d1f68E
                0x000000000010e4dc       0x20 ./gen/../rust_opt/target/armv7a-none-eabi/release/libitron.a(core-d049573bc16596f9.core.5587a85061e7188a-cgu.0.rcgu.o)
                0x000000000010e4dc                <core::ascii::ascii_char::AsciiChar as core::fmt::Display>::fmt
 .text._ZN71_$LT$core..ascii..ascii_char..AsciiChar$u20$as$u20$core..fmt..Debug$GT$3fmt17h177c64a4e196f32cE
                0x000000000010e4fc      0x1a8 ./gen/../rust_opt/target/armv7a-none-eabi/release/libitron.a(core-d049573bc16596f9.core.5587a85061e7188a-cgu.0.rcgu.o)
                0x000000000010e4fc                <core::ascii::ascii_char::AsciiChar as core::fmt::Debug>::fmt
 .text._ZN4core5ascii14escape_default17h981d8e307eaaa916E
                0x000000000010e6a4       0x98 ./gen/../rust_opt/target/armv7a-none-eabi/release/libitron.a(core-d049573bc16596f9.core.5587a85061e7188a-cgu.0.rcgu.o)
                0x000000000010e6a4                core::ascii::escape_default
 .text._ZN65_$LT$core..ascii..EscapeDefault$u20$as$u20$core..fmt..Display$GT$3fmt17he735515427ec3f2cE
                0x000000000010e73c       0x30 ./gen/../rust_opt/target/armv7a-none-eabi/release/libitron.a(core-d049573bc16596f9.core.5587a85061e7188a-cgu.0.rcgu.o)
                0x000000000010e73c                <core::ascii::EscapeDefault as core::fmt::Display>::fmt
 .text._ZN63_$LT$core..ascii..EscapeDefault$u20$as$u20$core..fmt..Debug$GT$3fmt17h46f02f61de5321cbE
                0x000000000010e76c       0x54 ./gen/../rust_opt/target/armv7a-none-eabi/release/libitron.a(core-d049573bc16596f9.core.5587a85061e7188a-cgu.0.rcgu.o)
                0x000000000010e76c                <core::ascii::EscapeDefault as core::fmt::Debug>::fmt
 .text._ZN56_$LT$core..bstr..ByteStr$u20$as$u20$core..fmt..Debug$GT$3fmt17h8b572b2661a1de36E
                0x000000000010e7c0      0x310 ./gen/../rust_opt/target/armv7a-none-eabi/release/libitron.a(core-d049573bc16596f9.core.5587a85061e7188a-cgu.0.rcgu.o)
                0x000000000010e7c0                <core::bstr::ByteStr as core::fmt::Debug>::fmt
 .text._ZN58_$LT$core..bstr..ByteStr$u20$as$u20$core..fmt..Display$GT$3fmt17he4ae28f23ce65a58E
                0x000000000010ead0      0x340 ./gen/../rust_opt/target/armv7a-none-eabi/release/libitron.a(core-d049573bc16596f9.core.5587a85061e7188a-cgu.0.rcgu.o)
                0x000000000010ead0                <core::bstr::ByteStr as core::fmt::Display>::fmt
 .text.unlikely._ZN4core4cell4lazy14panic_poisoned17h8eb5d443042c4736E
                0x000000000010ee10       0x44 ./gen/../rust_opt/target/armv7a-none-eabi/release/libitron.a(core-d049573bc16596f9.core.5587a85061e7188a-cgu.0.rcgu.o)
                0x000000000010ee10                core::cell::lazy::panic_poisoned
 .text._ZN60_$LT$core..cell..BorrowError$u20$as$u20$core..fmt..Debug$GT$3fmt17h56da770da5e11014E
                0x000000000010ee54       0x24 ./gen/../rust_opt/target/armv7a-none-eabi/release/libitron.a(core-d049573bc16596f9.core.5587a85061e7188a-cgu.0.rcgu.o)
                0x000000000010ee54                <core::cell::BorrowError as core::fmt::Debug>::fmt
 .text._ZN62_$LT$core..cell..BorrowError$u20$as$u20$core..fmt..Display$GT$3fmt17h649aaf4112417b69E
                0x000000000010ee78       0x20 ./gen/../rust_opt/target/armv7a-none-eabi/release/libitron.a(core-d049573bc16596f9.core.5587a85061e7188a-cgu.0.rcgu.o)
                0x000000000010ee78                <core::cell::BorrowError as core::fmt::Display>::fmt
 .text._ZN63_$LT$core..cell..BorrowMutError$u20$as$u20$core..fmt..Debug$GT$3fmt17h5dd54cc4ab093714E
                0x000000000010ee98       0x24 ./gen/../rust_opt/target/armv7a-none-eabi/release/libitron.a(core-d049573bc16596f9.core.5587a85061e7188a-cgu.0.rcgu.o)
                0x000000000010ee98                <core::cell::BorrowMutError as core::fmt::Debug>::fmt
 .text._ZN65_$LT$core..cell..BorrowMutError$u20$as$u20$core..fmt..Display$GT$3fmt17h2f7647931a1ef38bE
                0x000000000010eebc       0x20 ./gen/../rust_opt/target/armv7a-none-eabi/release/libitron.a(core-d049573bc16596f9.core.5587a85061e7188a-cgu.0.rcgu.o)
                0x000000000010eebc                <core::cell::BorrowMutError as core::fmt::Display>::fmt
 .text.unlikely._ZN4core4cell22panic_already_borrowed17h058b49ead05ac00bE
                0x000000000010eedc       0x54 ./gen/../rust_opt/target/armv7a-none-eabi/release/libitron.a(core-d049573bc16596f9.core.5587a85061e7188a-cgu.0.rcgu.o)
                0x000000000010eedc                core::cell::panic_already_borrowed
 .text.unlikely._ZN4core4cell30panic_already_mutably_borrowed17h9c448cf1bc13461aE
                0x000000000010ef30       0x54 ./gen/../rust_opt/target/armv7a-none-eabi/release/libitron.a(core-d049573bc16596f9.core.5587a85061e7188a-cgu.0.rcgu.o)
                0x000000000010ef30                core::cell::panic_already_mutably_borrowed
 .text._ZN74_$LT$core..char..convert..ParseCharError$u20$as$u20$core..fmt..Display$GT$3fmt17hcaa7912ed162bf56E
                0x000000000010ef84       0x48 ./gen/../rust_opt/target/armv7a-none-eabi/release/libitron.a(core-d049573bc16596f9.core.5587a85061e7188a-cgu.0.rcgu.o)
                0x000000000010ef84                <core::char::convert::ParseCharError as core::fmt::Display>::fmt
 .text._ZN76_$LT$core..char..convert..CharTryFromError$u20$as$u20$core..fmt..Display$GT$3fmt17h19f1ba4eab42fadcE
                0x000000000010efcc       0x20 ./gen/../rust_opt/target/armv7a-none-eabi/release/libitron.a(core-d049573bc16596f9.core.5587a85061e7188a-cgu.0.rcgu.o)
                0x000000000010efcc                <core::char::convert::CharTryFromError as core::fmt::Display>::fmt
 .text._ZN75_$LT$core..char..decode..DecodeUtf16Error$u20$as$u20$core..fmt..Display$GT$3fmt17hdcf3babdf2cfe76aE
                0x000000000010efec       0x54 ./gen/../rust_opt/target/armv7a-none-eabi/release/libitron.a(core-d049573bc16596f9.core.5587a85061e7188a-cgu.0.rcgu.o)
                0x000000000010efec                <core::char::decode::DecodeUtf16Error as core::fmt::Display>::fmt
 .text._ZN4core4char7methods22_$LT$impl$u20$char$GT$16escape_debug_ext17hd46ad63d40b7f951E
                0x000000000010f040      0x3c0 ./gen/../rust_opt/target/armv7a-none-eabi/release/libitron.a(core-d049573bc16596f9.core.5587a85061e7188a-cgu.0.rcgu.o)
 .text._ZN64_$LT$core..char..EscapeDefault$u20$as$u20$core..fmt..Display$GT$3fmt17h38aec28b84124e92E
                0x000000000010f400       0x30 ./gen/../rust_opt/target/armv7a-none-eabi/release/libitron.a(core-d049573bc16596f9.core.5587a85061e7188a-cgu.0.rcgu.o)
                0x000000000010f400                <core::char::EscapeUnicode as core::fmt::Display>::fmt
                0x000000000010f400                <core::char::EscapeDefault as core::fmt::Display>::fmt
 .text._ZN62_$LT$core..char..EscapeDebug$u20$as$u20$core..fmt..Display$GT$3fmt17hafc69afb2cba63d2E
                0x000000000010f430       0x50 ./gen/../rust_opt/target/armv7a-none-eabi/release/libitron.a(core-d049573bc16596f9.core.5587a85061e7188a-cgu.0.rcgu.o)
                0x000000000010f430                <core::char::EscapeDebug as core::fmt::Display>::fmt
 .text._ZN86_$LT$core..char..CaseMappingIter$u20$as$u20$core..iter..traits..iterator..Iterator$GT$4next17h387613f301dd4fd8E
                0x000000000010f480       0x28 ./gen/../rust_opt/target/armv7a-none-eabi/release/libitron.a(core-d049573bc16596f9.core.5587a85061e7188a-cgu.0.rcgu.o)
                0x000000000010f480                <core::char::CaseMappingIter as core::iter::traits::iterator::Iterator>::next
 .text._ZN86_$LT$core..char..CaseMappingIter$u20$as$u20$core..iter..traits..iterator..Iterator$GT$5count17h9c99394d14e09439E
                0x000000000010f4a8       0x14 ./gen/../rust_opt/target/armv7a-none-eabi/release/libitron.a(core-d049573bc16596f9.core.5587a85061e7188a-cgu.0.rcgu.o)
                0x000000000010f4a8                <core::char::CaseMappingIter as core::iter::traits::iterator::Iterator>::count
 .text._ZN86_$LT$core..char..CaseMappingIter$u20$as$u20$core..iter..traits..iterator..Iterator$GT$4last17h4812d7f7192ee524E
                0x000000000010f4bc       0x40 ./gen/../rust_opt/target/armv7a-none-eabi/release/libitron.a(core-d049573bc16596f9.core.5587a85061e7188a-cgu.0.rcgu.o)
                0x000000000010f4bc                <core::char::CaseMappingIter as core::iter::traits::iterator::Iterator>::last
 .text._ZN86_$LT$core..char..CaseMappingIter$u20$as$u20$core..iter..traits..iterator..Iterator$GT$10advance_by17h0f8a06432075b566E
                0x000000000010f4fc       0x28 ./gen/../rust_opt/target/armv7a-none-eabi/release/libitron.a(core-d049573bc16596f9.core.5587a85061e7188a-cgu.0.rcgu.o)
                0x000000000010f4fc                <core::char::CaseMappingIter as core::iter::traits::iterator::Iterator>::advance_by
 .text._ZN86_$LT$core..char..CaseMappingIter$u20$as$u20$core..iter..traits..iterator..Iterator$GT$24__iterator_get_unchecked17hee300516a572f4b8E
                0x000000000010f524       0x1c ./gen/../rust_opt/target/armv7a-none-eabi/release/libitron.a(core-d049573bc16596f9.core.5587a85061e7188a-cgu.0.rcgu.o)
                0x000000000010f524                <core::char::CaseMappingIter as core::iter::traits::iterator::Iterator>::__iterator_get_unchecked
 .text._ZN101_$LT$core..char..CaseMappingIter$u20$as$u20$core..iter..traits..double_ended..DoubleEndedIterator$GT$9next_back17h0013dfa0a23bb5c3E
                0x000000000010f540       0x2c ./gen/../rust_opt/target/armv7a-none-eabi/release/libitron.a(core-d049573bc16596f9.core.5587a85061e7188a-cgu.0.rcgu.o)
                0x000000000010f540                <core::char::CaseMappingIter as core::iter::traits::double_ended::DoubleEndedIterator>::next_back
 .text._ZN101_$LT$core..char..CaseMappingIter$u20$as$u20$core..iter..traits..double_ended..DoubleEndedIterator$GT$15advance_back_by17h0e7ec4b92a9eb744E
                0x000000000010f56c       0x28 ./gen/../rust_opt/target/armv7a-none-eabi/release/libitron.a(core-d049573bc16596f9.core.5587a85061e7188a-cgu.0.rcgu.o)
                0x000000000010f56c                <core::char::CaseMappingIter as core::iter::traits::double_ended::DoubleEndedIterator>::advance_back_by
 .text._ZN67_$LT$core..char..TryFromCharError$u20$as$u20$core..fmt..Display$GT$3fmt17hbf1b0a686f8a1a69E
                0x000000000010f594       0x20 ./gen/../rust_opt/target/armv7a-none-eabi/release/libitron.a(core-d049573bc16596f9.core.5587a85061e7188a-cgu.0.rcgu.o)
                0x000000000010f594                <core::char::TryFromCharError as core::fmt::Display>::fmt
 .text._ZN79_$LT$core..ffi..c_str..FromBytesUntilNulError$u20$as$u20$core..fmt..Display$GT$3fmt17h71f2c90ca2a80addE
                0x000000000010f5b4       0x24 ./gen/../rust_opt/target/armv7a-none-eabi/release/libitron.a(core-d049573bc16596f9.core.5587a85061e7188a-cgu.0.rcgu.o)
                0x000000000010f5b4                <core::ffi::c_str::FromBytesUntilNulError as core::fmt::Display>::fmt
 .text._ZN59_$LT$core..ffi..c_str..CStr$u20$as$u20$core..fmt..Debug$GT$3fmt17h36ba4289086816d4E
                0x000000000010f5d8       0x7c ./gen/../rust_opt/target/armv7a-none-eabi/release/libitron.a(core-d049573bc16596f9.core.5587a85061e7188a-cgu.0.rcgu.o)
                0x000000000010f5d8                <core::ffi::c_str::CStr as core::fmt::Debug>::fmt
 .text._ZN78_$LT$core..ffi..c_str..FromBytesWithNulError$u20$as$u20$core..fmt..Display$GT$3fmt17hd6785df6bd44c25dE
                0x000000000010f654       0xc4 ./gen/../rust_opt/target/armv7a-none-eabi/release/libitron.a(core-d049573bc16596f9.core.5587a85061e7188a-cgu.0.rcgu.o)
                0x000000000010f654                <core::ffi::c_str::FromBytesWithNulError as core::fmt::Display>::fmt
 .text._ZN4core3ffi5c_str4CStr20from_bytes_until_nul17h223b6a3545723cc2E
                0x000000000010f718      0x1b8 ./gen/../rust_opt/target/armv7a-none-eabi/release/libitron.a(core-d049573bc16596f9.core.5587a85061e7188a-cgu.0.rcgu.o)
                0x000000000010f718                core::ffi::c_str::CStr::from_bytes_until_nul
 .text._ZN4core3ffi5c_str4CStr19from_bytes_with_nul17h924bc5b5323bf05eE
                0x000000000010f8d0      0x1cc ./gen/../rust_opt/target/armv7a-none-eabi/release/libitron.a(core-d049573bc16596f9.core.5587a85061e7188a-cgu.0.rcgu.o)
                0x000000000010f8d0                core::ffi::c_str::CStr::from_bytes_with_nul
 .text._ZN4core3ffi5c_str4CStr6to_str17hc1faa40fb638a30eE
                0x000000000010fa9c       0x14 ./gen/../rust_opt/target/armv7a-none-eabi/release/libitron.a(core-d049573bc16596f9.core.5587a85061e7188a-cgu.0.rcgu.o)
                0x000000000010fa9c                core::ffi::c_str::CStr::to_str
 .text._ZN67_$LT$core..ffi..va_list..VaListImpl$u20$as$u20$core..fmt..Debug$GT$3fmt17hd26f911d47b97956E
                0x000000000010fab0       0x54 ./gen/../rust_opt/target/armv7a-none-eabi/release/libitron.a(core-d049573bc16596f9.core.5587a85061e7188a-cgu.0.rcgu.o)
                0x000000000010fab0                <core::ffi::va_list::VaListImpl as core::fmt::Debug>::fmt
 .text._ZN54_$LT$core..ffi..c_void$u20$as$u20$core..fmt..Debug$GT$3fmt17h3b27b77d454a7b00E
                0x000000000010fb04       0x24 ./gen/../rust_opt/target/armv7a-none-eabi/release/libitron.a(core-d049573bc16596f9.core.5587a85061e7188a-cgu.0.rcgu.o)
                0x000000000010fb04                <core::ffi::c_void as core::fmt::Debug>::fmt
 .text._ZN72_$LT$core..io..borrowed_buf..BorrowedBuf$u20$as$u20$core..fmt..Debug$GT$3fmt17h8c5373e369933a1eE
                0x000000000010fb28      0x114 ./gen/../rust_opt/target/armv7a-none-eabi/release/libitron.a(core-d049573bc16596f9.core.5587a85061e7188a-cgu.0.rcgu.o)
                0x000000000010fb28                <core::io::borrowed_buf::BorrowedBuf as core::fmt::Debug>::fmt
 .text._ZN86_$LT$core..net..display_buffer..DisplayBuffer$LT$_$GT$$u20$as$u20$core..fmt..Write$GT$9write_str17h297baed95332eae7E
                0x000000000010fc3c       0x48 ./gen/../rust_opt/target/armv7a-none-eabi/release/libitron.a(core-d049573bc16596f9.core.5587a85061e7188a-cgu.0.rcgu.o)
 .text._ZN86_$LT$core..net..display_buffer..DisplayBuffer$LT$_$GT$$u20$as$u20$core..fmt..Write$GT$9write_str17h839f220912462241E
                0x000000000010fc84       0x48 ./gen/../rust_opt/target/armv7a-none-eabi/release/libitron.a(core-d049573bc16596f9.core.5587a85061e7188a-cgu.0.rcgu.o)
 .text._ZN86_$LT$core..net..display_buffer..DisplayBuffer$LT$_$GT$$u20$as$u20$core..fmt..Write$GT$9write_str17h8badf8473d9a4002E
                0x000000000010fccc       0x48 ./gen/../rust_opt/target/armv7a-none-eabi/release/libitron.a(core-d049573bc16596f9.core.5587a85061e7188a-cgu.0.rcgu.o)
 .text._ZN86_$LT$core..net..display_buffer..DisplayBuffer$LT$_$GT$$u20$as$u20$core..fmt..Write$GT$9write_str17hd35c8bb425293b8bE
                0x000000000010fd14       0x48 ./gen/../rust_opt/target/armv7a-none-eabi/release/libitron.a(core-d049573bc16596f9.core.5587a85061e7188a-cgu.0.rcgu.o)
 .text._ZN65_$LT$core..net..ip_addr..IpAddr$u20$as$u20$core..fmt..Display$GT$3fmt17h3168c33a3915df90E
                0x000000000010fd5c       0x24 ./gen/../rust_opt/target/armv7a-none-eabi/release/libitron.a(core-d049573bc16596f9.core.5587a85061e7188a-cgu.0.rcgu.o)
                0x000000000010fd5c                <core::net::ip_addr::IpAddr as core::fmt::Display>::fmt
 .text._ZN63_$LT$core..net..ip_addr..IpAddr$u20$as$u20$core..fmt..Debug$GT$3fmt17hfda05f36d5a749a6E
                0x000000000010fd80       0x24 ./gen/../rust_opt/target/armv7a-none-eabi/release/libitron.a(core-d049573bc16596f9.core.5587a85061e7188a-cgu.0.rcgu.o)
                0x000000000010fd80                <core::net::ip_addr::IpAddr as core::fmt::Debug>::fmt
 .text._ZN67_$LT$core..net..ip_addr..Ipv4Addr$u20$as$u20$core..fmt..Display$GT$3fmt17h8a7f4864e9af7f6bE
                0x000000000010fda4      0x194 ./gen/../rust_opt/target/armv7a-none-eabi/release/libitron.a(core-d049573bc16596f9.core.5587a85061e7188a-cgu.0.rcgu.o)
                0x000000000010fda4                <core::net::ip_addr::Ipv4Addr as core::fmt::Display>::fmt
 .text._ZN65_$LT$core..net..ip_addr..Ipv4Addr$u20$as$u20$core..fmt..Debug$GT$3fmt17h6a51679a1ff6e7e2E
                0x000000000010ff38       0x10 ./gen/../rust_opt/target/armv7a-none-eabi/release/libitron.a(core-d049573bc16596f9.core.5587a85061e7188a-cgu.0.rcgu.o)
                0x000000000010ff38                <core::net::ip_addr::Ipv4Addr as core::fmt::Debug>::fmt
 .text._ZN67_$LT$core..net..ip_addr..Ipv6Addr$u20$as$u20$core..fmt..Display$GT$3fmt17ha09719cd9f4aecf6E
                0x000000000010ff48      0x824 ./gen/../rust_opt/target/armv7a-none-eabi/release/libitron.a(core-d049573bc16596f9.core.5587a85061e7188a-cgu.0.rcgu.o)
                0x000000000010ff48                <core::net::ip_addr::Ipv6Addr as core::fmt::Display>::fmt
 .text._ZN67_$LT$core..net..ip_addr..Ipv6Addr$u20$as$u20$core..fmt..Display$GT$3fmt12fmt_subslice17hba89c8432023046dE
                0x000000000011076c      0x130 ./gen/../rust_opt/target/armv7a-none-eabi/release/libitron.a(core-d049573bc16596f9.core.5587a85061e7188a-cgu.0.rcgu.o)
 .text._ZN65_$LT$core..net..ip_addr..Ipv6Addr$u20$as$u20$core..fmt..Debug$GT$3fmt17hd7b6c05483d437dbE
                0x000000000011089c       0x10 ./gen/../rust_opt/target/armv7a-none-eabi/release/libitron.a(core-d049573bc16596f9.core.5587a85061e7188a-cgu.0.rcgu.o)
                0x000000000011089c                <core::net::ip_addr::Ipv6Addr as core::fmt::Debug>::fmt
 .text._ZN4core3net6parser6Parser11read_number28_$u7b$$u7b$closure$u7d$$u7d$17hcfdf77b7d41ca56bE
                0x00000000001108ac      0x304 ./gen/../rust_opt/target/armv7a-none-eabi/release/libitron.a(core-d049573bc16596f9.core.5587a85061e7188a-cgu.0.rcgu.o)
 .text._ZN4core3net6parser6Parser14read_ipv4_addr17h3efba67ec1312042E
                0x0000000000110bb0      0x37c ./gen/../rust_opt/target/armv7a-none-eabi/release/libitron.a(core-d049573bc16596f9.core.5587a85061e7188a-cgu.0.rcgu.o)
 .text._ZN4core3net6parser6Parser14read_ipv6_addr17h54c8b5ef622aafb8E
                0x0000000000110f2c      0x224 ./gen/../rust_opt/target/armv7a-none-eabi/release/libitron.a(core-d049573bc16596f9.core.5587a85061e7188a-cgu.0.rcgu.o)
 .text._ZN4core3net6parser6Parser14read_ipv6_addr11read_groups17h16f736446e4eaddeE
                0x0000000000111150      0x230 ./gen/../rust_opt/target/armv7a-none-eabi/release/libitron.a(core-d049573bc16596f9.core.5587a85061e7188a-cgu.0.rcgu.o)
 .text._ZN4core3net6parser6Parser19read_socket_addr_v617hb4d45e4b5ba1a4d4E
                0x0000000000111380      0x278 ./gen/../rust_opt/target/armv7a-none-eabi/release/libitron.a(core-d049573bc16596f9.core.5587a85061e7188a-cgu.0.rcgu.o)
 .text._ZN4core3net6parser44_$LT$impl$u20$core..net..ip_addr..IpAddr$GT$11parse_ascii17hd7ed4f332f3caa79E
                0x00000000001115f8      0x168 ./gen/../rust_opt/target/armv7a-none-eabi/release/libitron.a(core-d049573bc16596f9.core.5587a85061e7188a-cgu.0.rcgu.o)
                0x00000000001115f8                core::net::parser::<impl core::net::ip_addr::IpAddr>::parse_ascii
 .text._ZN4core3net6parser83_$LT$impl$u20$core..str..traits..FromStr$u20$for$u20$core..net..ip_addr..IpAddr$GT$8from_str17h49e46cb50b46901eE
                0x0000000000111760      0x168 ./gen/../rust_opt/target/armv7a-none-eabi/release/libitron.a(core-d049573bc16596f9.core.5587a85061e7188a-cgu.0.rcgu.o)
                0x0000000000111760                core::net::parser::<impl core::str::traits::FromStr for core::net::ip_addr::IpAddr>::from_str
 .text._ZN4core3net6parser46_$LT$impl$u20$core..net..ip_addr..Ipv4Addr$GT$11parse_ascii17h8028e1785cb7be5fE
                0x00000000001118c8       0x9c ./gen/../rust_opt/target/armv7a-none-eabi/release/libitron.a(core-d049573bc16596f9.core.5587a85061e7188a-cgu.0.rcgu.o)
                0x00000000001118c8                core::net::parser::<impl core::net::ip_addr::Ipv4Addr>::parse_ascii
 .text._ZN4core3net6parser85_$LT$impl$u20$core..str..traits..FromStr$u20$for$u20$core..net..ip_addr..Ipv4Addr$GT$8from_str17hc3217d4e0e33b7d5E
                0x0000000000111964       0x9c ./gen/../rust_opt/target/armv7a-none-eabi/release/libitron.a(core-d049573bc16596f9.core.5587a85061e7188a-cgu.0.rcgu.o)
                0x0000000000111964                core::net::parser::<impl core::str::traits::FromStr for core::net::ip_addr::Ipv4Addr>::from_str
 .text._ZN4core3net6parser46_$LT$impl$u20$core..net..ip_addr..Ipv6Addr$GT$11parse_ascii17h767d275eb73823beE
                0x0000000000111a00       0x8c ./gen/../rust_opt/target/armv7a-none-eabi/release/libitron.a(core-d049573bc16596f9.core.5587a85061e7188a-cgu.0.rcgu.o)
                0x0000000000111a00                core::net::parser::<impl core::net::ip_addr::Ipv6Addr>::parse_ascii
 .text._ZN4core3net6parser85_$LT$impl$u20$core..str..traits..FromStr$u20$for$u20$core..net..ip_addr..Ipv6Addr$GT$8from_str17h685b7483d3d506d7E
                0x0000000000111a8c       0x8c ./gen/../rust_opt/target/armv7a-none-eabi/release/libitron.a(core-d049573bc16596f9.core.5587a85061e7188a-cgu.0.rcgu.o)
                0x0000000000111a8c                core::net::parser::<impl core::str::traits::FromStr for core::net::ip_addr::Ipv6Addr>::from_str
 .text._ZN4core3net6parser54_$LT$impl$u20$core..net..socket_addr..SocketAddrV4$GT$11parse_ascii17hc07de5cf09e25fb1E
                0x0000000000111b18       0xfc ./gen/../rust_opt/target/armv7a-none-eabi/release/libitron.a(core-d049573bc16596f9.core.5587a85061e7188a-cgu.0.rcgu.o)
                0x0000000000111b18                core::net::parser::<impl core::net::socket_addr::SocketAddrV4>::parse_ascii
 .text._ZN4core3net6parser93_$LT$impl$u20$core..str..traits..FromStr$u20$for$u20$core..net..socket_addr..SocketAddrV4$GT$8from_str17h5883a36bbe26488dE
                0x0000000000111c14       0xfc ./gen/../rust_opt/target/armv7a-none-eabi/release/libitron.a(core-d049573bc16596f9.core.5587a85061e7188a-cgu.0.rcgu.o)
                0x0000000000111c14                core::net::parser::<impl core::str::traits::FromStr for core::net::socket_addr::SocketAddrV4>::from_str
 .text._ZN4core3net6parser54_$LT$impl$u20$core..net..socket_addr..SocketAddrV6$GT$11parse_ascii17hbe6498756ef255a7E
                0x0000000000111d10       0x7c ./gen/../rust_opt/target/armv7a-none-eabi/release/libitron.a(core-d049573bc16596f9.core.5587a85061e7188a-cgu.0.rcgu.o)
                0x0000000000111d10                core::net::parser::<impl core::net::socket_addr::SocketAddrV6>::parse_ascii
 .text._ZN4core3net6parser93_$LT$impl$u20$core..str..traits..FromStr$u20$for$u20$core..net..socket_addr..SocketAddrV6$GT$8from_str17hf8a18b6a5bf3759eE
                0x0000000000111d8c       0x7c ./gen/../rust_opt/target/armv7a-none-eabi/release/libitron.a(core-d049573bc16596f9.core.5587a85061e7188a-cgu.0.rcgu.o)
                0x0000000000111d8c                core::net::parser::<impl core::str::traits::FromStr for core::net::socket_addr::SocketAddrV6>::from_str
 .text._ZN4core3net6parser52_$LT$impl$u20$core..net..socket_addr..SocketAddr$GT$11parse_ascii17h32c0686e61a62a97E
                0x0000000000111e08      0x18c ./gen/../rust_opt/target/armv7a-none-eabi/release/libitron.a(core-d049573bc16596f9.core.5587a85061e7188a-cgu.0.rcgu.o)
                0x0000000000111e08                core::net::parser::<impl core::net::socket_addr::SocketAddr>::parse_ascii
 .text._ZN4core3net6parser91_$LT$impl$u20$core..str..traits..FromStr$u20$for$u20$core..net..socket_addr..SocketAddr$GT$8from_str17he89fdbe831fc4256E
                0x0000000000111f94       0x10 ./gen/../rust_opt/target/armv7a-none-eabi/release/libitron.a(core-d049573bc16596f9.core.5587a85061e7188a-cgu.0.rcgu.o)
                0x0000000000111f94                core::net::parser::<impl core::str::traits::FromStr for core::net::socket_addr::SocketAddr>::from_str
 .text._ZN72_$LT$core..net..parser..AddrParseError$u20$as$u20$core..fmt..Display$GT$3fmt17hd7f7df04664d2864E
                0x0000000000111fa4       0x38 ./gen/../rust_opt/target/armv7a-none-eabi/release/libitron.a(core-d049573bc16596f9.core.5587a85061e7188a-cgu.0.rcgu.o)
                0x0000000000111fa4                <core::net::parser::AddrParseError as core::fmt::Display>::fmt
 .text._ZN73_$LT$core..net..socket_addr..SocketAddr$u20$as$u20$core..fmt..Display$GT$3fmt17hd0e981e04411525aE
                0x0000000000111fdc       0x2c ./gen/../rust_opt/target/armv7a-none-eabi/release/libitron.a(core-d049573bc16596f9.core.5587a85061e7188a-cgu.0.rcgu.o)
                0x0000000000111fdc                <core::net::socket_addr::SocketAddr as core::fmt::Display>::fmt
 .text._ZN71_$LT$core..net..socket_addr..SocketAddr$u20$as$u20$core..fmt..Debug$GT$3fmt17hd95cf7ae4353c951E
                0x0000000000112008       0x2c ./gen/../rust_opt/target/armv7a-none-eabi/release/libitron.a(core-d049573bc16596f9.core.5587a85061e7188a-cgu.0.rcgu.o)
                0x0000000000112008                <core::net::socket_addr::SocketAddr as core::fmt::Debug>::fmt
 .text._ZN75_$LT$core..net..socket_addr..SocketAddrV4$u20$as$u20$core..fmt..Display$GT$3fmt17hb358e369cb8dcc74E
                0x0000000000112034      0x16c ./gen/../rust_opt/target/armv7a-none-eabi/release/libitron.a(core-d049573bc16596f9.core.5587a85061e7188a-cgu.0.rcgu.o)
                0x0000000000112034                <core::net::socket_addr::SocketAddrV4 as core::fmt::Display>::fmt
 .text._ZN73_$LT$core..net..socket_addr..SocketAddrV4$u20$as$u20$core..fmt..Debug$GT$3fmt17h47d2c03dbc6abbf5E
                0x00000000001121a0       0x10 ./gen/../rust_opt/target/armv7a-none-eabi/release/libitron.a(core-d049573bc16596f9.core.5587a85061e7188a-cgu.0.rcgu.o)
                0x00000000001121a0                <core::net::socket_addr::SocketAddrV4 as core::fmt::Debug>::fmt
 .text._ZN75_$LT$core..net..socket_addr..SocketAddrV6$u20$as$u20$core..fmt..Display$GT$3fmt17hb242d5ced67c2003E
                0x00000000001121b0      0x298 ./gen/../rust_opt/target/armv7a-none-eabi/release/libitron.a(core-d049573bc16596f9.core.5587a85061e7188a-cgu.0.rcgu.o)
                0x00000000001121b0                <core::net::socket_addr::SocketAddrV6 as core::fmt::Display>::fmt
 .text._ZN73_$LT$core..net..socket_addr..SocketAddrV6$u20$as$u20$core..fmt..Debug$GT$3fmt17h008793ff64f0e572E
                0x0000000000112448       0x10 ./gen/../rust_opt/target/armv7a-none-eabi/release/libitron.a(core-d049573bc16596f9.core.5587a85061e7188a-cgu.0.rcgu.o)
                0x0000000000112448                <core::net::socket_addr::SocketAddrV6 as core::fmt::Debug>::fmt
 .text.unlikely._ZN4core6option13unwrap_failed17h39a76a4d9e444e97E
                0x0000000000112458       0x1c ./gen/../rust_opt/target/armv7a-none-eabi/release/libitron.a(core-d049573bc16596f9.core.5587a85061e7188a-cgu.0.rcgu.o)
                0x0000000000112458                core::option::unwrap_failed
 .text.unlikely._ZN4core6option13expect_failed17hf032828b69e8f9cdE
                0x0000000000112474       0x58 ./gen/../rust_opt/target/armv7a-none-eabi/release/libitron.a(core-d049573bc16596f9.core.5587a85061e7188a-cgu.0.rcgu.o)
                0x0000000000112474                core::option::expect_failed
 .text._ZN73_$LT$core..panic..panic_info..PanicInfo$u20$as$u20$core..fmt..Display$GT$3fmt17he8ae0930573845dbE
                0x00000000001124cc       0xfc ./gen/../rust_opt/target/armv7a-none-eabi/release/libitron.a(core-d049573bc16596f9.core.5587a85061e7188a-cgu.0.rcgu.o)
                0x00000000001124cc                <core::panic::panic_info::PanicInfo as core::fmt::Display>::fmt
 .text.unlikely._ZN4core9panicking9panic_fmt17h5145975cf535bc42E
                0x00000000001125c8       0x20 ./gen/../rust_opt/target/armv7a-none-eabi/release/libitron.a(core-d049573bc16596f9.core.5587a85061e7188a-cgu.0.rcgu.o)
                0x00000000001125c8                core::panicking::panic_fmt
 .text.unlikely._ZN4core9panicking18panic_nounwind_fmt17h7e174a309b689b0fE
                0x00000000001125e8       0x38 ./gen/../rust_opt/target/armv7a-none-eabi/release/libitron.a(core-d049573bc16596f9.core.5587a85061e7188a-cgu.0.rcgu.o)
                0x00000000001125e8                core::panicking::panic_nounwind_fmt
 .text.unlikely._ZN4core9panicking5panic17h04eb6169f90051c3E
                0x0000000000112620       0x44 ./gen/../rust_opt/target/armv7a-none-eabi/release/libitron.a(core-d049573bc16596f9.core.5587a85061e7188a-cgu.0.rcgu.o)
                0x0000000000112620                core::panicking::panic
 .text.unlikely._ZN4core9panicking14panic_nounwind17hb8efc6a66a7c1fb5E
                0x0000000000112664       0x48 ./gen/../rust_opt/target/armv7a-none-eabi/release/libitron.a(core-d049573bc16596f9.core.5587a85061e7188a-cgu.0.rcgu.o)
                0x0000000000112664                core::panicking::panic_nounwind
 .text.unlikely._ZN4core9panicking26panic_nounwind_nobacktrace17hcf6b6f7ce89f1dabE
                0x00000000001126ac       0x48 ./gen/../rust_opt/target/armv7a-none-eabi/release/libitron.a(core-d049573bc16596f9.core.5587a85061e7188a-cgu.0.rcgu.o)
                0x00000000001126ac                core::panicking::panic_nounwind_nobacktrace
 .text.unlikely._ZN4core9panicking14panic_explicit17he7bebe483a3bfe34E
                0x00000000001126f4       0x58 ./gen/../rust_opt/target/armv7a-none-eabi/release/libitron.a(core-d049573bc16596f9.core.5587a85061e7188a-cgu.0.rcgu.o)
                0x00000000001126f4                core::panicking::panic_explicit
 .text.unlikely._ZN4core9panicking18panic_bounds_check17he2f51b500041724aE
                0x000000000011274c       0x64 ./gen/../rust_opt/target/armv7a-none-eabi/release/libitron.a(core-d049573bc16596f9.core.5587a85061e7188a-cgu.0.rcgu.o)
                0x000000000011274c                core::panicking::panic_bounds_check
 .text.unlikely._ZN4core9panicking36panic_misaligned_pointer_dereference17hca8f56f08697e9a1E
                0x00000000001127b0       0x6c ./gen/../rust_opt/target/armv7a-none-eabi/release/libitron.a(core-d049573bc16596f9.core.5587a85061e7188a-cgu.0.rcgu.o)
                0x00000000001127b0                core::panicking::panic_misaligned_pointer_dereference
 .text.unlikely._ZN4core9panicking30panic_null_pointer_dereference17hd07e38dada2babd1E
                0x000000000011281c       0x40 ./gen/../rust_opt/target/armv7a-none-eabi/release/libitron.a(core-d049573bc16596f9.core.5587a85061e7188a-cgu.0.rcgu.o)
                0x000000000011281c                core::panicking::panic_null_pointer_dereference
 .text.unlikely._ZN4core9panicking19panic_cannot_unwind17h88003aad7d959a86E
                0x000000000011285c       0x18 ./gen/../rust_opt/target/armv7a-none-eabi/release/libitron.a(core-d049573bc16596f9.core.5587a85061e7188a-cgu.0.rcgu.o)
                0x000000000011285c                core::panicking::panic_cannot_unwind
 .text.unlikely._ZN4core9panicking16panic_in_cleanup17he6ef00938a5a6327E
                0x0000000000112874       0x18 ./gen/../rust_opt/target/armv7a-none-eabi/release/libitron.a(core-d049573bc16596f9.core.5587a85061e7188a-cgu.0.rcgu.o)
                0x0000000000112874                core::panicking::panic_in_cleanup
 .text.unlikely._ZN4core9panicking15const_panic_fmt17h6a5d3cae6d10461cE
                0x000000000011288c       0x7c ./gen/../rust_opt/target/armv7a-none-eabi/release/libitron.a(core-d049573bc16596f9.core.5587a85061e7188a-cgu.0.rcgu.o)
                0x000000000011288c                core::panicking::const_panic_fmt
 .text.unlikely._ZN4core9panicking13assert_failed17h2f1d8849fc674a9bE
                0x0000000000112908       0x30 ./gen/../rust_opt/target/armv7a-none-eabi/release/libitron.a(core-d049573bc16596f9.core.5587a85061e7188a-cgu.0.rcgu.o)
                0x0000000000112908                core::panicking::assert_failed
 .text.unlikely._ZN4core9panicking13assert_failed17h8a42116d81ae2397E
                0x0000000000112938       0x30 ./gen/../rust_opt/target/armv7a-none-eabi/release/libitron.a(core-d049573bc16596f9.core.5587a85061e7188a-cgu.0.rcgu.o)
                0x0000000000112938                core::panicking::assert_failed
 .text._ZN84_$LT$core..panicking..assert_matches_failed..Pattern$u20$as$u20$core..fmt..Debug$GT$3fmt17h3bf79b8a4bc8fc51E
                0x0000000000112968       0x24 ./gen/../rust_opt/target/armv7a-none-eabi/release/libitron.a(core-d049573bc16596f9.core.5587a85061e7188a-cgu.0.rcgu.o)
                0x0000000000112968                <core::panicking::assert_matches_failed::Pattern as core::fmt::Debug>::fmt
 .text.unlikely._ZN4core9panicking19assert_failed_inner17h1f0479933a2bc628E
                0x000000000011298c      0x120 ./gen/../rust_opt/target/armv7a-none-eabi/release/libitron.a(core-d049573bc16596f9.core.5587a85061e7188a-cgu.0.rcgu.o)
                0x000000000011298c                core::panicking::assert_failed_inner
 .text._ZN48_$LT$char$u20$as$u20$core..pat..RangePattern$GT$7sub_one17hc1333cb071cfc1b6E
                0x0000000000112aac       0x58 ./gen/../rust_opt/target/armv7a-none-eabi/release/libitron.a(core-d049573bc16596f9.core.5587a85061e7188a-cgu.0.rcgu.o)
                0x0000000000112aac                <char as core::pat::RangePattern>::sub_one
 .text.unlikely._ZN4core6result13unwrap_failed17h238a41f9432ebe61E
                0x0000000000112b04       0x6c ./gen/../rust_opt/target/armv7a-none-eabi/release/libitron.a(core-d049573bc16596f9.core.5587a85061e7188a-cgu.0.rcgu.o)
                0x0000000000112b04                core::result::unwrap_failed
 .text._ZN67_$LT$core..sync..atomic..AtomicBool$u20$as$u20$core..fmt..Debug$GT$3fmt17h36e87f0defe65ad8E
                0x0000000000112b70       0x48 ./gen/../rust_opt/target/armv7a-none-eabi/release/libitron.a(core-d049573bc16596f9.core.5587a85061e7188a-cgu.0.rcgu.o)
                0x0000000000112b70                <core::sync::atomic::AtomicBool as core::fmt::Debug>::fmt
 .text._ZN4core3fmt8builders10PadAdapter4wrap17h8cec362b75ec2f49E
                0x0000000000112bb8       0x38 ./gen/../rust_opt/target/armv7a-none-eabi/release/libitron.a(core-d049573bc16596f9.core.5587a85061e7188a-cgu.0.rcgu.o)
                0x0000000000112bb8                core::fmt::builders::PadAdapter::wrap
 .text._ZN68_$LT$core..fmt..builders..PadAdapter$u20$as$u20$core..fmt..Write$GT$9write_str17hc81ad4e78c0c990cE
                0x0000000000112bf0      0x270 ./gen/../rust_opt/target/armv7a-none-eabi/release/libitron.a(core-d049573bc16596f9.core.5587a85061e7188a-cgu.0.rcgu.o)
                0x0000000000112bf0                <core::fmt::builders::PadAdapter as core::fmt::Write>::write_str
 .text._ZN68_$LT$core..fmt..builders..PadAdapter$u20$as$u20$core..fmt..Write$GT$10write_char17h121f3a024053ccfbE
                0x0000000000112e60       0x6c ./gen/../rust_opt/target/armv7a-none-eabi/release/libitron.a(core-d049573bc16596f9.core.5587a85061e7188a-cgu.0.rcgu.o)
                0x0000000000112e60                <core::fmt::builders::PadAdapter as core::fmt::Write>::write_char
 .text._ZN4core3fmt8builders11DebugStruct5field17h118827344b19fbe7E
                0x0000000000112ecc      0x1d0 ./gen/../rust_opt/target/armv7a-none-eabi/release/libitron.a(core-d049573bc16596f9.core.5587a85061e7188a-cgu.0.rcgu.o)
                0x0000000000112ecc                core::fmt::builders::DebugStruct::field
 .text._ZN4core3fmt8builders11DebugStruct21finish_non_exhaustive17ha59f74934d70120cE
                0x000000000011309c       0xd4 ./gen/../rust_opt/target/armv7a-none-eabi/release/libitron.a(core-d049573bc16596f9.core.5587a85061e7188a-cgu.0.rcgu.o)
                0x000000000011309c                core::fmt::builders::DebugStruct::finish_non_exhaustive
 .text._ZN4core3fmt8builders11DebugStruct6finish17h62dcffc385683e70E
                0x0000000000113170       0x84 ./gen/../rust_opt/target/armv7a-none-eabi/release/libitron.a(core-d049573bc16596f9.core.5587a85061e7188a-cgu.0.rcgu.o)
                0x0000000000113170                core::fmt::builders::DebugStruct::finish
 .text._ZN4core3fmt8builders10DebugTuple5field17hd25f2ea26ee9220fE
                0x00000000001131f4      0x184 ./gen/../rust_opt/target/armv7a-none-eabi/release/libitron.a(core-d049573bc16596f9.core.5587a85061e7188a-cgu.0.rcgu.o)
                0x00000000001131f4                core::fmt::builders::DebugTuple::field
 .text._ZN4core3fmt8builders10DebugTuple21finish_non_exhaustive17hbea2c5cc6d18b83cE
                0x0000000000113378       0xe8 ./gen/../rust_opt/target/armv7a-none-eabi/release/libitron.a(core-d049573bc16596f9.core.5587a85061e7188a-cgu.0.rcgu.o)
                0x0000000000113378                core::fmt::builders::DebugTuple::finish_non_exhaustive
 .text._ZN4core3fmt8builders10DebugTuple6finish17h75fa298d273b9537E
                0x0000000000113460       0xb8 ./gen/../rust_opt/target/armv7a-none-eabi/release/libitron.a(core-d049573bc16596f9.core.5587a85061e7188a-cgu.0.rcgu.o)
                0x0000000000113460                core::fmt::builders::DebugTuple::finish
 .text._ZN4core3fmt8builders8DebugSet5entry17h6f9f49712cdf1c8aE
                0x0000000000113518      0x174 ./gen/../rust_opt/target/armv7a-none-eabi/release/libitron.a(core-d049573bc16596f9.core.5587a85061e7188a-cgu.0.rcgu.o)
                0x0000000000113518                core::fmt::builders::DebugSet::entry
                0x0000000000113518                core::fmt::builders::DebugList::entry
 .text._ZN4core3fmt8builders8DebugSet21finish_non_exhaustive17h056b5628e91579d3E
                0x000000000011368c       0xd4 ./gen/../rust_opt/target/armv7a-none-eabi/release/libitron.a(core-d049573bc16596f9.core.5587a85061e7188a-cgu.0.rcgu.o)
                0x000000000011368c                core::fmt::builders::DebugSet::finish_non_exhaustive
 .text._ZN4core3fmt8builders8DebugSet6finish17hb775269289642050E
                0x0000000000113760       0x40 ./gen/../rust_opt/target/armv7a-none-eabi/release/libitron.a(core-d049573bc16596f9.core.5587a85061e7188a-cgu.0.rcgu.o)
                0x0000000000113760                core::fmt::builders::DebugSet::finish
 .text._ZN4core3fmt8builders9DebugList21finish_non_exhaustive17h0964252c95243519E
                0x00000000001137a0       0xe4 ./gen/../rust_opt/target/armv7a-none-eabi/release/libitron.a(core-d049573bc16596f9.core.5587a85061e7188a-cgu.0.rcgu.o)
                0x00000000001137a0                core::fmt::builders::DebugList::finish_non_exhaustive
 .text._ZN4core3fmt8builders9DebugList6finish17h95901bb8c72ebeaaE
                0x0000000000113884       0x40 ./gen/../rust_opt/target/armv7a-none-eabi/release/libitron.a(core-d049573bc16596f9.core.5587a85061e7188a-cgu.0.rcgu.o)
                0x0000000000113884                core::fmt::builders::DebugList::finish
 .text._ZN4core3fmt8builders8DebugMap5entry17hb5fe3985090a797eE
                0x00000000001138c4      0x134 ./gen/../rust_opt/target/armv7a-none-eabi/release/libitron.a(core-d049573bc16596f9.core.5587a85061e7188a-cgu.0.rcgu.o)
                0x00000000001138c4                core::fmt::builders::DebugMap::entry
 .text._ZN4core3fmt8builders8DebugMap3key17he972b5db7c272a06E
                0x00000000001139f8      0x204 ./gen/../rust_opt/target/armv7a-none-eabi/release/libitron.a(core-d049573bc16596f9.core.5587a85061e7188a-cgu.0.rcgu.o)
                0x00000000001139f8                core::fmt::builders::DebugMap::key
 .text._ZN4core3fmt8builders8DebugMap5value17hc3fc83e3ff16426eE
                0x0000000000113bfc      0x158 ./gen/../rust_opt/target/armv7a-none-eabi/release/libitron.a(core-d049573bc16596f9.core.5587a85061e7188a-cgu.0.rcgu.o)
                0x0000000000113bfc                core::fmt::builders::DebugMap::value
 .text._ZN4core3fmt8builders8DebugMap21finish_non_exhaustive17h1d063c8fc17c4fa1E
                0x0000000000113d54      0x118 ./gen/../rust_opt/target/armv7a-none-eabi/release/libitron.a(core-d049573bc16596f9.core.5587a85061e7188a-cgu.0.rcgu.o)
                0x0000000000113d54                core::fmt::builders::DebugMap::finish_non_exhaustive
 .text._ZN4core3fmt8builders8DebugMap6finish17h87c976a15d36c1beE
                0x0000000000113e6c       0x8c ./gen/../rust_opt/target/armv7a-none-eabi/release/libitron.a(core-d049573bc16596f9.core.5587a85061e7188a-cgu.0.rcgu.o)
                0x0000000000113e6c                core::fmt::builders::DebugMap::finish
 .text._ZN4core3fmt5float29float_to_decimal_common_exact17h7d85dbe2887defb2E
                0x0000000000113ef8      0x354 ./gen/../rust_opt/target/armv7a-none-eabi/release/libitron.a(core-d049573bc16596f9.core.5587a85061e7188a-cgu.0.rcgu.o)
 .text._ZN4core3fmt5float29float_to_decimal_common_exact17hb8ecc3a298064d1fE
                0x000000000011424c      0x318 ./gen/../rust_opt/target/armv7a-none-eabi/release/libitron.a(core-d049573bc16596f9.core.5587a85061e7188a-cgu.0.rcgu.o)
 .text._ZN4core3fmt5float29float_to_decimal_common_exact17hc4ee8b5197ebb838E
                0x0000000000114564      0x328 ./gen/../rust_opt/target/armv7a-none-eabi/release/libitron.a(core-d049573bc16596f9.core.5587a85061e7188a-cgu.0.rcgu.o)
 .text._ZN4core3fmt5float32float_to_decimal_common_shortest17h57f1a97492206944E
                0x000000000011488c      0x258 ./gen/../rust_opt/target/armv7a-none-eabi/release/libitron.a(core-d049573bc16596f9.core.5587a85061e7188a-cgu.0.rcgu.o)
 .text._ZN4core3fmt5float32float_to_decimal_common_shortest17hd1530ac16dbab458E
                0x0000000000114ae4      0x29c ./gen/../rust_opt/target/armv7a-none-eabi/release/libitron.a(core-d049573bc16596f9.core.5587a85061e7188a-cgu.0.rcgu.o)
 .text._ZN4core3fmt5float32float_to_decimal_common_shortest17hf774af481b6739e1E
                0x0000000000114d80      0x268 ./gen/../rust_opt/target/armv7a-none-eabi/release/libitron.a(core-d049573bc16596f9.core.5587a85061e7188a-cgu.0.rcgu.o)
 .text._ZN4core3fmt5float33float_to_exponential_common_exact17h475946fbe25c96b4E
                0x0000000000114fe8      0x350 ./gen/../rust_opt/target/armv7a-none-eabi/release/libitron.a(core-d049573bc16596f9.core.5587a85061e7188a-cgu.0.rcgu.o)
 .text._ZN4core3fmt5float33float_to_exponential_common_exact17h58c854a839c522b9E
                0x0000000000115338      0x348 ./gen/../rust_opt/target/armv7a-none-eabi/release/libitron.a(core-d049573bc16596f9.core.5587a85061e7188a-cgu.0.rcgu.o)
 .text._ZN4core3fmt5float33float_to_exponential_common_exact17hf8c347a31f005498E
                0x0000000000115680      0x394 ./gen/../rust_opt/target/armv7a-none-eabi/release/libitron.a(core-d049573bc16596f9.core.5587a85061e7188a-cgu.0.rcgu.o)
 .text._ZN4core3fmt5float36float_to_exponential_common_shortest17h110c73098256b07dE
                0x0000000000115a14      0x300 ./gen/../rust_opt/target/armv7a-none-eabi/release/libitron.a(core-d049573bc16596f9.core.5587a85061e7188a-cgu.0.rcgu.o)
 .text._ZN4core3fmt5float36float_to_exponential_common_shortest17hc2048c8ca710d24cE
                0x0000000000115d14      0x35c ./gen/../rust_opt/target/armv7a-none-eabi/release/libitron.a(core-d049573bc16596f9.core.5587a85061e7188a-cgu.0.rcgu.o)
 .text._ZN4core3fmt5float36float_to_exponential_common_shortest17hded788cc3690643fE
                0x0000000000116070      0x320 ./gen/../rust_opt/target/armv7a-none-eabi/release/libitron.a(core-d049573bc16596f9.core.5587a85061e7188a-cgu.0.rcgu.o)
 .text._ZN4core3fmt3num14parse_u64_into17hdae6f27d721cd177E
                0x0000000000116390      0x494 ./gen/../rust_opt/target/armv7a-none-eabi/release/libitron.a(core-d049573bc16596f9.core.5587a85061e7188a-cgu.0.rcgu.o)
 .text._ZN4core3fmt3num53_$LT$impl$u20$core..fmt..Display$u20$for$u20$u128$GT$3fmt17he162d142fdfbe23dE
                0x0000000000116824       0x30 ./gen/../rust_opt/target/armv7a-none-eabi/release/libitron.a(core-d049573bc16596f9.core.5587a85061e7188a-cgu.0.rcgu.o)
                0x0000000000116824                core::fmt::num::<impl core::fmt::Display for u128>::fmt
 .text._ZN4core3fmt3num53_$LT$impl$u20$core..fmt..Display$u20$for$u20$i128$GT$3fmt17h41041c0cb7d944acE
                0x0000000000116854       0x54 ./gen/../rust_opt/target/armv7a-none-eabi/release/libitron.a(core-d049573bc16596f9.core.5587a85061e7188a-cgu.0.rcgu.o)
                0x0000000000116854                core::fmt::num::<impl core::fmt::Display for i128>::fmt
 .text._ZN4core3fmt3num8fmt_u12817h3ce49e52aad09f7aE
                0x00000000001168a8      0x2b0 ./gen/../rust_opt/target/armv7a-none-eabi/release/libitron.a(core-d049573bc16596f9.core.5587a85061e7188a-cgu.0.rcgu.o)
 .text._ZN4core3fmt5Write10write_char17h0deb656a130510dcE
                0x0000000000116b58       0xec ./gen/../rust_opt/target/armv7a-none-eabi/release/libitron.a(core-d049573bc16596f9.core.5587a85061e7188a-cgu.0.rcgu.o)
 .text._ZN4core3fmt5Write10write_char17h121006013e2c64bdE
                0x0000000000116c44       0xec ./gen/../rust_opt/target/armv7a-none-eabi/release/libitron.a(core-d049573bc16596f9.core.5587a85061e7188a-cgu.0.rcgu.o)
 .text._ZN4core3fmt5Write10write_char17h20c6982f67c5a14cE
                0x0000000000116d30       0xec ./gen/../rust_opt/target/armv7a-none-eabi/release/libitron.a(core-d049573bc16596f9.core.5587a85061e7188a-cgu.0.rcgu.o)
 .text._ZN4core3fmt5Write10write_char17h884d76389de57237E
                0x0000000000116e1c       0xec ./gen/../rust_opt/target/armv7a-none-eabi/release/libitron.a(core-d049573bc16596f9.core.5587a85061e7188a-cgu.0.rcgu.o)
 .text._ZN4core3fmt5Write9write_fmt17h07c1169efed3c695E
                0x0000000000116f08       0x1c ./gen/../rust_opt/target/armv7a-none-eabi/release/libitron.a(core-d049573bc16596f9.core.5587a85061e7188a-cgu.0.rcgu.o)
 .text._ZN4core3fmt5Write9write_fmt17h32196b9e35a8bbc2E
                0x0000000000116f24       0x1c ./gen/../rust_opt/target/armv7a-none-eabi/release/libitron.a(core-d049573bc16596f9.core.5587a85061e7188a-cgu.0.rcgu.o)
 .text._ZN4core3fmt5Write9write_fmt17h8420373094f7f4f3E
                0x0000000000116f40       0x1c ./gen/../rust_opt/target/armv7a-none-eabi/release/libitron.a(core-d049573bc16596f9.core.5587a85061e7188a-cgu.0.rcgu.o)
 .text._ZN4core3fmt5Write9write_fmt17ha93132b80607745fE
                0x0000000000116f5c       0x1c ./gen/../rust_opt/target/armv7a-none-eabi/release/libitron.a(core-d049573bc16596f9.core.5587a85061e7188a-cgu.0.rcgu.o)
 .text._ZN4core3fmt5Write9write_fmt17he315d962ad1b87f3E
                0x0000000000116f78       0x1c ./gen/../rust_opt/target/armv7a-none-eabi/release/libitron.a(core-d049573bc16596f9.core.5587a85061e7188a-cgu.0.rcgu.o)
 .text._ZN4core3fmt17FormattingOptions8get_fill17ha364eba16e39e9f9E
                0x0000000000116f94       0x14 ./gen/../rust_opt/target/armv7a-none-eabi/release/libitron.a(core-d049573bc16596f9.core.5587a85061e7188a-cgu.0.rcgu.o)
                0x0000000000116f94                core::fmt::FormattingOptions::get_fill
 .text._ZN57_$LT$core..fmt..Arguments$u20$as$u20$core..fmt..Debug$GT$3fmt17hecd0089d3e424aecE
                0x0000000000116fa8       0x18 ./gen/../rust_opt/target/armv7a-none-eabi/release/libitron.a(core-d049573bc16596f9.core.5587a85061e7188a-cgu.0.rcgu.o)
                0x0000000000116fa8                <core::fmt::Arguments as core::fmt::Debug>::fmt
 .text._ZN59_$LT$core..fmt..Arguments$u20$as$u20$core..fmt..Display$GT$3fmt17hcd13995007f793f4E
                0x0000000000116fc0       0x18 ./gen/../rust_opt/target/armv7a-none-eabi/release/libitron.a(core-d049573bc16596f9.core.5587a85061e7188a-cgu.0.rcgu.o)
                0x0000000000116fc0                <core::fmt::Arguments as core::fmt::Display>::fmt
 .text._ZN4core3fmt5write17hb714253c1b9e952cE
                0x0000000000116fd8      0x208 ./gen/../rust_opt/target/armv7a-none-eabi/release/libitron.a(core-d049573bc16596f9.core.5587a85061e7188a-cgu.0.rcgu.o)
                0x0000000000116fd8                core::fmt::write
 .text._ZN4core3fmt9Formatter12pad_integral17hec47f37da301c049E
                0x00000000001171e0      0x300 ./gen/../rust_opt/target/armv7a-none-eabi/release/libitron.a(core-d049573bc16596f9.core.5587a85061e7188a-cgu.0.rcgu.o)
                0x00000000001171e0                core::fmt::Formatter::pad_integral
 .text._ZN4core3fmt9Formatter12pad_integral12write_prefix17hc4c0a7a0c94985adE
                0x00000000001174e0       0x68 ./gen/../rust_opt/target/armv7a-none-eabi/release/libitron.a(core-d049573bc16596f9.core.5587a85061e7188a-cgu.0.rcgu.o)
 .text._ZN4core3fmt9Formatter3pad17h8e247c0c6f258b85E
                0x0000000000117548      0x228 ./gen/../rust_opt/target/armv7a-none-eabi/release/libitron.a(core-d049573bc16596f9.core.5587a85061e7188a-cgu.0.rcgu.o)
                0x0000000000117548                core::fmt::Formatter::pad
 .text._ZN4core3fmt9Formatter19pad_formatted_parts17ha476f236f4259153E
                0x0000000000117770      0x26c ./gen/../rust_opt/target/armv7a-none-eabi/release/libitron.a(core-d049573bc16596f9.core.5587a85061e7188a-cgu.0.rcgu.o)
 .text._ZN4core3fmt9Formatter21write_formatted_parts17h76662c6af77af83aE
                0x00000000001179dc      0x280 ./gen/../rust_opt/target/armv7a-none-eabi/release/libitron.a(core-d049573bc16596f9.core.5587a85061e7188a-cgu.0.rcgu.o)
 .text._ZN4core3fmt9Formatter9write_str17hdfb7ca2c4bb7964eE
                0x0000000000117c5c       0x18 ./gen/../rust_opt/target/armv7a-none-eabi/release/libitron.a(core-d049573bc16596f9.core.5587a85061e7188a-cgu.0.rcgu.o)
                0x0000000000117c5c                <core::fmt::Formatter as core::fmt::Write>::write_str
                0x0000000000117c5c                core::fmt::Formatter::write_str
 .text._ZN4core3fmt9Formatter4fill17hffaa17a0e6fadb77E
                0x0000000000117c74       0x14 ./gen/../rust_opt/target/armv7a-none-eabi/release/libitron.a(core-d049573bc16596f9.core.5587a85061e7188a-cgu.0.rcgu.o)
                0x0000000000117c74                core::fmt::Formatter::fill
 .text._ZN4core3fmt9Formatter12debug_struct17he204134461ecf684E
                0x0000000000117c88       0x3c ./gen/../rust_opt/target/armv7a-none-eabi/release/libitron.a(core-d049573bc16596f9.core.5587a85061e7188a-cgu.0.rcgu.o)
                0x0000000000117c88                core::fmt::Formatter::debug_struct
 .text._ZN4core3fmt9Formatter26debug_struct_field1_finish17hfc5577f397af5417E
                0x0000000000117cc4       0xc8 ./gen/../rust_opt/target/armv7a-none-eabi/release/libitron.a(core-d049573bc16596f9.core.5587a85061e7188a-cgu.0.rcgu.o)
                0x0000000000117cc4                core::fmt::Formatter::debug_struct_field1_finish
 .text._ZN4core3fmt9Formatter26debug_struct_field2_finish17h250937b50b7d91dbE
                0x0000000000117d8c       0xdc ./gen/../rust_opt/target/armv7a-none-eabi/release/libitron.a(core-d049573bc16596f9.core.5587a85061e7188a-cgu.0.rcgu.o)
                0x0000000000117d8c                core::fmt::Formatter::debug_struct_field2_finish
 .text._ZN4core3fmt9Formatter26debug_struct_field3_finish17h2e39e36ff7dea516E
                0x0000000000117e68       0xf0 ./gen/../rust_opt/target/armv7a-none-eabi/release/libitron.a(core-d049573bc16596f9.core.5587a85061e7188a-cgu.0.rcgu.o)
                0x0000000000117e68                core::fmt::Formatter::debug_struct_field3_finish
 .text._ZN4core3fmt9Formatter26debug_struct_field4_finish17hd85fc51ea53a6480E
                0x0000000000117f58      0x104 ./gen/../rust_opt/target/armv7a-none-eabi/release/libitron.a(core-d049573bc16596f9.core.5587a85061e7188a-cgu.0.rcgu.o)
                0x0000000000117f58                core::fmt::Formatter::debug_struct_field4_finish
 .text._ZN4core3fmt9Formatter26debug_struct_field5_finish17haacbff9cf3eec5ccE
                0x000000000011805c      0x118 ./gen/../rust_opt/target/armv7a-none-eabi/release/libitron.a(core-d049573bc16596f9.core.5587a85061e7188a-cgu.0.rcgu.o)
                0x000000000011805c                core::fmt::Formatter::debug_struct_field5_finish
 .text._ZN4core3fmt9Formatter26debug_struct_fields_finish17hbc4a9600e0d1f479E
                0x0000000000118174      0x114 ./gen/../rust_opt/target/armv7a-none-eabi/release/libitron.a(core-d049573bc16596f9.core.5587a85061e7188a-cgu.0.rcgu.o)
                0x0000000000118174                core::fmt::Formatter::debug_struct_fields_finish
 .text._ZN4core3fmt9Formatter11debug_tuple17h940ad0dd22d147c8E
                0x0000000000118288       0x44 ./gen/../rust_opt/target/armv7a-none-eabi/release/libitron.a(core-d049573bc16596f9.core.5587a85061e7188a-cgu.0.rcgu.o)
                0x0000000000118288                core::fmt::Formatter::debug_tuple
 .text._ZN4core3fmt9Formatter25debug_tuple_field1_finish17h3462a89b33c73d6eE
                0x00000000001182cc      0x180 ./gen/../rust_opt/target/armv7a-none-eabi/release/libitron.a(core-d049573bc16596f9.core.5587a85061e7188a-cgu.0.rcgu.o)
                0x00000000001182cc                core::fmt::Formatter::debug_tuple_field1_finish
 .text._ZN4core3fmt9Formatter25debug_tuple_field2_finish17hc4dc9b596154de93E
                0x000000000011844c      0x1fc ./gen/../rust_opt/target/armv7a-none-eabi/release/libitron.a(core-d049573bc16596f9.core.5587a85061e7188a-cgu.0.rcgu.o)
                0x000000000011844c                core::fmt::Formatter::debug_tuple_field2_finish
 .text._ZN4core3fmt9Formatter25debug_tuple_field3_finish17h164749d4d77ab572E
                0x0000000000118648      0x2b8 ./gen/../rust_opt/target/armv7a-none-eabi/release/libitron.a(core-d049573bc16596f9.core.5587a85061e7188a-cgu.0.rcgu.o)
                0x0000000000118648                core::fmt::Formatter::debug_tuple_field3_finish
 .text._ZN4core3fmt9Formatter25debug_tuple_field4_finish17h87085ebfbf56e53eE
                0x0000000000118900      0x370 ./gen/../rust_opt/target/armv7a-none-eabi/release/libitron.a(core-d049573bc16596f9.core.5587a85061e7188a-cgu.0.rcgu.o)
                0x0000000000118900                core::fmt::Formatter::debug_tuple_field4_finish
 .text._ZN4core3fmt9Formatter25debug_tuple_field5_finish17he4dec699aac9d2a9E
                0x0000000000118c70      0x428 ./gen/../rust_opt/target/armv7a-none-eabi/release/libitron.a(core-d049573bc16596f9.core.5587a85061e7188a-cgu.0.rcgu.o)
                0x0000000000118c70                core::fmt::Formatter::debug_tuple_field5_finish
 .text._ZN4core3fmt9Formatter25debug_tuple_fields_finish17hb3065dfeca0f69b2E
                0x0000000000119098      0x2c4 ./gen/../rust_opt/target/armv7a-none-eabi/release/libitron.a(core-d049573bc16596f9.core.5587a85061e7188a-cgu.0.rcgu.o)
                0x0000000000119098                core::fmt::Formatter::debug_tuple_fields_finish
 .text._ZN4core3fmt9Formatter10debug_list17h324a4227e38e4e1cE
                0x000000000011935c       0x3c ./gen/../rust_opt/target/armv7a-none-eabi/release/libitron.a(core-d049573bc16596f9.core.5587a85061e7188a-cgu.0.rcgu.o)
                0x000000000011935c                core::fmt::Formatter::debug_list
 .text._ZN4core3fmt9Formatter9debug_set17h8342974783863c44E
                0x0000000000119398       0x3c ./gen/../rust_opt/target/armv7a-none-eabi/release/libitron.a(core-d049573bc16596f9.core.5587a85061e7188a-cgu.0.rcgu.o)
                0x0000000000119398                core::fmt::Formatter::debug_set
 .text._ZN4core3fmt9Formatter9debug_map17hd46370b77cf960edE
                0x00000000001193d4       0x44 ./gen/../rust_opt/target/armv7a-none-eabi/release/libitron.a(core-d049573bc16596f9.core.5587a85061e7188a-cgu.0.rcgu.o)
                0x00000000001193d4                core::fmt::Formatter::debug_map
 .text._ZN57_$LT$core..fmt..Formatter$u20$as$u20$core..fmt..Write$GT$10write_char17ha022f916fb525171E
                0x0000000000119418       0x18 ./gen/../rust_opt/target/armv7a-none-eabi/release/libitron.a(core-d049573bc16596f9.core.5587a85061e7188a-cgu.0.rcgu.o)
                0x0000000000119418                <core::fmt::Formatter as core::fmt::Write>::write_char
 .text._ZN55_$LT$core..fmt..Error$u20$as$u20$core..fmt..Display$GT$3fmt17h603b7f267edd160dE
                0x0000000000119430       0x20 ./gen/../rust_opt/target/armv7a-none-eabi/release/libitron.a(core-d049573bc16596f9.core.5587a85061e7188a-cgu.0.rcgu.o)
                0x0000000000119430                <core::fmt::Error as core::fmt::Display>::fmt
 .text._ZN43_$LT$bool$u20$as$u20$core..fmt..Display$GT$3fmt17h37b2e11049775da3E
                0x0000000000119450       0x48 ./gen/../rust_opt/target/armv7a-none-eabi/release/libitron.a(core-d049573bc16596f9.core.5587a85061e7188a-cgu.0.rcgu.o)
                0x0000000000119450                <bool as core::fmt::Display>::fmt
 .text._ZN40_$LT$str$u20$as$u20$core..fmt..Debug$GT$3fmt17hbfa9400b4ed4d146E
                0x0000000000119498      0x3e0 ./gen/../rust_opt/target/armv7a-none-eabi/release/libitron.a(core-d049573bc16596f9.core.5587a85061e7188a-cgu.0.rcgu.o)
                0x0000000000119498                <str as core::fmt::Debug>::fmt
 .text._ZN42_$LT$str$u20$as$u20$core..fmt..Display$GT$3fmt17h1a2739d2b1badf3eE
                0x0000000000119878       0x20 ./gen/../rust_opt/target/armv7a-none-eabi/release/libitron.a(core-d049573bc16596f9.core.5587a85061e7188a-cgu.0.rcgu.o)
                0x0000000000119878                <str as core::fmt::Display>::fmt
 .text._ZN41_$LT$char$u20$as$u20$core..fmt..Debug$GT$3fmt17hf8537c7d284af8e9E
                0x0000000000119898       0xb4 ./gen/../rust_opt/target/armv7a-none-eabi/release/libitron.a(core-d049573bc16596f9.core.5587a85061e7188a-cgu.0.rcgu.o)
                0x0000000000119898                <char as core::fmt::Debug>::fmt
 .text._ZN43_$LT$char$u20$as$u20$core..fmt..Display$GT$3fmt17h759ac83f19cee971E
                0x000000000011994c       0xec ./gen/../rust_opt/target/armv7a-none-eabi/release/libitron.a(core-d049573bc16596f9.core.5587a85061e7188a-cgu.0.rcgu.o)
                0x000000000011994c                <char as core::fmt::Display>::fmt
 .text._ZN4core3fmt17pointer_fmt_inner17h83d31351164c23f2E
                0x0000000000119a38       0xa4 ./gen/../rust_opt/target/armv7a-none-eabi/release/libitron.a(core-d049573bc16596f9.core.5587a85061e7188a-cgu.0.rcgu.o)
                0x0000000000119a38                core::fmt::pointer_fmt_inner
 .text._ZN52_$LT$$BP$const$u20$T$u20$as$u20$core..fmt..Debug$GT$3fmt17h52f0d6dcd4868dc8E
                0x0000000000119adc       0xa8 ./gen/../rust_opt/target/armv7a-none-eabi/release/libitron.a(core-d049573bc16596f9.core.5587a85061e7188a-cgu.0.rcgu.o)
 .text._ZN4core5slice6memchr14memchr_aligned17hf608187b782eb764E
                0x0000000000119b84       0xfc ./gen/../rust_opt/target/armv7a-none-eabi/release/libitron.a(core-d049573bc16596f9.core.5587a85061e7188a-cgu.0.rcgu.o)
                0x0000000000119b84                core::slice::memchr::memchr_aligned
 .text._ZN4core5slice6memchr7memrchr17h1b5e6bee0cdc7e3cE
                0x0000000000119c80      0x23c ./gen/../rust_opt/target/armv7a-none-eabi/release/libitron.a(core-d049573bc16596f9.core.5587a85061e7188a-cgu.0.rcgu.o)
                0x0000000000119c80                core::slice::memchr::memrchr
 .text._ZN4core5slice4sort6stable5drift11sqrt_approx17heb7d8e344c813c3bE
                0x0000000000119ebc       0x2c ./gen/../rust_opt/target/armv7a-none-eabi/release/libitron.a(core-d049573bc16596f9.core.5587a85061e7188a-cgu.0.rcgu.o)
                0x0000000000119ebc                core::slice::sort::stable::drift::sqrt_approx
 .text.unlikely._ZN4core5slice4sort6shared9smallsort22panic_on_ord_violation17h26f42ac12335c738E
                0x0000000000119ee8       0x44 ./gen/../rust_opt/target/armv7a-none-eabi/release/libitron.a(core-d049573bc16596f9.core.5587a85061e7188a-cgu.0.rcgu.o)
                0x0000000000119ee8                core::slice::sort::shared::smallsort::panic_on_ord_violation
 .text._ZN105_$LT$core..slice..ascii..EscapeAscii$u20$as$u20$core..iter..traits..double_ended..DoubleEndedIterator$GT$9next_back17h58b0f7ecc71c56abE
                0x0000000000119f2c      0x208 ./gen/../rust_opt/target/armv7a-none-eabi/release/libitron.a(core-d049573bc16596f9.core.5587a85061e7188a-cgu.0.rcgu.o)
                0x0000000000119f2c                <core::slice::ascii::EscapeAscii as core::iter::traits::double_ended::DoubleEndedIterator>::next_back
 .text._ZN70_$LT$core..slice..ascii..EscapeAscii$u20$as$u20$core..fmt..Display$GT$3fmt17h29e51c0221cfc6f4E
                0x000000000011a134      0x268 ./gen/../rust_opt/target/armv7a-none-eabi/release/libitron.a(core-d049573bc16596f9.core.5587a85061e7188a-cgu.0.rcgu.o)
                0x000000000011a134                <core::slice::ascii::EscapeAscii as core::fmt::Display>::fmt
 .text._ZN68_$LT$core..slice..ascii..EscapeAscii$u20$as$u20$core..fmt..Debug$GT$3fmt17hbb33b900076cece0E
                0x000000000011a39c       0x54 ./gen/../rust_opt/target/armv7a-none-eabi/release/libitron.a(core-d049573bc16596f9.core.5587a85061e7188a-cgu.0.rcgu.o)
                0x000000000011a39c                <core::slice::ascii::EscapeAscii as core::fmt::Debug>::fmt
 .text.unlikely._ZN4core5slice5index26slice_start_index_len_fail17h38c824b450734dfcE
                0x000000000011a3f0        0xc ./gen/../rust_opt/target/armv7a-none-eabi/release/libitron.a(core-d049573bc16596f9.core.5587a85061e7188a-cgu.0.rcgu.o)
                0x000000000011a3f0                core::slice::index::slice_start_index_len_fail
 .text.unlikely._ZN4core5slice5index24slice_end_index_len_fail17hf4eb2611058c09afE
                0x000000000011a3fc        0xc ./gen/../rust_opt/target/armv7a-none-eabi/release/libitron.a(core-d049573bc16596f9.core.5587a85061e7188a-cgu.0.rcgu.o)
                0x000000000011a3fc                core::slice::index::slice_end_index_len_fail
 .text.unlikely._ZN4core5slice5index22slice_index_order_fail17hb31f14bd82bfcb5bE
                0x000000000011a408        0xc ./gen/../rust_opt/target/armv7a-none-eabi/release/libitron.a(core-d049573bc16596f9.core.5587a85061e7188a-cgu.0.rcgu.o)
                0x000000000011a408                core::slice::index::slice_index_order_fail
 .text.unlikely._ZN4core5slice5index31slice_start_index_overflow_fail17h682402ba819c482dE
                0x000000000011a414       0x40 ./gen/../rust_opt/target/armv7a-none-eabi/release/libitron.a(core-d049573bc16596f9.core.5587a85061e7188a-cgu.0.rcgu.o)
                0x000000000011a414                core::slice::index::slice_start_index_overflow_fail
 .text.unlikely._ZN4core5slice5index29slice_end_index_overflow_fail17h6d8526257621818dE
                0x000000000011a454       0x40 ./gen/../rust_opt/target/armv7a-none-eabi/release/libitron.a(core-d049573bc16596f9.core.5587a85061e7188a-cgu.0.rcgu.o)
                0x000000000011a454                core::slice::index::slice_end_index_overflow_fail
 .text._ZN4core5slice5index10into_range17h838d5809396762d6E
                0x000000000011a494       0x74 ./gen/../rust_opt/target/armv7a-none-eabi/release/libitron.a(core-d049573bc16596f9.core.5587a85061e7188a-cgu.0.rcgu.o)
                0x000000000011a494                core::slice::index::into_range
 .text._ZN4core5slice5index16into_slice_range17h4e76af1b067ea36eE
                0x000000000011a508       0x78 ./gen/../rust_opt/target/armv7a-none-eabi/release/libitron.a(core-d049573bc16596f9.core.5587a85061e7188a-cgu.0.rcgu.o)
                0x000000000011a508                core::slice::index::into_slice_range
 .text.unlikely._ZN4core5slice29_$LT$impl$u20$$u5b$T$u5d$$GT$15copy_from_slice17len_mismatch_fail17hf3c6b69109ca94ceE
                0x000000000011a580       0x18 ./gen/../rust_opt/target/armv7a-none-eabi/release/libitron.a(core-d049573bc16596f9.core.5587a85061e7188a-cgu.0.rcgu.o)
                0x000000000011a580                core::slice::<impl [T]>::copy_from_slice::len_mismatch_fail
 .text._ZN4core5slice29_$LT$impl$u20$$u5b$T$u5d$$GT$16align_to_offsets3gcd17h9ccf75cedf78b32bE
                0x000000000011a598       0x38 ./gen/../rust_opt/target/armv7a-none-eabi/release/libitron.a(core-d049573bc16596f9.core.5587a85061e7188a-cgu.0.rcgu.o)
                0x000000000011a598                core::slice::<impl [T]>::align_to_offsets::gcd
 .text._ZN71_$LT$core..slice..GetDisjointMutError$u20$as$u20$core..fmt..Display$GT$3fmt17h67ba63dcac76d19cE
                0x000000000011a5d0       0x48 ./gen/../rust_opt/target/armv7a-none-eabi/release/libitron.a(core-d049573bc16596f9.core.5587a85061e7188a-cgu.0.rcgu.o)
                0x000000000011a5d0                <core::slice::GetDisjointMutError as core::fmt::Display>::fmt
 .text._ZN4core3str8converts9from_utf817h69ed1439eba52b92E
                0x000000000011a618      0x260 ./gen/../rust_opt/target/armv7a-none-eabi/release/libitron.a(core-d049573bc16596f9.core.5587a85061e7188a-cgu.0.rcgu.o)
                0x000000000011a618                core::str::converts::from_utf8
 .text._ZN4core3str8converts13from_utf8_mut17h4e3a295159d63a91E
                0x000000000011a878      0x260 ./gen/../rust_opt/target/armv7a-none-eabi/release/libitron.a(core-d049573bc16596f9.core.5587a85061e7188a-cgu.0.rcgu.o)
                0x000000000011a878                core::str::converts::from_utf8_mut
 .text._ZN4core3str5count14do_count_chars17h9cffd9e3dec45553E
                0x000000000011aad8      0x240 ./gen/../rust_opt/target/armv7a-none-eabi/release/libitron.a(core-d049573bc16596f9.core.5587a85061e7188a-cgu.0.rcgu.o)
                0x000000000011aad8                core::str::count::do_count_chars
 .text._ZN4core3str5count23char_count_general_case17h4d4c6ce16c4d1906E
                0x000000000011ad18       0x34 ./gen/../rust_opt/target/armv7a-none-eabi/release/libitron.a(core-d049573bc16596f9.core.5587a85061e7188a-cgu.0.rcgu.o)
                0x000000000011ad18                core::str::count::char_count_general_case
 .text._ZN66_$LT$core..str..error..Utf8Error$u20$as$u20$core..fmt..Display$GT$3fmt17h291d6cbe57b75336E
                0x000000000011ad4c       0xb8 ./gen/../rust_opt/target/armv7a-none-eabi/release/libitron.a(core-d049573bc16596f9.core.5587a85061e7188a-cgu.0.rcgu.o)
                0x000000000011ad4c                <core::str::error::Utf8Error as core::fmt::Display>::fmt
 .text._ZN71_$LT$core..str..error..ParseBoolError$u20$as$u20$core..fmt..Display$GT$3fmt17h8ff3dff7cf95e9f3E
                0x000000000011ae04       0x20 ./gen/../rust_opt/target/armv7a-none-eabi/release/libitron.a(core-d049573bc16596f9.core.5587a85061e7188a-cgu.0.rcgu.o)
                0x000000000011ae04                <core::str::error::ParseBoolError as core::fmt::Display>::fmt
 .text._ZN59_$LT$core..str..iter..Chars$u20$as$u20$core..fmt..Debug$GT$3fmt17hc296714f5aca8f63E
                0x000000000011ae24      0x720 ./gen/../rust_opt/target/armv7a-none-eabi/release/libitron.a(core-d049573bc16596f9.core.5587a85061e7188a-cgu.0.rcgu.o)
                0x000000000011ae24                <core::str::iter::Chars as core::fmt::Debug>::fmt
 .text._ZN65_$LT$core..str..iter..EncodeUtf16$u20$as$u20$core..fmt..Debug$GT$3fmt17h470f6ac5da350b32E
                0x000000000011b544       0x54 ./gen/../rust_opt/target/armv7a-none-eabi/release/libitron.a(core-d049573bc16596f9.core.5587a85061e7188a-cgu.0.rcgu.o)
                0x000000000011b544                <core::str::iter::EncodeUtf16 as core::fmt::Debug>::fmt
 .text.unlikely._ZN4core3str6traits23str_index_overflow_fail17h8bf11899d5e405f7E
                0x000000000011b598       0x40 ./gen/../rust_opt/target/armv7a-none-eabi/release/libitron.a(core-d049573bc16596f9.core.5587a85061e7188a-cgu.0.rcgu.o)
                0x000000000011b598                core::str::traits::str_index_overflow_fail
 .text._ZN4core3str7pattern11StrSearcher3new17h9540c37606476449E
                0x000000000011b5d8      0x4a4 ./gen/../rust_opt/target/armv7a-none-eabi/release/libitron.a(core-d049573bc16596f9.core.5587a85061e7188a-cgu.0.rcgu.o)
                0x000000000011b5d8                core::str::pattern::StrSearcher::new
 .text._ZN60_$LT$core..str..lossy..Debug$u20$as$u20$core..fmt..Debug$GT$3fmt17h8e77771fab7a2f70E
                0x000000000011ba7c      0x430 ./gen/../rust_opt/target/armv7a-none-eabi/release/libitron.a(core-d049573bc16596f9.core.5587a85061e7188a-cgu.0.rcgu.o)
                0x000000000011ba7c                <core::str::lossy::Debug as core::fmt::Debug>::fmt
 .text._ZN87_$LT$core..str..lossy..Utf8Chunks$u20$as$u20$core..iter..traits..iterator..Iterator$GT$4next17he7d6cc4011e7786bE
                0x000000000011beac      0x1e0 ./gen/../rust_opt/target/armv7a-none-eabi/release/libitron.a(core-d049573bc16596f9.core.5587a85061e7188a-cgu.0.rcgu.o)
                0x000000000011beac                <core::str::lossy::Utf8Chunks as core::iter::traits::iterator::Iterator>::next
 .text._ZN65_$LT$core..str..lossy..Utf8Chunks$u20$as$u20$core..fmt..Debug$GT$3fmt17h9c45e8ae8211e985E
                0x000000000011c08c       0xe8 ./gen/../rust_opt/target/armv7a-none-eabi/release/libitron.a(core-d049573bc16596f9.core.5587a85061e7188a-cgu.0.rcgu.o)
                0x000000000011c08c                <core::str::lossy::Utf8Chunks as core::fmt::Debug>::fmt
 .text.unlikely._ZN4core3str16slice_error_fail17h4d59bc1e755bbe4fE
                0x000000000011c174       0x18 ./gen/../rust_opt/target/armv7a-none-eabi/release/libitron.a(core-d049573bc16596f9.core.5587a85061e7188a-cgu.0.rcgu.o)
                0x000000000011c174                core::str::slice_error_fail
 .text.unlikely._ZN4core3str19slice_error_fail_ct17hb73804428b3ba7caE
                0x000000000011c18c       0x40 ./gen/../rust_opt/target/armv7a-none-eabi/release/libitron.a(core-d049573bc16596f9.core.5587a85061e7188a-cgu.0.rcgu.o)
                0x000000000011c18c                core::str::slice_error_fail_ct
 .text._ZN4core3str19slice_error_fail_rt17h7b2b73d8d28473e0E
                0x000000000011c1cc      0x3d4 ./gen/../rust_opt/target/armv7a-none-eabi/release/libitron.a(core-d049573bc16596f9.core.5587a85061e7188a-cgu.0.rcgu.o)
                0x000000000011c1cc                core::str::slice_error_fail_rt
 .text._ZN4core3str21_$LT$impl$u20$str$GT$9from_utf817h9c50c6b49793a8caE
                0x000000000011c5a0       0x10 ./gen/../rust_opt/target/armv7a-none-eabi/release/libitron.a(core-d049573bc16596f9.core.5587a85061e7188a-cgu.0.rcgu.o)
                0x000000000011c5a0                core::str::<impl str>::from_utf8
 .text._ZN4core3str21_$LT$impl$u20$str$GT$13from_utf8_mut17hf789198352a0c0d6E
                0x000000000011c5b0       0x10 ./gen/../rust_opt/target/armv7a-none-eabi/release/libitron.a(core-d049573bc16596f9.core.5587a85061e7188a-cgu.0.rcgu.o)
                0x000000000011c5b0                core::str::<impl str>::from_utf8_mut
 .text._ZN4core3str21_$LT$impl$u20$str$GT$18split_at_unchecked17h522070e8531a247cE
                0x000000000011c5c0       0x20 ./gen/../rust_opt/target/armv7a-none-eabi/release/libitron.a(core-d049573bc16596f9.core.5587a85061e7188a-cgu.0.rcgu.o)
                0x000000000011c5c0                core::str::<impl str>::split_at_unchecked
 .text._ZN4core3str21_$LT$impl$u20$str$GT$22split_at_mut_unchecked17h188b8cf0a61e80b3E
                0x000000000011c5e0       0x20 ./gen/../rust_opt/target/armv7a-none-eabi/release/libitron.a(core-d049573bc16596f9.core.5587a85061e7188a-cgu.0.rcgu.o)
                0x000000000011c5e0                core::str::<impl str>::split_at_mut_unchecked
 .text._ZN4core3str21_$LT$impl$u20$str$GT$12escape_debug17h4c843b37cf90aab8E
                0x000000000011c600      0x13c ./gen/../rust_opt/target/armv7a-none-eabi/release/libitron.a(core-d049573bc16596f9.core.5587a85061e7188a-cgu.0.rcgu.o)
                0x000000000011c600                core::str::<impl str>::escape_debug
 .text._ZN4core3str21_$LT$impl$u20$str$GT$12substr_range17ha623b8a5a8d1bca1E
                0x000000000011c73c       0x30 ./gen/../rust_opt/target/armv7a-none-eabi/release/libitron.a(core-d049573bc16596f9.core.5587a85061e7188a-cgu.0.rcgu.o)
                0x000000000011c73c                core::str::<impl str>::substr_range
 .text._ZN57_$LT$core..time..Duration$u20$as$u20$core..fmt..Debug$GT$3fmt17hcd9ec431bc2fce92E
                0x000000000011c76c      0x160 ./gen/../rust_opt/target/armv7a-none-eabi/release/libitron.a(core-d049573bc16596f9.core.5587a85061e7188a-cgu.0.rcgu.o)
                0x000000000011c76c                <core::time::Duration as core::fmt::Debug>::fmt
 .text._ZN57_$LT$core..time..Duration$u20$as$u20$core..fmt..Debug$GT$3fmt11fmt_decimal17h7fdaad1885d942cdE
                0x000000000011c8cc      0x730 ./gen/../rust_opt/target/armv7a-none-eabi/release/libitron.a(core-d049573bc16596f9.core.5587a85061e7188a-cgu.0.rcgu.o)
 .text._ZN57_$LT$core..time..Duration$u20$as$u20$core..fmt..Debug$GT$3fmt11fmt_decimal28_$u7b$$u7b$closure$u7d$$u7d$17hbee2c0b3604668e7E
                0x000000000011cffc      0x260 ./gen/../rust_opt/target/armv7a-none-eabi/release/libitron.a(core-d049573bc16596f9.core.5587a85061e7188a-cgu.0.rcgu.o)
 .text._ZN72_$LT$core..time..TryFromFloatSecsError$u20$as$u20$core..fmt..Display$GT$3fmt17hbbacbc01f2a2ba20E
                0x000000000011d25c       0x48 ./gen/../rust_opt/target/armv7a-none-eabi/release/libitron.a(core-d049573bc16596f9.core.5587a85061e7188a-cgu.0.rcgu.o)
                0x000000000011d25c                <core::time::TryFromFloatSecsError as core::fmt::Display>::fmt
 .text._ZN4core7unicode9printable5check17hc9e6c3ef98e586f8E
                0x000000000011d2a4      0x124 ./gen/../rust_opt/target/armv7a-none-eabi/release/libitron.a(core-d049573bc16596f9.core.5587a85061e7188a-cgu.0.rcgu.o)
 .text._ZN4core7unicode9printable12is_printable17he99174ef5bcc9597E
                0x000000000011d3c8      0x1c0 ./gen/../rust_opt/target/armv7a-none-eabi/release/libitron.a(core-d049573bc16596f9.core.5587a85061e7188a-cgu.0.rcgu.o)
                0x000000000011d3c8                core::unicode::printable::is_printable
 .text._ZN62_$LT$core..task..wake..Context$u20$as$u20$core..fmt..Debug$GT$3fmt17h2b9656f805ec1368E
                0x000000000011d588       0xdc ./gen/../rust_opt/target/armv7a-none-eabi/release/libitron.a(core-d049573bc16596f9.core.5587a85061e7188a-cgu.0.rcgu.o)
                0x000000000011d588                <core::task::wake::Context as core::fmt::Debug>::fmt
 .text._ZN60_$LT$core..task..wake..Waker$u20$as$u20$core..fmt..Debug$GT$3fmt17h961c0fb15e9f08e6E
                0x000000000011d664      0x104 ./gen/../rust_opt/target/armv7a-none-eabi/release/libitron.a(core-d049573bc16596f9.core.5587a85061e7188a-cgu.0.rcgu.o)
                0x000000000011d664                <core::task::wake::Waker as core::fmt::Debug>::fmt
 .text._ZN65_$LT$core..task..wake..LocalWaker$u20$as$u20$core..fmt..Debug$GT$3fmt17h9f8823dc3c851087E
                0x000000000011d768      0x104 ./gen/../rust_opt/target/armv7a-none-eabi/release/libitron.a(core-d049573bc16596f9.core.5587a85061e7188a-cgu.0.rcgu.o)
                0x000000000011d768                <core::task::wake::LocalWaker as core::fmt::Debug>::fmt
 .text._ZN4core5alloc6layout6Layout19is_size_align_valid17hf9c352be39c461d0E
                0x000000000011d86c       0x34 ./gen/../rust_opt/target/armv7a-none-eabi/release/libitron.a(core-d049573bc16596f9.core.5587a85061e7188a-cgu.0.rcgu.o)
                0x000000000011d86c                core::alloc::layout::Layout::is_size_align_valid
 .text._ZN71_$LT$core..alloc..layout..LayoutError$u20$as$u20$core..fmt..Display$GT$3fmt17hdfc7ce4964ee7964E
                0x000000000011d8a0       0x24 ./gen/../rust_opt/target/armv7a-none-eabi/release/libitron.a(core-d049573bc16596f9.core.5587a85061e7188a-cgu.0.rcgu.o)
                0x000000000011d8a0                <core::alloc::layout::LayoutError as core::fmt::Display>::fmt
 .text._ZN62_$LT$core..alloc..AllocError$u20$as$u20$core..fmt..Display$GT$3fmt17h096a3621f7a659a9E
                0x000000000011d8c4       0x24 ./gen/../rust_opt/target/armv7a-none-eabi/release/libitron.a(core-d049573bc16596f9.core.5587a85061e7188a-cgu.0.rcgu.o)
                0x000000000011d8c4                <core::alloc::AllocError as core::fmt::Display>::fmt
 .text.unlikely._ZN4core3f3221_$LT$impl$u20$f32$GT$5clamp8do_panic7runtime17hd78a99da53448aa4E
                0x000000000011d8e8       0x64 ./gen/../rust_opt/target/armv7a-none-eabi/release/libitron.a(core-d049573bc16596f9.core.5587a85061e7188a-cgu.0.rcgu.o)
                0x000000000011d8e8                core::f32::<impl f32>::clamp::do_panic::runtime
 .text.unlikely._ZN4core3f6421_$LT$impl$u20$f64$GT$5clamp8do_panic7runtime17h70e260bb90954182E
                0x000000000011d94c       0x64 ./gen/../rust_opt/target/armv7a-none-eabi/release/libitron.a(core-d049573bc16596f9.core.5587a85061e7188a-cgu.0.rcgu.o)
                0x000000000011d94c                core::f64::<impl f64>::clamp::do_panic::runtime
 .text._ZN49_$LT$u8$u20$as$u20$core..num..bignum..FullOps$GT$12full_div_rem17h2cc384f2d3e77a4fE
                0x000000000011d9b0       0x3c ./gen/../rust_opt/target/armv7a-none-eabi/release/libitron.a(core-d049573bc16596f9.core.5587a85061e7188a-cgu.0.rcgu.o)
                0x000000000011d9b0                <u8 as core::num::bignum::FullOps>::full_div_rem
 .text._ZN50_$LT$u16$u20$as$u20$core..num..bignum..FullOps$GT$12full_div_rem17h895795127941bc5fE
                0x000000000011d9ec       0x3c ./gen/../rust_opt/target/armv7a-none-eabi/release/libitron.a(core-d049573bc16596f9.core.5587a85061e7188a-cgu.0.rcgu.o)
                0x000000000011d9ec                <u16 as core::num::bignum::FullOps>::full_div_rem
 .text._ZN50_$LT$u32$u20$as$u20$core..num..bignum..FullOps$GT$12full_div_rem17h28797f3a608675a0E
                0x000000000011da28       0x3c ./gen/../rust_opt/target/armv7a-none-eabi/release/libitron.a(core-d049573bc16596f9.core.5587a85061e7188a-cgu.0.rcgu.o)
                0x000000000011da28                <u32 as core::num::bignum::FullOps>::full_div_rem
 .text._ZN4core3num6bignum8Big32x408from_u6417hdb3b6b903cdc3a74E
                0x000000000011da64       0x48 ./gen/../rust_opt/target/armv7a-none-eabi/release/libitron.a(core-d049573bc16596f9.core.5587a85061e7188a-cgu.0.rcgu.o)
                0x000000000011da64                core::num::bignum::Big32x40::from_u64
 .text._ZN4core3num6bignum8Big32x406digits17hc74a7300cf748785E
                0x000000000011daac       0x28 ./gen/../rust_opt/target/armv7a-none-eabi/release/libitron.a(core-d049573bc16596f9.core.5587a85061e7188a-cgu.0.rcgu.o)
                0x000000000011daac                core::num::bignum::Big32x40::digits
 .text._ZN4core3num6bignum8Big32x407get_bit17hae59a386b0269424E
                0x000000000011dad4       0x3c ./gen/../rust_opt/target/armv7a-none-eabi/release/libitron.a(core-d049573bc16596f9.core.5587a85061e7188a-cgu.0.rcgu.o)
                0x000000000011dad4                core::num::bignum::Big32x40::get_bit
 .text._ZN4core3num6bignum8Big32x407is_zero17h00d7531c94d29d9dE
                0x000000000011db10       0x54 ./gen/../rust_opt/target/armv7a-none-eabi/release/libitron.a(core-d049573bc16596f9.core.5587a85061e7188a-cgu.0.rcgu.o)
                0x000000000011db10                core::num::bignum::Big32x40::is_zero
 .text._ZN4core3num6bignum8Big32x4010bit_length17h970dea92bc07a054E
                0x000000000011db64       0x88 ./gen/../rust_opt/target/armv7a-none-eabi/release/libitron.a(core-d049573bc16596f9.core.5587a85061e7188a-cgu.0.rcgu.o)
                0x000000000011db64                core::num::bignum::Big32x40::bit_length
 .text._ZN4core3num6bignum8Big32x403add17hf98911729d873c67E
                0x000000000011dbec       0xbc ./gen/../rust_opt/target/armv7a-none-eabi/release/libitron.a(core-d049573bc16596f9.core.5587a85061e7188a-cgu.0.rcgu.o)
                0x000000000011dbec                core::num::bignum::Big32x40::add
 .text._ZN4core3num6bignum8Big32x409add_small17hae56cb6d24b5dd80E
                0x000000000011dca8      0x34c ./gen/../rust_opt/target/armv7a-none-eabi/release/libitron.a(core-d049573bc16596f9.core.5587a85061e7188a-cgu.0.rcgu.o)
                0x000000000011dca8                core::num::bignum::Big32x40::add_small
 .text._ZN4core3num6bignum8Big32x403sub17h8543d30192c621ccE
                0x000000000011dff4       0xa0 ./gen/../rust_opt/target/armv7a-none-eabi/release/libitron.a(core-d049573bc16596f9.core.5587a85061e7188a-cgu.0.rcgu.o)
                0x000000000011dff4                core::num::bignum::Big32x40::sub
 .text._ZN4core3num6bignum8Big32x409mul_small17h34ad2799e68baebeE
                0x000000000011e094       0xa0 ./gen/../rust_opt/target/armv7a-none-eabi/release/libitron.a(core-d049573bc16596f9.core.5587a85061e7188a-cgu.0.rcgu.o)
                0x000000000011e094                core::num::bignum::Big32x40::mul_small
 .text._ZN4core3num6bignum8Big32x408mul_pow217h15e29a86c60dd6baE
                0x000000000011e134      0x314 ./gen/../rust_opt/target/armv7a-none-eabi/release/libitron.a(core-d049573bc16596f9.core.5587a85061e7188a-cgu.0.rcgu.o)
                0x000000000011e134                core::num::bignum::Big32x40::mul_pow2
 .text._ZN4core3num6bignum8Big32x408mul_pow517h4477c92c4a717ba9E
                0x000000000011e448      0x130 ./gen/../rust_opt/target/armv7a-none-eabi/release/libitron.a(core-d049573bc16596f9.core.5587a85061e7188a-cgu.0.rcgu.o)
                0x000000000011e448                core::num::bignum::Big32x40::mul_pow5
 .text._ZN4core3num6bignum8Big32x4010mul_digits17hc6f1ffa637e3696eE
                0x000000000011e578      0x2f0 ./gen/../rust_opt/target/armv7a-none-eabi/release/libitron.a(core-d049573bc16596f9.core.5587a85061e7188a-cgu.0.rcgu.o)
                0x000000000011e578                core::num::bignum::Big32x40::mul_digits
 .text._ZN4core3num6bignum8Big32x4013div_rem_small17hddc1707b10a22fddE
                0x000000000011e868       0x98 ./gen/../rust_opt/target/armv7a-none-eabi/release/libitron.a(core-d049573bc16596f9.core.5587a85061e7188a-cgu.0.rcgu.o)
                0x000000000011e868                core::num::bignum::Big32x40::div_rem_small
 .text._ZN4core3num6bignum8Big32x407div_rem17h0bf0c17f8e59470eE
                0x000000000011e900      0x294 ./gen/../rust_opt/target/armv7a-none-eabi/release/libitron.a(core-d049573bc16596f9.core.5587a85061e7188a-cgu.0.rcgu.o)
                0x000000000011e900                core::num::bignum::Big32x40::div_rem
 .text._ZN68_$LT$core..num..bignum..Big32x40$u20$as$u20$core..cmp..PartialEq$GT$2eq17h2b3b2b69262323daE
                0x000000000011eb94       0x1c ./gen/../rust_opt/target/armv7a-none-eabi/release/libitron.a(core-d049573bc16596f9.core.5587a85061e7188a-cgu.0.rcgu.o)
                0x000000000011eb94                <core::num::bignum::Big32x40 as core::cmp::PartialEq>::eq
 .text._ZN69_$LT$core..num..bignum..Big32x40$u20$as$u20$core..cmp..PartialOrd$GT$11partial_cmp17hfaa047bbd7529c6dE
                0x000000000011ebb0       0x80 ./gen/../rust_opt/target/armv7a-none-eabi/release/libitron.a(core-d049573bc16596f9.core.5587a85061e7188a-cgu.0.rcgu.o)
                0x000000000011ebb0                <core::num::bignum::Big32x40 as core::cmp::PartialOrd>::partial_cmp
 .text._ZN62_$LT$core..num..bignum..Big32x40$u20$as$u20$core..cmp..Ord$GT$3cmp17h3a927d79b9dd52acE
                0x000000000011ec30       0x80 ./gen/../rust_opt/target/armv7a-none-eabi/release/libitron.a(core-d049573bc16596f9.core.5587a85061e7188a-cgu.0.rcgu.o)
                0x000000000011ec30                <core::num::bignum::Big32x40 as core::cmp::Ord>::cmp
 .text._ZN64_$LT$core..num..bignum..Big32x40$u20$as$u20$core..fmt..Debug$GT$3fmt17hc2049124d32db79eE
                0x000000000011ecb0      0x154 ./gen/../rust_opt/target/armv7a-none-eabi/release/libitron.a(core-d049573bc16596f9.core.5587a85061e7188a-cgu.0.rcgu.o)
                0x000000000011ecb0                <core::num::bignum::Big32x40 as core::fmt::Debug>::fmt
 .text._ZN4core3num6bignum5tests6Big8x38from_u6417hd68b6d9a5152475dE
                0x000000000011ee04       0x98 ./gen/../rust_opt/target/armv7a-none-eabi/release/libitron.a(core-d049573bc16596f9.core.5587a85061e7188a-cgu.0.rcgu.o)
                0x000000000011ee04                core::num::bignum::tests::Big8x3::from_u64
 .text._ZN4core3num6bignum5tests6Big8x36digits17he3519563a60c1407E
                0x000000000011ee9c       0x2c ./gen/../rust_opt/target/armv7a-none-eabi/release/libitron.a(core-d049573bc16596f9.core.5587a85061e7188a-cgu.0.rcgu.o)
                0x000000000011ee9c                core::num::bignum::tests::Big8x3::digits
 .text._ZN4core3num6bignum5tests6Big8x37get_bit17h3c0e105d94bd5b13E
                0x000000000011eec8       0x3c ./gen/../rust_opt/target/armv7a-none-eabi/release/libitron.a(core-d049573bc16596f9.core.5587a85061e7188a-cgu.0.rcgu.o)
                0x000000000011eec8                core::num::bignum::tests::Big8x3::get_bit
 .text._ZN4core3num6bignum5tests6Big8x37is_zero17h32e72f5d7dbb5adbE
                0x000000000011ef04       0x90 ./gen/../rust_opt/target/armv7a-none-eabi/release/libitron.a(core-d049573bc16596f9.core.5587a85061e7188a-cgu.0.rcgu.o)
                0x000000000011ef04                core::num::bignum::tests::Big8x3::is_zero
 .text._ZN4core3num6bignum5tests6Big8x310bit_length17h83652b24f2592b66E
                0x000000000011ef94       0xd4 ./gen/../rust_opt/target/armv7a-none-eabi/release/libitron.a(core-d049573bc16596f9.core.5587a85061e7188a-cgu.0.rcgu.o)
                0x000000000011ef94                core::num::bignum::tests::Big8x3::bit_length
 .text._ZN4core3num6bignum5tests6Big8x33add17h0ea9b7b009d144c0E
                0x000000000011f068       0xd4 ./gen/../rust_opt/target/armv7a-none-eabi/release/libitron.a(core-d049573bc16596f9.core.5587a85061e7188a-cgu.0.rcgu.o)
                0x000000000011f068                core::num::bignum::tests::Big8x3::add
 .text._ZN4core3num6bignum5tests6Big8x39add_small17hfb578bb3ef3121e5E
                0x000000000011f13c       0x80 ./gen/../rust_opt/target/armv7a-none-eabi/release/libitron.a(core-d049573bc16596f9.core.5587a85061e7188a-cgu.0.rcgu.o)
                0x000000000011f13c                core::num::bignum::tests::Big8x3::add_small
 .text._ZN4core3num6bignum5tests6Big8x33sub17he7cc307db19dcf38E
                0x000000000011f1bc       0xb4 ./gen/../rust_opt/target/armv7a-none-eabi/release/libitron.a(core-d049573bc16596f9.core.5587a85061e7188a-cgu.0.rcgu.o)
                0x000000000011f1bc                core::num::bignum::tests::Big8x3::sub
 .text._ZN4core3num6bignum5tests6Big8x39mul_small17h88500d5dffbe03a5E
                0x000000000011f270       0xc8 ./gen/../rust_opt/target/armv7a-none-eabi/release/libitron.a(core-d049573bc16596f9.core.5587a85061e7188a-cgu.0.rcgu.o)
                0x000000000011f270                core::num::bignum::tests::Big8x3::mul_small
 .text._ZN4core3num6bignum5tests6Big8x38mul_pow217h7241f869c32bebc8E
                0x000000000011f338      0x164 ./gen/../rust_opt/target/armv7a-none-eabi/release/libitron.a(core-d049573bc16596f9.core.5587a85061e7188a-cgu.0.rcgu.o)
                0x000000000011f338                core::num::bignum::tests::Big8x3::mul_pow2
 .text._ZN4core3num6bignum5tests6Big8x38mul_pow517hbf8d1887a577d4b9E
                0x000000000011f49c      0x174 ./gen/../rust_opt/target/armv7a-none-eabi/release/libitron.a(core-d049573bc16596f9.core.5587a85061e7188a-cgu.0.rcgu.o)
                0x000000000011f49c                core::num::bignum::tests::Big8x3::mul_pow5
 .text._ZN4core3num6bignum5tests6Big8x310mul_digits17hc92e3128bf16df9bE
                0x000000000011f610      0x404 ./gen/../rust_opt/target/armv7a-none-eabi/release/libitron.a(core-d049573bc16596f9.core.5587a85061e7188a-cgu.0.rcgu.o)
                0x000000000011f610                core::num::bignum::tests::Big8x3::mul_digits
 .text._ZN4core3num6bignum5tests6Big8x313div_rem_small17h3d76b4dc7e13bdf9E
                0x000000000011fa14       0xdc ./gen/../rust_opt/target/armv7a-none-eabi/release/libitron.a(core-d049573bc16596f9.core.5587a85061e7188a-cgu.0.rcgu.o)
                0x000000000011fa14                core::num::bignum::tests::Big8x3::div_rem_small
 .text._ZN4core3num6bignum5tests6Big8x37div_rem17hd07a45cafecfa95dE
                0x000000000011faf0      0x30c ./gen/../rust_opt/target/armv7a-none-eabi/release/libitron.a(core-d049573bc16596f9.core.5587a85061e7188a-cgu.0.rcgu.o)
                0x000000000011faf0                core::num::bignum::tests::Big8x3::div_rem
 .text._ZN73_$LT$core..num..bignum..tests..Big8x3$u20$as$u20$core..cmp..PartialEq$GT$2eq17h2a5bec94bf0063b9E
                0x000000000011fdfc       0x24 ./gen/../rust_opt/target/armv7a-none-eabi/release/libitron.a(core-d049573bc16596f9.core.5587a85061e7188a-cgu.0.rcgu.o)
                0x000000000011fdfc                <core::num::bignum::tests::Big8x3 as core::cmp::PartialEq>::eq
 .text._ZN74_$LT$core..num..bignum..tests..Big8x3$u20$as$u20$core..cmp..PartialOrd$GT$11partial_cmp17h48d5846d2573a5e1E
                0x000000000011fe20       0xbc ./gen/../rust_opt/target/armv7a-none-eabi/release/libitron.a(core-d049573bc16596f9.core.5587a85061e7188a-cgu.0.rcgu.o)
                0x000000000011fe20                <core::num::bignum::tests::Big8x3 as core::cmp::PartialOrd>::partial_cmp
 .text._ZN67_$LT$core..num..bignum..tests..Big8x3$u20$as$u20$core..cmp..Ord$GT$3cmp17h8a7502baf7f3c9a5E
                0x000000000011fedc       0xbc ./gen/../rust_opt/target/armv7a-none-eabi/release/libitron.a(core-d049573bc16596f9.core.5587a85061e7188a-cgu.0.rcgu.o)
                0x000000000011fedc                <core::num::bignum::tests::Big8x3 as core::cmp::Ord>::cmp
 .text._ZN69_$LT$core..num..bignum..tests..Big8x3$u20$as$u20$core..fmt..Debug$GT$3fmt17hf9300f71b8428542E
                0x000000000011ff98      0x13c ./gen/../rust_opt/target/armv7a-none-eabi/release/libitron.a(core-d049573bc16596f9.core.5587a85061e7188a-cgu.0.rcgu.o)
                0x000000000011ff98                <core::num::bignum::tests::Big8x3 as core::fmt::Debug>::fmt
 .text._ZN4core3num7dec2flt60_$LT$impl$u20$core..str..traits..FromStr$u20$for$u20$f16$GT$8from_str17h0d34f16cb03d4084E
                0x00000000001200d4      0x638 ./gen/../rust_opt/target/armv7a-none-eabi/release/libitron.a(core-d049573bc16596f9.core.5587a85061e7188a-cgu.0.rcgu.o)
                0x00000000001200d4                core::num::dec2flt::<impl core::str::traits::FromStr for f16>::from_str
 .text._ZN4core3num7dec2flt60_$LT$impl$u20$core..str..traits..FromStr$u20$for$u20$f32$GT$8from_str17haab41bb9ce3e1e69E
                0x000000000012070c      0x608 ./gen/../rust_opt/target/armv7a-none-eabi/release/libitron.a(core-d049573bc16596f9.core.5587a85061e7188a-cgu.0.rcgu.o)
                0x000000000012070c                core::num::dec2flt::<impl core::str::traits::FromStr for f32>::from_str
 .text._ZN4core3num7dec2flt60_$LT$impl$u20$core..str..traits..FromStr$u20$for$u20$f64$GT$8from_str17h9934b968a57533b4E
                0x0000000000120d14      0x668 ./gen/../rust_opt/target/armv7a-none-eabi/release/libitron.a(core-d049573bc16596f9.core.5587a85061e7188a-cgu.0.rcgu.o)
                0x0000000000120d14                core::num::dec2flt::<impl core::str::traits::FromStr for f64>::from_str
 .text._ZN73_$LT$core..num..nonzero..NonZero$LT$T$GT$$u20$as$u20$core..fmt..Debug$GT$3fmt17hfee7ea0a19225bacE
                0x000000000012137c       0xc0 ./gen/../rust_opt/target/armv7a-none-eabi/release/libitron.a(core-d049573bc16596f9.core.5587a85061e7188a-cgu.0.rcgu.o)
 .text._ZN84_$LT$core..num..nonzero..NonZero$LT$u8$GT$$u20$as$u20$core..str..traits..FromStr$GT$8from_str17ha566d71859ee37bcE
                0x000000000012143c      0x148 ./gen/../rust_opt/target/armv7a-none-eabi/release/libitron.a(core-d049573bc16596f9.core.5587a85061e7188a-cgu.0.rcgu.o)
                0x000000000012143c                <core::num::nonzero::NonZero<u8> as core::str::traits::FromStr>::from_str
 .text._ZN85_$LT$core..num..nonzero..NonZero$LT$u16$GT$$u20$as$u20$core..str..traits..FromStr$GT$8from_str17h22aefbcb4cc26c68E
                0x0000000000121584      0x14c ./gen/../rust_opt/target/armv7a-none-eabi/release/libitron.a(core-d049573bc16596f9.core.5587a85061e7188a-cgu.0.rcgu.o)
                0x0000000000121584                <core::num::nonzero::NonZero<u16> as core::str::traits::FromStr>::from_str
 .text._ZN85_$LT$core..num..nonzero..NonZero$LT$u32$GT$$u20$as$u20$core..str..traits..FromStr$GT$8from_str17h957fe3dbd5a241bcE
                0x00000000001216d0      0x150 ./gen/../rust_opt/target/armv7a-none-eabi/release/libitron.a(core-d049573bc16596f9.core.5587a85061e7188a-cgu.0.rcgu.o)
                0x00000000001216d0                <core::num::nonzero::NonZero<u32> as core::str::traits::FromStr>::from_str
 .text._ZN85_$LT$core..num..nonzero..NonZero$LT$u64$GT$$u20$as$u20$core..str..traits..FromStr$GT$8from_str17hb05b038cb220d66cE
                0x0000000000121820      0x158 ./gen/../rust_opt/target/armv7a-none-eabi/release/libitron.a(core-d049573bc16596f9.core.5587a85061e7188a-cgu.0.rcgu.o)
                0x0000000000121820                <core::num::nonzero::NonZero<u64> as core::str::traits::FromStr>::from_str
 .text._ZN86_$LT$core..num..nonzero..NonZero$LT$u128$GT$$u20$as$u20$core..str..traits..FromStr$GT$8from_str17hce0b07860262ce09E
                0x0000000000121978      0x1c8 ./gen/../rust_opt/target/armv7a-none-eabi/release/libitron.a(core-d049573bc16596f9.core.5587a85061e7188a-cgu.0.rcgu.o)
                0x0000000000121978                <core::num::nonzero::NonZero<u128> as core::str::traits::FromStr>::from_str
 .text._ZN87_$LT$core..num..nonzero..NonZero$LT$usize$GT$$u20$as$u20$core..str..traits..FromStr$GT$8from_str17h1733288da9636848E
                0x0000000000121b40      0x130 ./gen/../rust_opt/target/armv7a-none-eabi/release/libitron.a(core-d049573bc16596f9.core.5587a85061e7188a-cgu.0.rcgu.o)
                0x0000000000121b40                <core::num::nonzero::NonZero<usize> as core::str::traits::FromStr>::from_str
 .text._ZN84_$LT$core..num..nonzero..NonZero$LT$i8$GT$$u20$as$u20$core..str..traits..FromStr$GT$8from_str17hebe21d8ddaff9330E
                0x0000000000121c70      0x238 ./gen/../rust_opt/target/armv7a-none-eabi/release/libitron.a(core-d049573bc16596f9.core.5587a85061e7188a-cgu.0.rcgu.o)
                0x0000000000121c70                <core::num::nonzero::NonZero<i8> as core::str::traits::FromStr>::from_str
 .text._ZN85_$LT$core..num..nonzero..NonZero$LT$i16$GT$$u20$as$u20$core..str..traits..FromStr$GT$8from_str17h5460cf01298f7943E
                0x0000000000121ea8      0x230 ./gen/../rust_opt/target/armv7a-none-eabi/release/libitron.a(core-d049573bc16596f9.core.5587a85061e7188a-cgu.0.rcgu.o)
                0x0000000000121ea8                <core::num::nonzero::NonZero<i16> as core::str::traits::FromStr>::from_str
 .text._ZN85_$LT$core..num..nonzero..NonZero$LT$i32$GT$$u20$as$u20$core..str..traits..FromStr$GT$8from_str17h82302f5d78c06a81E
                0x00000000001220d8      0x1e4 ./gen/../rust_opt/target/armv7a-none-eabi/release/libitron.a(core-d049573bc16596f9.core.5587a85061e7188a-cgu.0.rcgu.o)
                0x00000000001220d8                <core::num::nonzero::NonZero<isize> as core::str::traits::FromStr>::from_str
                0x00000000001220d8                <core::num::nonzero::NonZero<i32> as core::str::traits::FromStr>::from_str
 .text._ZN85_$LT$core..num..nonzero..NonZero$LT$i64$GT$$u20$as$u20$core..str..traits..FromStr$GT$8from_str17hf63377f21a3fb6baE
                0x00000000001222bc      0x240 ./gen/../rust_opt/target/armv7a-none-eabi/release/libitron.a(core-d049573bc16596f9.core.5587a85061e7188a-cgu.0.rcgu.o)
                0x00000000001222bc                <core::num::nonzero::NonZero<i64> as core::str::traits::FromStr>::from_str
 .text._ZN86_$LT$core..num..nonzero..NonZero$LT$i128$GT$$u20$as$u20$core..str..traits..FromStr$GT$8from_str17h404bcfcc368805b5E
                0x00000000001224fc      0x334 ./gen/../rust_opt/target/armv7a-none-eabi/release/libitron.a(core-d049573bc16596f9.core.5587a85061e7188a-cgu.0.rcgu.o)
                0x00000000001224fc                <core::num::nonzero::NonZero<i128> as core::str::traits::FromStr>::from_str
 .text._ZN72_$LT$core..num..niche_types..Nanoseconds$u20$as$u20$core..fmt..Debug$GT$3fmt17h6df87c1b0e86c542E
                0x0000000000122830       0xc0 ./gen/../rust_opt/target/armv7a-none-eabi/release/libitron.a(core-d049573bc16596f9.core.5587a85061e7188a-cgu.0.rcgu.o)
                0x0000000000122830                <core::num::niche_types::Nanoseconds as core::fmt::Debug>::fmt
 .text._ZN75_$LT$core..num..niche_types..NonZeroU8Inner$u20$as$u20$core..fmt..Debug$GT$3fmt17h9934d86d94d3ba9dE
                0x00000000001228f0       0x14 ./gen/../rust_opt/target/armv7a-none-eabi/release/libitron.a(core-d049573bc16596f9.core.5587a85061e7188a-cgu.0.rcgu.o)
                0x00000000001228f0                <core::num::niche_types::NonZeroU8Inner as core::fmt::Debug>::fmt
 .text._ZN76_$LT$core..num..niche_types..NonZeroU16Inner$u20$as$u20$core..fmt..Debug$GT$3fmt17h1e0f277c7c9985fdE
                0x0000000000122904       0xc8 ./gen/../rust_opt/target/armv7a-none-eabi/release/libitron.a(core-d049573bc16596f9.core.5587a85061e7188a-cgu.0.rcgu.o)
                0x0000000000122904                <core::num::niche_types::NonZeroU16Inner as core::fmt::Debug>::fmt
 .text._ZN76_$LT$core..num..niche_types..NonZeroU32Inner$u20$as$u20$core..fmt..Debug$GT$3fmt17h4208945a1918bf76E
                0x00000000001229cc       0xc0 ./gen/../rust_opt/target/armv7a-none-eabi/release/libitron.a(core-d049573bc16596f9.core.5587a85061e7188a-cgu.0.rcgu.o)
                0x00000000001229cc                <core::num::niche_types::NonZeroUsizeInner as core::fmt::Debug>::fmt
                0x00000000001229cc                <core::num::niche_types::NonZeroU32Inner as core::fmt::Debug>::fmt
 .text._ZN76_$LT$core..num..niche_types..NonZeroU64Inner$u20$as$u20$core..fmt..Debug$GT$3fmt17hcec75d0956b73778E
                0x0000000000122a8c       0xe0 ./gen/../rust_opt/target/armv7a-none-eabi/release/libitron.a(core-d049573bc16596f9.core.5587a85061e7188a-cgu.0.rcgu.o)
                0x0000000000122a8c                <core::num::niche_types::NonZeroU64Inner as core::fmt::Debug>::fmt
 .text._ZN77_$LT$core..num..niche_types..NonZeroU128Inner$u20$as$u20$core..fmt..Debug$GT$3fmt17h5bc8c49a87650843E
                0x0000000000122b6c      0x154 ./gen/../rust_opt/target/armv7a-none-eabi/release/libitron.a(core-d049573bc16596f9.core.5587a85061e7188a-cgu.0.rcgu.o)
                0x0000000000122b6c                <core::num::niche_types::NonZeroU128Inner as core::fmt::Debug>::fmt
 .text._ZN75_$LT$core..num..niche_types..NonZeroI8Inner$u20$as$u20$core..fmt..Debug$GT$3fmt17hc1ad68564dffd6e0E
                0x0000000000122cc0       0x14 ./gen/../rust_opt/target/armv7a-none-eabi/release/libitron.a(core-d049573bc16596f9.core.5587a85061e7188a-cgu.0.rcgu.o)
                0x0000000000122cc0                <core::num::niche_types::NonZeroI8Inner as core::fmt::Debug>::fmt
 .text._ZN76_$LT$core..num..niche_types..NonZeroI16Inner$u20$as$u20$core..fmt..Debug$GT$3fmt17h1bae456063d3b38aE
                0x0000000000122cd4       0xc8 ./gen/../rust_opt/target/armv7a-none-eabi/release/libitron.a(core-d049573bc16596f9.core.5587a85061e7188a-cgu.0.rcgu.o)
                0x0000000000122cd4                <core::num::niche_types::NonZeroI16Inner as core::fmt::Debug>::fmt
 .text._ZN76_$LT$core..num..niche_types..NonZeroI32Inner$u20$as$u20$core..fmt..Debug$GT$3fmt17h22fbf48f72b85284E
                0x0000000000122d9c       0xc0 ./gen/../rust_opt/target/armv7a-none-eabi/release/libitron.a(core-d049573bc16596f9.core.5587a85061e7188a-cgu.0.rcgu.o)
                0x0000000000122d9c                <core::num::niche_types::NonZeroIsizeInner as core::fmt::Debug>::fmt
                0x0000000000122d9c                <core::num::niche_types::NonZeroI32Inner as core::fmt::Debug>::fmt
 .text._ZN76_$LT$core..num..niche_types..NonZeroI64Inner$u20$as$u20$core..fmt..Debug$GT$3fmt17h8bb2c468a465aac2E
                0x0000000000122e5c       0xe0 ./gen/../rust_opt/target/armv7a-none-eabi/release/libitron.a(core-d049573bc16596f9.core.5587a85061e7188a-cgu.0.rcgu.o)
                0x0000000000122e5c                <core::num::niche_types::NonZeroI64Inner as core::fmt::Debug>::fmt
 .text._ZN77_$LT$core..num..niche_types..NonZeroI128Inner$u20$as$u20$core..fmt..Debug$GT$3fmt17h7658577fe72d6a93E
                0x0000000000122f3c      0x170 ./gen/../rust_opt/target/armv7a-none-eabi/release/libitron.a(core-d049573bc16596f9.core.5587a85061e7188a-cgu.0.rcgu.o)
                0x0000000000122f3c                <core::num::niche_types::NonZeroI128Inner as core::fmt::Debug>::fmt
 .text._ZN75_$LT$core..num..niche_types..UsizeNoHighBit$u20$as$u20$core..fmt..Debug$GT$3fmt17h77e5bca56126e0b7E
                0x00000000001230ac       0xc0 ./gen/../rust_opt/target/armv7a-none-eabi/release/libitron.a(core-d049573bc16596f9.core.5587a85061e7188a-cgu.0.rcgu.o)
                0x00000000001230ac                <core::num::niche_types::UsizeNoHighBit as core::fmt::Debug>::fmt
 .text._ZN74_$LT$core..num..niche_types..U32NotAllOnes$u20$as$u20$core..fmt..Debug$GT$3fmt17hdae2b85bd7a76fa0E
                0x000000000012316c       0xc0 ./gen/../rust_opt/target/armv7a-none-eabi/release/libitron.a(core-d049573bc16596f9.core.5587a85061e7188a-cgu.0.rcgu.o)
                0x000000000012316c                <core::num::niche_types::U32NotAllOnes as core::fmt::Debug>::fmt
 .text._ZN74_$LT$core..num..niche_types..I32NotAllOnes$u20$as$u20$core..fmt..Debug$GT$3fmt17ha30c204f41712d0cE
                0x000000000012322c       0xc0 ./gen/../rust_opt/target/armv7a-none-eabi/release/libitron.a(core-d049573bc16596f9.core.5587a85061e7188a-cgu.0.rcgu.o)
                0x000000000012322c                <core::num::niche_types::I32NotAllOnes as core::fmt::Debug>::fmt
 .text._ZN74_$LT$core..num..niche_types..U64NotAllOnes$u20$as$u20$core..fmt..Debug$GT$3fmt17h9aae2314a6753889E
                0x00000000001232ec       0xe0 ./gen/../rust_opt/target/armv7a-none-eabi/release/libitron.a(core-d049573bc16596f9.core.5587a85061e7188a-cgu.0.rcgu.o)
                0x00000000001232ec                <core::num::niche_types::U64NotAllOnes as core::fmt::Debug>::fmt
 .text._ZN74_$LT$core..num..niche_types..I64NotAllOnes$u20$as$u20$core..fmt..Debug$GT$3fmt17hcd11c67aaecfa5cdE
                0x00000000001233cc       0xe0 ./gen/../rust_opt/target/armv7a-none-eabi/release/libitron.a(core-d049573bc16596f9.core.5587a85061e7188a-cgu.0.rcgu.o)
                0x00000000001233cc                <core::num::niche_types::I64NotAllOnes as core::fmt::Debug>::fmt
 .text.unlikely._ZN4core3num22from_ascii_radix_panic8do_panic7runtime17h20bf34c324abd015E
                0x00000000001234ac       0x54 ./gen/../rust_opt/target/armv7a-none-eabi/release/libitron.a(core-d049573bc16596f9.core.5587a85061e7188a-cgu.0.rcgu.o)
                0x00000000001234ac                core::num::from_ascii_radix_panic::do_panic::runtime
 .text.unlikely._ZN4core10intrinsics3mir11PtrMetadata19panic_cold_explicit17h38f2b2d764b9fcc9E
                0x0000000000123500        0xc ./gen/../rust_opt/target/armv7a-none-eabi/release/libitron.a(core-d049573bc16596f9.core.5587a85061e7188a-cgu.0.rcgu.o)
                0x0000000000123500                core::intrinsics::mir::__debuginfo::panic_cold_explicit
                0x0000000000123500                core::intrinsics::mir::CastPtrToPtr::panic_cold_explicit
                0x0000000000123500                core::intrinsics::mir::UnwindUnreachable::panic_cold_explicit
                0x0000000000123500                core::intrinsics::mir::ReturnTo::panic_cold_explicit
                0x0000000000123500                core::intrinsics::mir::UnwindResume::panic_cold_explicit
                0x0000000000123500                core::intrinsics::mir::Retag::panic_cold_explicit
                0x0000000000123500                core::intrinsics::mir::Unreachable::panic_cold_explicit
                0x0000000000123500                core::intrinsics::mir::Offset::panic_cold_explicit
                0x0000000000123500                core::intrinsics::mir::CastTransmute::panic_cold_explicit
                0x0000000000123500                core::intrinsics::mir::Checked::panic_cold_explicit
                0x0000000000123500                core::intrinsics::mir::Static::panic_cold_explicit
                0x0000000000123500                core::intrinsics::mir::TailCall::panic_cold_explicit
                0x0000000000123500                core::intrinsics::mir::Drop::panic_cold_explicit
                0x0000000000123500                core::intrinsics::mir::Variant::panic_cold_explicit
                0x0000000000123500                core::intrinsics::mir::CopyForDeref::panic_cold_explicit
                0x0000000000123500                core::intrinsics::mir::Discriminant::panic_cold_explicit
                0x0000000000123500                core::intrinsics::mir::Call::panic_cold_explicit
                0x0000000000123500                core::intrinsics::mir::UnwindCleanup::panic_cold_explicit
                0x0000000000123500                core::intrinsics::mir::UnwindTerminate::panic_cold_explicit
                0x0000000000123500                core::intrinsics::mir::Assume::panic_cold_explicit
                0x0000000000123500                core::intrinsics::mir::UnwindContinue::panic_cold_explicit
                0x0000000000123500                core::intrinsics::mir::SetDiscriminant::panic_cold_explicit
                0x0000000000123500                core::intrinsics::mir::StorageLive::panic_cold_explicit
                0x0000000000123500                core::intrinsics::mir::StaticMut::panic_cold_explicit
                0x0000000000123500                core::intrinsics::mir::Deinit::panic_cold_explicit
                0x0000000000123500                core::intrinsics::mir::PtrMetadata::panic_cold_explicit
                0x0000000000123500                core::intrinsics::mir::Return::panic_cold_explicit
                0x0000000000123500                core::intrinsics::mir::Len::panic_cold_explicit
                0x0000000000123500                core::intrinsics::mir::Goto::panic_cold_explicit
                0x0000000000123500                core::intrinsics::mir::StorageDead::panic_cold_explicit
                0x0000000000123500                core::intrinsics::mir::Field::panic_cold_explicit
                0x0000000000123500                core::intrinsics::mir::Move::panic_cold_explicit
                0x0000000000123500                core::intrinsics::mir::__internal_make_place::panic_cold_explicit
 .text._ZN85_$LT$core..marker..variance..PhantomCovariantLifetime$u20$as$u20$core..fmt..Debug$GT$3fmt17h092ab231f6840623E
                0x000000000012350c       0x24 ./gen/../rust_opt/target/armv7a-none-eabi/release/libitron.a(core-d049573bc16596f9.core.5587a85061e7188a-cgu.0.rcgu.o)
                0x000000000012350c                <core::marker::variance::PhantomCovariantLifetime as core::fmt::Debug>::fmt
 .text._ZN89_$LT$core..marker..variance..PhantomContravariantLifetime$u20$as$u20$core..fmt..Debug$GT$3fmt17hc36f606a10431dddE
                0x0000000000123530       0x24 ./gen/../rust_opt/target/armv7a-none-eabi/release/libitron.a(core-d049573bc16596f9.core.5587a85061e7188a-cgu.0.rcgu.o)
                0x0000000000123530                <core::marker::variance::PhantomContravariantLifetime as core::fmt::Debug>::fmt
 .text._ZN85_$LT$core..marker..variance..PhantomInvariantLifetime$u20$as$u20$core..fmt..Debug$GT$3fmt17h310726426d633410E
                0x0000000000123554       0x24 ./gen/../rust_opt/target/armv7a-none-eabi/release/libitron.a(core-d049573bc16596f9.core.5587a85061e7188a-cgu.0.rcgu.o)
                0x0000000000123554                <core::marker::variance::PhantomInvariantLifetime as core::fmt::Debug>::fmt
 .text.unlikely._ZN4core4char7methods15encode_utf8_raw8do_panic7runtime17h8d77bbd109129b2bE
                0x0000000000123578       0x80 ./gen/../rust_opt/target/armv7a-none-eabi/release/libitron.a(core-d049573bc16596f9.core.5587a85061e7188a-cgu.0.rcgu.o)
                0x0000000000123578                core::char::methods::encode_utf8_raw::do_panic::runtime
 .text.unlikely._ZN4core4char7methods16encode_utf16_raw8do_panic7runtime17h780c16f034ec0cfdE
                0x00000000001235f8       0x80 ./gen/../rust_opt/target/armv7a-none-eabi/release/libitron.a(core-d049573bc16596f9.core.5587a85061e7188a-cgu.0.rcgu.o)
                0x00000000001235f8                core::char::methods::encode_utf16_raw::do_panic::runtime
 .text._ZN82_$LT$core..char..ToLowercase$u20$as$u20$core..iter..traits..iterator..Iterator$GT$4next17hb1b5d710b70686acE
                0x0000000000123678       0x28 ./gen/../rust_opt/target/armv7a-none-eabi/release/libitron.a(core-d049573bc16596f9.core.5587a85061e7188a-cgu.0.rcgu.o)
                0x0000000000123678                <core::char::ToUppercase as core::iter::traits::iterator::Iterator>::next
                0x0000000000123678                <core::char::ToLowercase as core::iter::traits::iterator::Iterator>::next
 .text._ZN82_$LT$core..char..ToLowercase$u20$as$u20$core..iter..traits..iterator..Iterator$GT$5count17h491b5e4cf6ec5bd0E
                0x00000000001236a0       0x14 ./gen/../rust_opt/target/armv7a-none-eabi/release/libitron.a(core-d049573bc16596f9.core.5587a85061e7188a-cgu.0.rcgu.o)
                0x00000000001236a0                <core::char::ToLowercase as core::iter::traits::iterator::Iterator>::count
                0x00000000001236a0                <core::char::ToUppercase as core::iter::traits::iterator::Iterator>::count
 .text._ZN82_$LT$core..char..ToLowercase$u20$as$u20$core..iter..traits..iterator..Iterator$GT$4last17h2be1d7bd83ecbf83E
                0x00000000001236b4       0x40 ./gen/../rust_opt/target/armv7a-none-eabi/release/libitron.a(core-d049573bc16596f9.core.5587a85061e7188a-cgu.0.rcgu.o)
                0x00000000001236b4                <core::char::ToUppercase as core::iter::traits::iterator::Iterator>::last
                0x00000000001236b4                <core::char::ToLowercase as core::iter::traits::iterator::Iterator>::last
 .text._ZN82_$LT$core..char..ToLowercase$u20$as$u20$core..iter..traits..iterator..Iterator$GT$10advance_by17h472a89f7f4a2644dE
                0x00000000001236f4       0x28 ./gen/../rust_opt/target/armv7a-none-eabi/release/libitron.a(core-d049573bc16596f9.core.5587a85061e7188a-cgu.0.rcgu.o)
                0x00000000001236f4                <core::char::ToLowercase as core::iter::traits::iterator::Iterator>::advance_by
                0x00000000001236f4                <core::char::ToUppercase as core::iter::traits::iterator::Iterator>::advance_by
 .text._ZN82_$LT$core..char..ToLowercase$u20$as$u20$core..iter..traits..iterator..Iterator$GT$24__iterator_get_unchecked17h3837a4656c9589c7E
                0x000000000012371c       0x1c ./gen/../rust_opt/target/armv7a-none-eabi/release/libitron.a(core-d049573bc16596f9.core.5587a85061e7188a-cgu.0.rcgu.o)
                0x000000000012371c                <core::char::ToUppercase as core::iter::traits::iterator::Iterator>::__iterator_get_unchecked
                0x000000000012371c                <core::char::ToLowercase as core::iter::traits::iterator::Iterator>::__iterator_get_unchecked
 .text._ZN97_$LT$core..char..ToLowercase$u20$as$u20$core..iter..traits..double_ended..DoubleEndedIterator$GT$9next_back17h3de266f316e266adE
                0x0000000000123738       0x2c ./gen/../rust_opt/target/armv7a-none-eabi/release/libitron.a(core-d049573bc16596f9.core.5587a85061e7188a-cgu.0.rcgu.o)
                0x0000000000123738                <core::char::ToLowercase as core::iter::traits::double_ended::DoubleEndedIterator>::next_back
                0x0000000000123738                <core::char::ToUppercase as core::iter::traits::double_ended::DoubleEndedIterator>::next_back
 .text._ZN97_$LT$core..char..ToLowercase$u20$as$u20$core..iter..traits..double_ended..DoubleEndedIterator$GT$15advance_back_by17h5316befd367a240aE
                0x0000000000123764       0x28 ./gen/../rust_opt/target/armv7a-none-eabi/release/libitron.a(core-d049573bc16596f9.core.5587a85061e7188a-cgu.0.rcgu.o)
                0x0000000000123764                <core::char::ToLowercase as core::iter::traits::double_ended::DoubleEndedIterator>::advance_back_by
                0x0000000000123764                <core::char::ToUppercase as core::iter::traits::double_ended::DoubleEndedIterator>::advance_back_by
 .text._ZN62_$LT$core..char..ToLowercase$u20$as$u20$core..fmt..Display$GT$3fmt17hba63d2a00808b5c9E
                0x000000000012378c       0xdc ./gen/../rust_opt/target/armv7a-none-eabi/release/libitron.a(core-d049573bc16596f9.core.5587a85061e7188a-cgu.0.rcgu.o)
                0x000000000012378c                <core::char::ToLowercase as core::fmt::Display>::fmt
                0x000000000012378c                <core::char::ToUppercase as core::fmt::Display>::fmt
 .text._ZN77_$LT$core..net..ip_addr..Ipv4Addr$u20$as$u20$core..ops..bit..BitAndAssign$GT$13bitand_assign17h4b36b47131fa5cc4E
                0x0000000000123868       0x3c ./gen/../rust_opt/target/armv7a-none-eabi/release/libitron.a(core-d049573bc16596f9.core.5587a85061e7188a-cgu.0.rcgu.o)
                0x0000000000123868                <core::net::ip_addr::Ipv4Addr as core::ops::bit::BitAndAssign>::bitand_assign
 .text._ZN117_$LT$core..net..ip_addr..Ipv4Addr$u20$as$u20$core..ops..bit..BitAndAssign$LT$$RF$core..net..ip_addr..Ipv4Addr$GT$$GT$13bitand_assign17h0229d9be4c328c70E
                0x00000000001238a4       0x4c ./gen/../rust_opt/target/armv7a-none-eabi/release/libitron.a(core-d049573bc16596f9.core.5587a85061e7188a-cgu.0.rcgu.o)
                0x00000000001238a4                <core::net::ip_addr::Ipv4Addr as core::ops::bit::BitAndAssign<&core::net::ip_addr::Ipv4Addr>>::bitand_assign
 .text._ZN76_$LT$core..net..ip_addr..Ipv4Addr$u20$as$u20$core..ops..bit..BitOrAssign$GT$12bitor_assign17h5dbcc27e1bc263c6E
                0x00000000001238f0       0x3c ./gen/../rust_opt/target/armv7a-none-eabi/release/libitron.a(core-d049573bc16596f9.core.5587a85061e7188a-cgu.0.rcgu.o)
                0x00000000001238f0                <core::net::ip_addr::Ipv4Addr as core::ops::bit::BitOrAssign>::bitor_assign
 .text._ZN116_$LT$core..net..ip_addr..Ipv4Addr$u20$as$u20$core..ops..bit..BitOrAssign$LT$$RF$core..net..ip_addr..Ipv4Addr$GT$$GT$12bitor_assign17h44764761fe65c596E
                0x000000000012392c       0x4c ./gen/../rust_opt/target/armv7a-none-eabi/release/libitron.a(core-d049573bc16596f9.core.5587a85061e7188a-cgu.0.rcgu.o)
                0x000000000012392c                <core::net::ip_addr::Ipv4Addr as core::ops::bit::BitOrAssign<&core::net::ip_addr::Ipv4Addr>>::bitor_assign
 .text._ZN77_$LT$core..net..ip_addr..Ipv6Addr$u20$as$u20$core..ops..bit..BitAndAssign$GT$13bitand_assign17hdf1001071943e21cE
                0x0000000000123978      0x14c ./gen/../rust_opt/target/armv7a-none-eabi/release/libitron.a(core-d049573bc16596f9.core.5587a85061e7188a-cgu.0.rcgu.o)
                0x0000000000123978                <core::net::ip_addr::Ipv6Addr as core::ops::bit::BitAndAssign>::bitand_assign
 .text._ZN117_$LT$core..net..ip_addr..Ipv6Addr$u20$as$u20$core..ops..bit..BitAndAssign$LT$$RF$core..net..ip_addr..Ipv6Addr$GT$$GT$13bitand_assign17hecc377bff21d2c6fE
                0x0000000000123ac4      0x14c ./gen/../rust_opt/target/armv7a-none-eabi/release/libitron.a(core-d049573bc16596f9.core.5587a85061e7188a-cgu.0.rcgu.o)
                0x0000000000123ac4                <core::net::ip_addr::Ipv6Addr as core::ops::bit::BitAndAssign<&core::net::ip_addr::Ipv6Addr>>::bitand_assign
 .text._ZN76_$LT$core..net..ip_addr..Ipv6Addr$u20$as$u20$core..ops..bit..BitOrAssign$GT$12bitor_assign17h8802b9526f9e1ec3E
                0x0000000000123c10      0x14c ./gen/../rust_opt/target/armv7a-none-eabi/release/libitron.a(core-d049573bc16596f9.core.5587a85061e7188a-cgu.0.rcgu.o)
                0x0000000000123c10                <core::net::ip_addr::Ipv6Addr as core::ops::bit::BitOrAssign>::bitor_assign
 .text._ZN116_$LT$core..net..ip_addr..Ipv6Addr$u20$as$u20$core..ops..bit..BitOrAssign$LT$$RF$core..net..ip_addr..Ipv6Addr$GT$$GT$12bitor_assign17h15c5b2f4ea6a9f87E
                0x0000000000123d5c      0x14c ./gen/../rust_opt/target/armv7a-none-eabi/release/libitron.a(core-d049573bc16596f9.core.5587a85061e7188a-cgu.0.rcgu.o)
                0x0000000000123d5c                <core::net::ip_addr::Ipv6Addr as core::ops::bit::BitOrAssign<&core::net::ip_addr::Ipv6Addr>>::bitor_assign
 .text.unlikely._ZN4core9panicking11panic_const24panic_const_add_overflow17h518b917df10cd0eaE
                0x0000000000123ea8       0x40 ./gen/../rust_opt/target/armv7a-none-eabi/release/libitron.a(core-d049573bc16596f9.core.5587a85061e7188a-cgu.0.rcgu.o)
                0x0000000000123ea8                core::panicking::panic_const::panic_const_add_overflow
 .text.unlikely._ZN4core9panicking11panic_const24panic_const_sub_overflow17h60c8487e53d0d3c1E
                0x0000000000123ee8       0x40 ./gen/../rust_opt/target/armv7a-none-eabi/release/libitron.a(core-d049573bc16596f9.core.5587a85061e7188a-cgu.0.rcgu.o)
                0x0000000000123ee8                core::panicking::panic_const::panic_const_sub_overflow
 .text.unlikely._ZN4core9panicking11panic_const24panic_const_mul_overflow17h1a47d5361b03bf6eE
                0x0000000000123f28       0x40 ./gen/../rust_opt/target/armv7a-none-eabi/release/libitron.a(core-d049573bc16596f9.core.5587a85061e7188a-cgu.0.rcgu.o)
                0x0000000000123f28                core::panicking::panic_const::panic_const_mul_overflow
 .text.unlikely._ZN4core9panicking11panic_const24panic_const_div_overflow17heddbfb5e687a03bcE
                0x0000000000123f68       0x40 ./gen/../rust_opt/target/armv7a-none-eabi/release/libitron.a(core-d049573bc16596f9.core.5587a85061e7188a-cgu.0.rcgu.o)
                0x0000000000123f68                core::panicking::panic_const::panic_const_div_overflow
 .text.unlikely._ZN4core9panicking11panic_const24panic_const_rem_overflow17h3335d23af842c741E
                0x0000000000123fa8       0x40 ./gen/../rust_opt/target/armv7a-none-eabi/release/libitron.a(core-d049573bc16596f9.core.5587a85061e7188a-cgu.0.rcgu.o)
                0x0000000000123fa8                core::panicking::panic_const::panic_const_rem_overflow
 .text.unlikely._ZN4core9panicking11panic_const24panic_const_neg_overflow17hd6798e66c62ddff6E
                0x0000000000123fe8       0x40 ./gen/../rust_opt/target/armv7a-none-eabi/release/libitron.a(core-d049573bc16596f9.core.5587a85061e7188a-cgu.0.rcgu.o)
                0x0000000000123fe8                core::panicking::panic_const::panic_const_neg_overflow
 .text.unlikely._ZN4core9panicking11panic_const24panic_const_shr_overflow17hc596d1ddf3d71019E
                0x0000000000124028       0x40 ./gen/../rust_opt/target/armv7a-none-eabi/release/libitron.a(core-d049573bc16596f9.core.5587a85061e7188a-cgu.0.rcgu.o)
                0x0000000000124028                core::panicking::panic_const::panic_const_shr_overflow
 .text.unlikely._ZN4core9panicking11panic_const24panic_const_shl_overflow17hab60c2de69792ef8E
                0x0000000000124068       0x40 ./gen/../rust_opt/target/armv7a-none-eabi/release/libitron.a(core-d049573bc16596f9.core.5587a85061e7188a-cgu.0.rcgu.o)
                0x0000000000124068                core::panicking::panic_const::panic_const_shl_overflow
 .text.unlikely._ZN4core9panicking11panic_const23panic_const_div_by_zero17h841ebc415392a309E
                0x00000000001240a8       0x40 ./gen/../rust_opt/target/armv7a-none-eabi/release/libitron.a(core-d049573bc16596f9.core.5587a85061e7188a-cgu.0.rcgu.o)
                0x00000000001240a8                core::panicking::panic_const::panic_const_div_by_zero
 .text.unlikely._ZN4core9panicking11panic_const23panic_const_rem_by_zero17h84c76eadc69bd9a6E
                0x00000000001240e8       0x40 ./gen/../rust_opt/target/armv7a-none-eabi/release/libitron.a(core-d049573bc16596f9.core.5587a85061e7188a-cgu.0.rcgu.o)
                0x00000000001240e8                core::panicking::panic_const::panic_const_rem_by_zero
 .text.unlikely._ZN4core9panicking11panic_const29panic_const_coroutine_resumed17hc1fec1f49fb82aacE
                0x0000000000124128       0x40 ./gen/../rust_opt/target/armv7a-none-eabi/release/libitron.a(core-d049573bc16596f9.core.5587a85061e7188a-cgu.0.rcgu.o)
                0x0000000000124128                core::panicking::panic_const::panic_const_coroutine_resumed
 .text.unlikely._ZN4core9panicking11panic_const28panic_const_async_fn_resumed17h4c52fb4e1fc04b7eE
                0x0000000000124168       0x40 ./gen/../rust_opt/target/armv7a-none-eabi/release/libitron.a(core-d049573bc16596f9.core.5587a85061e7188a-cgu.0.rcgu.o)
                0x0000000000124168                core::panicking::panic_const::panic_const_async_fn_resumed
 .text.unlikely._ZN4core9panicking11panic_const32panic_const_async_gen_fn_resumed17hf6dc0ef665815d93E
                0x00000000001241a8       0x40 ./gen/../rust_opt/target/armv7a-none-eabi/release/libitron.a(core-d049573bc16596f9.core.5587a85061e7188a-cgu.0.rcgu.o)
                0x00000000001241a8                core::panicking::panic_const::panic_const_async_gen_fn_resumed
 .text.unlikely._ZN4core9panicking11panic_const23panic_const_gen_fn_none17h9943346b0c293476E
                0x00000000001241e8       0x40 ./gen/../rust_opt/target/armv7a-none-eabi/release/libitron.a(core-d049573bc16596f9.core.5587a85061e7188a-cgu.0.rcgu.o)
                0x00000000001241e8                core::panicking::panic_const::panic_const_gen_fn_none
 .text.unlikely._ZN4core9panicking11panic_const35panic_const_coroutine_resumed_panic17ha931fedc2d097cbcE
                0x0000000000124228       0x40 ./gen/../rust_opt/target/armv7a-none-eabi/release/libitron.a(core-d049573bc16596f9.core.5587a85061e7188a-cgu.0.rcgu.o)
                0x0000000000124228                core::panicking::panic_const::panic_const_coroutine_resumed_panic
 .text.unlikely._ZN4core9panicking11panic_const34panic_const_async_fn_resumed_panic17he3287dd12fe7b10fE
                0x0000000000124268       0x40 ./gen/../rust_opt/target/armv7a-none-eabi/release/libitron.a(core-d049573bc16596f9.core.5587a85061e7188a-cgu.0.rcgu.o)
                0x0000000000124268                core::panicking::panic_const::panic_const_async_fn_resumed_panic
 .text.unlikely._ZN4core9panicking11panic_const38panic_const_async_gen_fn_resumed_panic17hd2dc1333c03262feE
                0x00000000001242a8       0x40 ./gen/../rust_opt/target/armv7a-none-eabi/release/libitron.a(core-d049573bc16596f9.core.5587a85061e7188a-cgu.0.rcgu.o)
                0x00000000001242a8                core::panicking::panic_const::panic_const_async_gen_fn_resumed_panic
 .text.unlikely._ZN4core9panicking11panic_const29panic_const_gen_fn_none_panic17h5c1c229e3a40efecE
                0x00000000001242e8       0x40 ./gen/../rust_opt/target/armv7a-none-eabi/release/libitron.a(core-d049573bc16596f9.core.5587a85061e7188a-cgu.0.rcgu.o)
                0x00000000001242e8                core::panicking::panic_const::panic_const_gen_fn_none_panic
 .text.unlikely._ZN4core9panicking11panic_const34panic_const_coroutine_resumed_drop17h80f9fb05c90896faE
                0x0000000000124328       0x40 ./gen/../rust_opt/target/armv7a-none-eabi/release/libitron.a(core-d049573bc16596f9.core.5587a85061e7188a-cgu.0.rcgu.o)
                0x0000000000124328                core::panicking::panic_const::panic_const_coroutine_resumed_drop
 .text.unlikely._ZN4core9panicking11panic_const33panic_const_async_fn_resumed_drop17h372a153677563730E
                0x0000000000124368       0x40 ./gen/../rust_opt/target/armv7a-none-eabi/release/libitron.a(core-d049573bc16596f9.core.5587a85061e7188a-cgu.0.rcgu.o)
                0x0000000000124368                core::panicking::panic_const::panic_const_async_fn_resumed_drop
 .text.unlikely._ZN4core9panicking11panic_const37panic_const_async_gen_fn_resumed_drop17hf44454f4c0322d5eE
                0x00000000001243a8       0x40 ./gen/../rust_opt/target/armv7a-none-eabi/release/libitron.a(core-d049573bc16596f9.core.5587a85061e7188a-cgu.0.rcgu.o)
                0x00000000001243a8                core::panicking::panic_const::panic_const_async_gen_fn_resumed_drop
 .text.unlikely._ZN4core9panicking11panic_const28panic_const_gen_fn_none_drop17h79a2beef01222142E
                0x00000000001243e8       0x40 ./gen/../rust_opt/target/armv7a-none-eabi/release/libitron.a(core-d049573bc16596f9.core.5587a85061e7188a-cgu.0.rcgu.o)
                0x00000000001243e8                core::panicking::panic_const::panic_const_gen_fn_none_drop
 .text._ZN46_$LT$i8$u20$as$u20$core..pat..RangePattern$GT$7sub_one17h9c88d58a08cd9976E
                0x0000000000124428       0x50 ./gen/../rust_opt/target/armv7a-none-eabi/release/libitron.a(core-d049573bc16596f9.core.5587a85061e7188a-cgu.0.rcgu.o)
                0x0000000000124428                <i8 as core::pat::RangePattern>::sub_one
 .text._ZN47_$LT$i16$u20$as$u20$core..pat..RangePattern$GT$7sub_one17h0bea40a7c0a1898dE
                0x0000000000124478       0x50 ./gen/../rust_opt/target/armv7a-none-eabi/release/libitron.a(core-d049573bc16596f9.core.5587a85061e7188a-cgu.0.rcgu.o)
                0x0000000000124478                <i16 as core::pat::RangePattern>::sub_one
 .text._ZN47_$LT$i32$u20$as$u20$core..pat..RangePattern$GT$7sub_one17hee0294d19fcfed5eE
                0x00000000001244c8       0x4c ./gen/../rust_opt/target/armv7a-none-eabi/release/libitron.a(core-d049573bc16596f9.core.5587a85061e7188a-cgu.0.rcgu.o)
                0x00000000001244c8                <i32 as core::pat::RangePattern>::sub_one
                0x00000000001244c8                <isize as core::pat::RangePattern>::sub_one
 .text._ZN47_$LT$i64$u20$as$u20$core..pat..RangePattern$GT$7sub_one17h7a71a5a054a38f79E
                0x0000000000124514       0x58 ./gen/../rust_opt/target/armv7a-none-eabi/release/libitron.a(core-d049573bc16596f9.core.5587a85061e7188a-cgu.0.rcgu.o)
                0x0000000000124514                <i64 as core::pat::RangePattern>::sub_one
 .text._ZN48_$LT$i128$u20$as$u20$core..pat..RangePattern$GT$7sub_one17hacd854531e93c0c5E
                0x000000000012456c       0x74 ./gen/../rust_opt/target/armv7a-none-eabi/release/libitron.a(core-d049573bc16596f9.core.5587a85061e7188a-cgu.0.rcgu.o)
                0x000000000012456c                <i128 as core::pat::RangePattern>::sub_one
 .text._ZN46_$LT$u8$u20$as$u20$core..pat..RangePattern$GT$7sub_one17h15e864f0213c9b05E
                0x00000000001245e0       0x48 ./gen/../rust_opt/target/armv7a-none-eabi/release/libitron.a(core-d049573bc16596f9.core.5587a85061e7188a-cgu.0.rcgu.o)
                0x00000000001245e0                <u8 as core::pat::RangePattern>::sub_one
 .text._ZN47_$LT$u16$u20$as$u20$core..pat..RangePattern$GT$7sub_one17h4335f9c9d4df86f6E
                0x0000000000124628       0x4c ./gen/../rust_opt/target/armv7a-none-eabi/release/libitron.a(core-d049573bc16596f9.core.5587a85061e7188a-cgu.0.rcgu.o)
                0x0000000000124628                <u16 as core::pat::RangePattern>::sub_one
 .text._ZN47_$LT$u32$u20$as$u20$core..pat..RangePattern$GT$7sub_one17h3378d20c1f54e79cE
                0x0000000000124674       0x48 ./gen/../rust_opt/target/armv7a-none-eabi/release/libitron.a(core-d049573bc16596f9.core.5587a85061e7188a-cgu.0.rcgu.o)
                0x0000000000124674                <usize as core::pat::RangePattern>::sub_one
                0x0000000000124674                <u32 as core::pat::RangePattern>::sub_one
 .text._ZN47_$LT$u64$u20$as$u20$core..pat..RangePattern$GT$7sub_one17h6e6e0a2318d9e1f3E
                0x00000000001246bc       0x54 ./gen/../rust_opt/target/armv7a-none-eabi/release/libitron.a(core-d049573bc16596f9.core.5587a85061e7188a-cgu.0.rcgu.o)
                0x00000000001246bc                <u64 as core::pat::RangePattern>::sub_one
 .text._ZN48_$LT$u128$u20$as$u20$core..pat..RangePattern$GT$7sub_one17h49e0f9c674b47932E
                0x0000000000124710       0x74 ./gen/../rust_opt/target/armv7a-none-eabi/release/libitron.a(core-d049573bc16596f9.core.5587a85061e7188a-cgu.0.rcgu.o)
                0x0000000000124710                <u128 as core::pat::RangePattern>::sub_one
 .text._ZN65_$LT$core..sync..atomic..AtomicI8$u20$as$u20$core..fmt..Debug$GT$3fmt17h98530b86a99569a1E
                0x0000000000124784       0x14 ./gen/../rust_opt/target/armv7a-none-eabi/release/libitron.a(core-d049573bc16596f9.core.5587a85061e7188a-cgu.0.rcgu.o)
                0x0000000000124784                <core::sync::atomic::AtomicI8 as core::fmt::Debug>::fmt
 .text._ZN65_$LT$core..sync..atomic..AtomicU8$u20$as$u20$core..fmt..Debug$GT$3fmt17h78ea702c9c6bc9f6E
                0x0000000000124798       0x14 ./gen/../rust_opt/target/armv7a-none-eabi/release/libitron.a(core-d049573bc16596f9.core.5587a85061e7188a-cgu.0.rcgu.o)
                0x0000000000124798                <core::sync::atomic::AtomicU8 as core::fmt::Debug>::fmt
 .text._ZN66_$LT$core..sync..atomic..AtomicI16$u20$as$u20$core..fmt..Debug$GT$3fmt17h5390cba2b0e4e3dcE
                0x00000000001247ac       0xc8 ./gen/../rust_opt/target/armv7a-none-eabi/release/libitron.a(core-d049573bc16596f9.core.5587a85061e7188a-cgu.0.rcgu.o)
                0x00000000001247ac                <core::sync::atomic::AtomicI16 as core::fmt::Debug>::fmt
 .text._ZN66_$LT$core..sync..atomic..AtomicU16$u20$as$u20$core..fmt..Debug$GT$3fmt17h2705d1d8027c0f42E
                0x0000000000124874       0xc8 ./gen/../rust_opt/target/armv7a-none-eabi/release/libitron.a(core-d049573bc16596f9.core.5587a85061e7188a-cgu.0.rcgu.o)
                0x0000000000124874                <core::sync::atomic::AtomicU16 as core::fmt::Debug>::fmt
 .text._ZN66_$LT$core..sync..atomic..AtomicI32$u20$as$u20$core..fmt..Debug$GT$3fmt17h00f7ed8238e72b79E
                0x000000000012493c       0xc0 ./gen/../rust_opt/target/armv7a-none-eabi/release/libitron.a(core-d049573bc16596f9.core.5587a85061e7188a-cgu.0.rcgu.o)
                0x000000000012493c                <core::sync::atomic::AtomicIsize as core::fmt::Debug>::fmt
                0x000000000012493c                <core::sync::atomic::AtomicI32 as core::fmt::Debug>::fmt
 .text._ZN66_$LT$core..sync..atomic..AtomicU32$u20$as$u20$core..fmt..Debug$GT$3fmt17hf9fe3a6abac6a243E
                0x00000000001249fc       0xc0 ./gen/../rust_opt/target/armv7a-none-eabi/release/libitron.a(core-d049573bc16596f9.core.5587a85061e7188a-cgu.0.rcgu.o)
                0x00000000001249fc                <core::sync::atomic::AtomicUsize as core::fmt::Debug>::fmt
                0x00000000001249fc                <core::sync::atomic::AtomicU32 as core::fmt::Debug>::fmt
 .text._ZN66_$LT$core..sync..atomic..AtomicI64$u20$as$u20$core..fmt..Debug$GT$3fmt17h553003e062ab2aeaE
                0x0000000000124abc       0xec ./gen/../rust_opt/target/armv7a-none-eabi/release/libitron.a(core-d049573bc16596f9.core.5587a85061e7188a-cgu.0.rcgu.o)
                0x0000000000124abc                <core::sync::atomic::AtomicI64 as core::fmt::Debug>::fmt
 .text._ZN66_$LT$core..sync..atomic..AtomicU64$u20$as$u20$core..fmt..Debug$GT$3fmt17h4837e1a6089e1848E
                0x0000000000124ba8       0xec ./gen/../rust_opt/target/armv7a-none-eabi/release/libitron.a(core-d049573bc16596f9.core.5587a85061e7188a-cgu.0.rcgu.o)
                0x0000000000124ba8                <core::sync::atomic::AtomicU64 as core::fmt::Debug>::fmt
 .text._ZN55_$LT$f32$u20$as$u20$core..fmt..float..GeneralFormat$GT$44already_rounded_value_should_use_exponential17hb22121c88fcaa0beE
                0x0000000000124c94       0x68 ./gen/../rust_opt/target/armv7a-none-eabi/release/libitron.a(core-d049573bc16596f9.core.5587a85061e7188a-cgu.0.rcgu.o)
                0x0000000000124c94                <f32 as core::fmt::float::GeneralFormat>::already_rounded_value_should_use_exponential
 .text._ZN55_$LT$f64$u20$as$u20$core..fmt..float..GeneralFormat$GT$44already_rounded_value_should_use_exponential17h8b724b9904cc9c26E
                0x0000000000124cfc       0x88 ./gen/../rust_opt/target/armv7a-none-eabi/release/libitron.a(core-d049573bc16596f9.core.5587a85061e7188a-cgu.0.rcgu.o)
                0x0000000000124cfc                <f64 as core::fmt::float::GeneralFormat>::already_rounded_value_should_use_exponential
 .text._ZN4core3fmt5float50_$LT$impl$u20$core..fmt..Debug$u20$for$u20$f32$GT$3fmt17h36f6f70bc5e41684E
                0x0000000000124d84       0xb8 ./gen/../rust_opt/target/armv7a-none-eabi/release/libitron.a(core-d049573bc16596f9.core.5587a85061e7188a-cgu.0.rcgu.o)
                0x0000000000124d84                core::fmt::float::<impl core::fmt::Debug for f32>::fmt
 .text._ZN4core3fmt5float52_$LT$impl$u20$core..fmt..Display$u20$for$u20$f32$GT$3fmt17h80810e25a018a288E
                0x0000000000124e3c       0x44 ./gen/../rust_opt/target/armv7a-none-eabi/release/libitron.a(core-d049573bc16596f9.core.5587a85061e7188a-cgu.0.rcgu.o)
                0x0000000000124e3c                core::fmt::float::<impl core::fmt::Display for f32>::fmt
 .text._ZN4core3fmt5float53_$LT$impl$u20$core..fmt..LowerExp$u20$for$u20$f32$GT$3fmt17h820dff1b1d643fd6E
                0x0000000000124e80       0x54 ./gen/../rust_opt/target/armv7a-none-eabi/release/libitron.a(core-d049573bc16596f9.core.5587a85061e7188a-cgu.0.rcgu.o)
                0x0000000000124e80                core::fmt::float::<impl core::fmt::LowerExp for f32>::fmt
 .text._ZN4core3fmt5float53_$LT$impl$u20$core..fmt..UpperExp$u20$for$u20$f32$GT$3fmt17hdf25f1d7057efea1E
                0x0000000000124ed4       0x54 ./gen/../rust_opt/target/armv7a-none-eabi/release/libitron.a(core-d049573bc16596f9.core.5587a85061e7188a-cgu.0.rcgu.o)
                0x0000000000124ed4                core::fmt::float::<impl core::fmt::UpperExp for f32>::fmt
 .text._ZN4core3fmt5float50_$LT$impl$u20$core..fmt..Debug$u20$for$u20$f64$GT$3fmt17h12b316315661d7a7E
                0x0000000000124f28      0x10c ./gen/../rust_opt/target/armv7a-none-eabi/release/libitron.a(core-d049573bc16596f9.core.5587a85061e7188a-cgu.0.rcgu.o)
                0x0000000000124f28                core::fmt::float::<impl core::fmt::Debug for f64>::fmt
 .text._ZN4core3fmt5float52_$LT$impl$u20$core..fmt..Display$u20$for$u20$f64$GT$3fmt17h1658c390055e8683E
                0x0000000000125034       0x64 ./gen/../rust_opt/target/armv7a-none-eabi/release/libitron.a(core-d049573bc16596f9.core.5587a85061e7188a-cgu.0.rcgu.o)
                0x0000000000125034                core::fmt::float::<impl core::fmt::Display for f64>::fmt
 .text._ZN4core3fmt5float53_$LT$impl$u20$core..fmt..LowerExp$u20$for$u20$f64$GT$3fmt17hab161d28c266dbf1E
                0x0000000000125098       0x70 ./gen/../rust_opt/target/armv7a-none-eabi/release/libitron.a(core-d049573bc16596f9.core.5587a85061e7188a-cgu.0.rcgu.o)
                0x0000000000125098                core::fmt::float::<impl core::fmt::LowerExp for f64>::fmt
 .text._ZN4core3fmt5float53_$LT$impl$u20$core..fmt..UpperExp$u20$for$u20$f64$GT$3fmt17hfdc423d0ad75608dE
                0x0000000000125108       0x70 ./gen/../rust_opt/target/armv7a-none-eabi/release/libitron.a(core-d049573bc16596f9.core.5587a85061e7188a-cgu.0.rcgu.o)
                0x0000000000125108                core::fmt::float::<impl core::fmt::UpperExp for f64>::fmt
 .text._ZN4core3fmt5float50_$LT$impl$u20$core..fmt..Debug$u20$for$u20$f16$GT$3fmt17h0275f4e20d5ac985E
                0x0000000000125178       0xc0 ./gen/../rust_opt/target/armv7a-none-eabi/release/libitron.a(core-d049573bc16596f9.core.5587a85061e7188a-cgu.0.rcgu.o)
                0x0000000000125178                core::fmt::float::<impl core::fmt::Debug for f16>::fmt
 .text._ZN4core3fmt5float52_$LT$impl$u20$core..fmt..Display$u20$for$u20$f16$GT$3fmt17h44d06f4ee009c844E
                0x0000000000125238       0x44 ./gen/../rust_opt/target/armv7a-none-eabi/release/libitron.a(core-d049573bc16596f9.core.5587a85061e7188a-cgu.0.rcgu.o)
                0x0000000000125238                core::fmt::float::<impl core::fmt::Display for f16>::fmt
 .text._ZN4core3fmt5float53_$LT$impl$u20$core..fmt..LowerExp$u20$for$u20$f16$GT$3fmt17h5cc0551d1f587a8bE
                0x000000000012527c       0x54 ./gen/../rust_opt/target/armv7a-none-eabi/release/libitron.a(core-d049573bc16596f9.core.5587a85061e7188a-cgu.0.rcgu.o)
                0x000000000012527c                core::fmt::float::<impl core::fmt::LowerExp for f16>::fmt
 .text._ZN4core3fmt5float53_$LT$impl$u20$core..fmt..UpperExp$u20$for$u20$f16$GT$3fmt17h2a0ba872876a6cb1E
                0x00000000001252d0       0x54 ./gen/../rust_opt/target/armv7a-none-eabi/release/libitron.a(core-d049573bc16596f9.core.5587a85061e7188a-cgu.0.rcgu.o)
                0x00000000001252d0                core::fmt::float::<impl core::fmt::UpperExp for f16>::fmt
 .text._ZN71_$LT$core..fmt..num..Binary$u20$as$u20$core..fmt..num..GenericRadix$GT$5digit17he4b6c679024b6753E
                0x0000000000125324       0x7c ./gen/../rust_opt/target/armv7a-none-eabi/release/libitron.a(core-d049573bc16596f9.core.5587a85061e7188a-cgu.0.rcgu.o)
                0x0000000000125324                <core::fmt::num::Binary as core::fmt::num::GenericRadix>::digit
 .text._ZN70_$LT$core..fmt..num..Octal$u20$as$u20$core..fmt..num..GenericRadix$GT$5digit17h6d524b5314e7839aE
                0x00000000001253a0       0x7c ./gen/../rust_opt/target/armv7a-none-eabi/release/libitron.a(core-d049573bc16596f9.core.5587a85061e7188a-cgu.0.rcgu.o)
                0x00000000001253a0                <core::fmt::num::Octal as core::fmt::num::GenericRadix>::digit
 .text._ZN73_$LT$core..fmt..num..LowerHex$u20$as$u20$core..fmt..num..GenericRadix$GT$5digit17h67093c0abfd72a34E
                0x000000000012541c       0x88 ./gen/../rust_opt/target/armv7a-none-eabi/release/libitron.a(core-d049573bc16596f9.core.5587a85061e7188a-cgu.0.rcgu.o)
                0x000000000012541c                <core::fmt::num::LowerHex as core::fmt::num::GenericRadix>::digit
 .text._ZN73_$LT$core..fmt..num..UpperHex$u20$as$u20$core..fmt..num..GenericRadix$GT$5digit17h2ebf7f3cf75c8942E
                0x00000000001254a4       0x88 ./gen/../rust_opt/target/armv7a-none-eabi/release/libitron.a(core-d049573bc16596f9.core.5587a85061e7188a-cgu.0.rcgu.o)
                0x00000000001254a4                <core::fmt::num::UpperHex as core::fmt::num::GenericRadix>::digit
 .text._ZN4core3fmt3num50_$LT$impl$u20$core..fmt..Binary$u20$for$u20$i8$GT$3fmt17hfb8e99514944e386E
                0x000000000012552c       0x68 ./gen/../rust_opt/target/armv7a-none-eabi/release/libitron.a(core-d049573bc16596f9.core.5587a85061e7188a-cgu.0.rcgu.o)
                0x000000000012552c                core::fmt::num::<impl core::fmt::Binary for u8>::fmt
                0x000000000012552c                core::fmt::num::<impl core::fmt::Binary for i8>::fmt
 .text._ZN4core3fmt3num49_$LT$impl$u20$core..fmt..Octal$u20$for$u20$i8$GT$3fmt17h16740b96b647866aE
                0x0000000000125594       0x68 ./gen/../rust_opt/target/armv7a-none-eabi/release/libitron.a(core-d049573bc16596f9.core.5587a85061e7188a-cgu.0.rcgu.o)
                0x0000000000125594                core::fmt::num::<impl core::fmt::Octal for i8>::fmt
                0x0000000000125594                core::fmt::num::<impl core::fmt::Octal for u8>::fmt
 .text._ZN4core3fmt3num52_$LT$impl$u20$core..fmt..LowerHex$u20$for$u20$i8$GT$3fmt17ha38e82f4b36477dfE
                0x00000000001255fc       0x6c ./gen/../rust_opt/target/armv7a-none-eabi/release/libitron.a(core-d049573bc16596f9.core.5587a85061e7188a-cgu.0.rcgu.o)
                0x00000000001255fc                core::fmt::num::<impl core::fmt::LowerHex for i8>::fmt
                0x00000000001255fc                core::fmt::num::<impl core::fmt::LowerHex for u8>::fmt
 .text._ZN4core3fmt3num52_$LT$impl$u20$core..fmt..UpperHex$u20$for$u20$i8$GT$3fmt17hdbc78e6d81b9fc73E
                0x0000000000125668       0x6c ./gen/../rust_opt/target/armv7a-none-eabi/release/libitron.a(core-d049573bc16596f9.core.5587a85061e7188a-cgu.0.rcgu.o)
                0x0000000000125668                core::fmt::num::<impl core::fmt::UpperHex for i8>::fmt
                0x0000000000125668                core::fmt::num::<impl core::fmt::UpperHex for u8>::fmt
 .text._ZN4core3fmt3num51_$LT$impl$u20$core..fmt..Binary$u20$for$u20$i16$GT$3fmt17hd9dba8c56e1924baE
                0x00000000001256d4       0x68 ./gen/../rust_opt/target/armv7a-none-eabi/release/libitron.a(core-d049573bc16596f9.core.5587a85061e7188a-cgu.0.rcgu.o)
                0x00000000001256d4                core::fmt::num::<impl core::fmt::Binary for i16>::fmt
                0x00000000001256d4                core::fmt::num::<impl core::fmt::Binary for u16>::fmt
 .text._ZN4core3fmt3num50_$LT$impl$u20$core..fmt..Octal$u20$for$u20$i16$GT$3fmt17h673945bd6fb3acfeE
                0x000000000012573c       0x68 ./gen/../rust_opt/target/armv7a-none-eabi/release/libitron.a(core-d049573bc16596f9.core.5587a85061e7188a-cgu.0.rcgu.o)
                0x000000000012573c                core::fmt::num::<impl core::fmt::Octal for i16>::fmt
                0x000000000012573c                core::fmt::num::<impl core::fmt::Octal for u16>::fmt
 .text._ZN4core3fmt3num53_$LT$impl$u20$core..fmt..LowerHex$u20$for$u20$i16$GT$3fmt17hd32e4fcbce79670aE
                0x00000000001257a4       0x70 ./gen/../rust_opt/target/armv7a-none-eabi/release/libitron.a(core-d049573bc16596f9.core.5587a85061e7188a-cgu.0.rcgu.o)
                0x00000000001257a4                core::fmt::num::<impl core::fmt::LowerHex for i16>::fmt
                0x00000000001257a4                core::fmt::num::<impl core::fmt::LowerHex for u16>::fmt
 .text._ZN4core3fmt3num53_$LT$impl$u20$core..fmt..UpperHex$u20$for$u20$i16$GT$3fmt17hc507e3445ac18ebeE
                0x0000000000125814       0x70 ./gen/../rust_opt/target/armv7a-none-eabi/release/libitron.a(core-d049573bc16596f9.core.5587a85061e7188a-cgu.0.rcgu.o)
                0x0000000000125814                core::fmt::num::<impl core::fmt::UpperHex for i16>::fmt
                0x0000000000125814                core::fmt::num::<impl core::fmt::UpperHex for u16>::fmt
 .text._ZN4core3fmt3num51_$LT$impl$u20$core..fmt..Binary$u20$for$u20$i32$GT$3fmt17hd6aa21fb91002751E
                0x0000000000125884       0x68 ./gen/../rust_opt/target/armv7a-none-eabi/release/libitron.a(core-d049573bc16596f9.core.5587a85061e7188a-cgu.0.rcgu.o)
                0x0000000000125884                core::fmt::num::<impl core::fmt::Binary for isize>::fmt
                0x0000000000125884                core::fmt::num::<impl core::fmt::Binary for i32>::fmt
                0x0000000000125884                core::fmt::num::<impl core::fmt::Binary for usize>::fmt
                0x0000000000125884                core::fmt::num::<impl core::fmt::Binary for u32>::fmt
 .text._ZN4core3fmt3num50_$LT$impl$u20$core..fmt..Octal$u20$for$u20$i32$GT$3fmt17hdfdd079f8dc60dc7E
                0x00000000001258ec       0x68 ./gen/../rust_opt/target/armv7a-none-eabi/release/libitron.a(core-d049573bc16596f9.core.5587a85061e7188a-cgu.0.rcgu.o)
                0x00000000001258ec                core::fmt::num::<impl core::fmt::Octal for usize>::fmt
                0x00000000001258ec                core::fmt::num::<impl core::fmt::Octal for isize>::fmt
                0x00000000001258ec                core::fmt::num::<impl core::fmt::Octal for u32>::fmt
                0x00000000001258ec                core::fmt::num::<impl core::fmt::Octal for i32>::fmt
 .text._ZN4core3fmt3num53_$LT$impl$u20$core..fmt..LowerHex$u20$for$u20$i32$GT$3fmt17h1bfe37b07cf28800E
                0x0000000000125954       0x6c ./gen/../rust_opt/target/armv7a-none-eabi/release/libitron.a(core-d049573bc16596f9.core.5587a85061e7188a-cgu.0.rcgu.o)
                0x0000000000125954                core::fmt::num::<impl core::fmt::LowerHex for usize>::fmt
                0x0000000000125954                core::fmt::num::<impl core::fmt::LowerHex for isize>::fmt
                0x0000000000125954                core::fmt::num::<impl core::fmt::LowerHex for u32>::fmt
                0x0000000000125954                core::fmt::num::<impl core::fmt::LowerHex for i32>::fmt
 .text._ZN4core3fmt3num53_$LT$impl$u20$core..fmt..UpperHex$u20$for$u20$i32$GT$3fmt17hf4441f29103186f0E
                0x00000000001259c0       0x6c ./gen/../rust_opt/target/armv7a-none-eabi/release/libitron.a(core-d049573bc16596f9.core.5587a85061e7188a-cgu.0.rcgu.o)
                0x00000000001259c0                core::fmt::num::<impl core::fmt::UpperHex for u32>::fmt
                0x00000000001259c0                core::fmt::num::<impl core::fmt::UpperHex for isize>::fmt
                0x00000000001259c0                core::fmt::num::<impl core::fmt::UpperHex for usize>::fmt
                0x00000000001259c0                core::fmt::num::<impl core::fmt::UpperHex for i32>::fmt
 .text._ZN4core3fmt3num51_$LT$impl$u20$core..fmt..Binary$u20$for$u20$i64$GT$3fmt17h2344af75f6c15b7fE
                0x0000000000125a2c       0x70 ./gen/../rust_opt/target/armv7a-none-eabi/release/libitron.a(core-d049573bc16596f9.core.5587a85061e7188a-cgu.0.rcgu.o)
                0x0000000000125a2c                core::fmt::num::<impl core::fmt::Binary for i64>::fmt
                0x0000000000125a2c                core::fmt::num::<impl core::fmt::Binary for u64>::fmt
 .text._ZN4core3fmt3num50_$LT$impl$u20$core..fmt..Octal$u20$for$u20$i64$GT$3fmt17hc6f5294ea5289e43E
                0x0000000000125a9c       0x70 ./gen/../rust_opt/target/armv7a-none-eabi/release/libitron.a(core-d049573bc16596f9.core.5587a85061e7188a-cgu.0.rcgu.o)
                0x0000000000125a9c                core::fmt::num::<impl core::fmt::Octal for u64>::fmt
                0x0000000000125a9c                core::fmt::num::<impl core::fmt::Octal for i64>::fmt
 .text._ZN4core3fmt3num53_$LT$impl$u20$core..fmt..LowerHex$u20$for$u20$i64$GT$3fmt17hac7e501d59390ecfE
                0x0000000000125b0c       0x78 ./gen/../rust_opt/target/armv7a-none-eabi/release/libitron.a(core-d049573bc16596f9.core.5587a85061e7188a-cgu.0.rcgu.o)
                0x0000000000125b0c                core::fmt::num::<impl core::fmt::LowerHex for u64>::fmt
                0x0000000000125b0c                core::fmt::num::<impl core::fmt::LowerHex for i64>::fmt
 .text._ZN4core3fmt3num53_$LT$impl$u20$core..fmt..UpperHex$u20$for$u20$i64$GT$3fmt17h51257ca6c0f8239cE
                0x0000000000125b84       0x78 ./gen/../rust_opt/target/armv7a-none-eabi/release/libitron.a(core-d049573bc16596f9.core.5587a85061e7188a-cgu.0.rcgu.o)
                0x0000000000125b84                core::fmt::num::<impl core::fmt::UpperHex for u64>::fmt
                0x0000000000125b84                core::fmt::num::<impl core::fmt::UpperHex for i64>::fmt
 .text._ZN4core3fmt3num52_$LT$impl$u20$core..fmt..Binary$u20$for$u20$i128$GT$3fmt17h7be091d3317e0d6cE
                0x0000000000125bfc       0xa4 ./gen/../rust_opt/target/armv7a-none-eabi/release/libitron.a(core-d049573bc16596f9.core.5587a85061e7188a-cgu.0.rcgu.o)
                0x0000000000125bfc                core::fmt::num::<impl core::fmt::Binary for i128>::fmt
                0x0000000000125bfc                core::fmt::num::<impl core::fmt::Binary for u128>::fmt
 .text._ZN4core3fmt3num51_$LT$impl$u20$core..fmt..Octal$u20$for$u20$i128$GT$3fmt17h5fb2ef3ead5b0ea5E
                0x0000000000125ca0       0xb0 ./gen/../rust_opt/target/armv7a-none-eabi/release/libitron.a(core-d049573bc16596f9.core.5587a85061e7188a-cgu.0.rcgu.o)
                0x0000000000125ca0                core::fmt::num::<impl core::fmt::Octal for u128>::fmt
                0x0000000000125ca0                core::fmt::num::<impl core::fmt::Octal for i128>::fmt
 .text._ZN4core3fmt3num54_$LT$impl$u20$core..fmt..LowerHex$u20$for$u20$i128$GT$3fmt17h4f123a38d1270953E
                0x0000000000125d50       0xb8 ./gen/../rust_opt/target/armv7a-none-eabi/release/libitron.a(core-d049573bc16596f9.core.5587a85061e7188a-cgu.0.rcgu.o)
                0x0000000000125d50                core::fmt::num::<impl core::fmt::LowerHex for i128>::fmt
                0x0000000000125d50                core::fmt::num::<impl core::fmt::LowerHex for u128>::fmt
 .text._ZN4core3fmt3num54_$LT$impl$u20$core..fmt..UpperHex$u20$for$u20$i128$GT$3fmt17ha49e3851795cfdefE
                0x0000000000125e08       0xb8 ./gen/../rust_opt/target/armv7a-none-eabi/release/libitron.a(core-d049573bc16596f9.core.5587a85061e7188a-cgu.0.rcgu.o)
                0x0000000000125e08                core::fmt::num::<impl core::fmt::UpperHex for u128>::fmt
                0x0000000000125e08                core::fmt::num::<impl core::fmt::UpperHex for i128>::fmt
 .text._ZN4core3fmt3num49_$LT$impl$u20$core..fmt..Debug$u20$for$u20$i8$GT$3fmt17h34acdd6c4c2b4cccE
                0x0000000000125ec0      0x16c ./gen/../rust_opt/target/armv7a-none-eabi/release/libitron.a(core-d049573bc16596f9.core.5587a85061e7188a-cgu.0.rcgu.o)
 .text._ZN4core3fmt3num49_$LT$impl$u20$core..fmt..Debug$u20$for$u20$u8$GT$3fmt17h8d8c411144315c72E
                0x000000000012602c      0x154 ./gen/../rust_opt/target/armv7a-none-eabi/release/libitron.a(core-d049573bc16596f9.core.5587a85061e7188a-cgu.0.rcgu.o)
 .text._ZN4core3fmt3num50_$LT$impl$u20$core..fmt..Debug$u20$for$u20$u32$GT$3fmt17h71bef540c929d311E
                0x0000000000126180       0xbc ./gen/../rust_opt/target/armv7a-none-eabi/release/libitron.a(core-d049573bc16596f9.core.5587a85061e7188a-cgu.0.rcgu.o)
 .text._ZN4core3fmt3num3imp51_$LT$impl$u20$core..fmt..Display$u20$for$u20$u8$GT$3fmt17hbcfcd188bf01c23fE
                0x000000000012623c       0xbc ./gen/../rust_opt/target/armv7a-none-eabi/release/libitron.a(core-d049573bc16596f9.core.5587a85061e7188a-cgu.0.rcgu.o)
                0x000000000012623c                core::fmt::num::imp::<impl core::fmt::Display for u8>::fmt
 .text._ZN4core3fmt3num3imp51_$LT$impl$u20$core..fmt..Display$u20$for$u20$i8$GT$3fmt17hff22c034098846a1E
                0x00000000001262f8       0xcc ./gen/../rust_opt/target/armv7a-none-eabi/release/libitron.a(core-d049573bc16596f9.core.5587a85061e7188a-cgu.0.rcgu.o)
                0x00000000001262f8                core::fmt::num::imp::<impl core::fmt::Display for i8>::fmt
 .text._ZN4core3fmt3num3imp20_$LT$impl$u20$u8$GT$4_fmt17hb5a7663e8a0544e3E
                0x00000000001263c4       0x94 ./gen/../rust_opt/target/armv7a-none-eabi/release/libitron.a(core-d049573bc16596f9.core.5587a85061e7188a-cgu.0.rcgu.o)
                0x00000000001263c4                core::fmt::num::imp::<impl u8>::_fmt
 .text._ZN4core3fmt3num3imp52_$LT$impl$u20$core..fmt..Display$u20$for$u20$u16$GT$3fmt17hb807d5b07197dd3cE
                0x0000000000126458      0x10c ./gen/../rust_opt/target/armv7a-none-eabi/release/libitron.a(core-d049573bc16596f9.core.5587a85061e7188a-cgu.0.rcgu.o)
                0x0000000000126458                core::fmt::num::imp::<impl core::fmt::Display for u16>::fmt
 .text._ZN4core3fmt3num3imp52_$LT$impl$u20$core..fmt..Display$u20$for$u20$i16$GT$3fmt17hd6d0d2db5935d675E
                0x0000000000126564      0x138 ./gen/../rust_opt/target/armv7a-none-eabi/release/libitron.a(core-d049573bc16596f9.core.5587a85061e7188a-cgu.0.rcgu.o)
                0x0000000000126564                core::fmt::num::imp::<impl core::fmt::Display for i16>::fmt
 .text._ZN4core3fmt3num3imp21_$LT$impl$u20$u16$GT$4_fmt17h2eab8ac218d2ab0cE
                0x000000000012669c      0x108 ./gen/../rust_opt/target/armv7a-none-eabi/release/libitron.a(core-d049573bc16596f9.core.5587a85061e7188a-cgu.0.rcgu.o)
                0x000000000012669c                core::fmt::num::imp::<impl u16>::_fmt
 .text._ZN4core3fmt3num3imp52_$LT$impl$u20$core..fmt..Display$u20$for$u20$u32$GT$3fmt17hfed0ce75b320fdfeE
                0x00000000001267a4      0x174 ./gen/../rust_opt/target/armv7a-none-eabi/release/libitron.a(core-d049573bc16596f9.core.5587a85061e7188a-cgu.0.rcgu.o)
                0x00000000001267a4                core::fmt::num::imp::<impl core::fmt::Display for u32>::fmt
                0x00000000001267a4                core::fmt::num::imp::<impl core::fmt::Display for usize>::fmt
 .text._ZN4core3fmt3num3imp52_$LT$impl$u20$core..fmt..Display$u20$for$u20$i32$GT$3fmt17h6694708af44e6410E
                0x0000000000126918      0x188 ./gen/../rust_opt/target/armv7a-none-eabi/release/libitron.a(core-d049573bc16596f9.core.5587a85061e7188a-cgu.0.rcgu.o)
                0x0000000000126918                core::fmt::num::imp::<impl core::fmt::Display for i32>::fmt
                0x0000000000126918                core::fmt::num::imp::<impl core::fmt::Display for isize>::fmt
 .text._ZN4core3fmt3num3imp21_$LT$impl$u20$u32$GT$4_fmt17he3f4180fb8f739b6E
                0x0000000000126aa0      0x15c ./gen/../rust_opt/target/armv7a-none-eabi/release/libitron.a(core-d049573bc16596f9.core.5587a85061e7188a-cgu.0.rcgu.o)
                0x0000000000126aa0                core::fmt::num::imp::<impl u32>::_fmt
                0x0000000000126aa0                core::fmt::num::imp::<impl usize>::_fmt
 .text._ZN4core3fmt3num3imp52_$LT$impl$u20$core..fmt..Display$u20$for$u20$u64$GT$3fmt17hca688f18ea3812f0E
                0x0000000000126bfc      0x198 ./gen/../rust_opt/target/armv7a-none-eabi/release/libitron.a(core-d049573bc16596f9.core.5587a85061e7188a-cgu.0.rcgu.o)
                0x0000000000126bfc                core::fmt::num::imp::<impl core::fmt::Display for u64>::fmt
 .text._ZN4core3fmt3num3imp52_$LT$impl$u20$core..fmt..Display$u20$for$u20$i64$GT$3fmt17h746d5f02f990caf3E
                0x0000000000126d94      0x1b4 ./gen/../rust_opt/target/armv7a-none-eabi/release/libitron.a(core-d049573bc16596f9.core.5587a85061e7188a-cgu.0.rcgu.o)
                0x0000000000126d94                core::fmt::num::imp::<impl core::fmt::Display for i64>::fmt
 .text._ZN4core3fmt3num3imp21_$LT$impl$u20$u64$GT$4_fmt17h5cad236623dacc7fE
                0x0000000000126f48      0x16c ./gen/../rust_opt/target/armv7a-none-eabi/release/libitron.a(core-d049573bc16596f9.core.5587a85061e7188a-cgu.0.rcgu.o)
                0x0000000000126f48                core::fmt::num::imp::<impl u64>::_fmt
 .text._ZN4core3fmt3num3imp7exp_u3217he01470f61c0319e7E
                0x00000000001270b4      0x428 ./gen/../rust_opt/target/armv7a-none-eabi/release/libitron.a(core-d049573bc16596f9.core.5587a85061e7188a-cgu.0.rcgu.o)
 .text._ZN4core3fmt3num3imp52_$LT$impl$u20$core..fmt..LowerExp$u20$for$u20$i8$GT$3fmt17hc0edf995b11d88a4E
                0x00000000001274dc       0x30 ./gen/../rust_opt/target/armv7a-none-eabi/release/libitron.a(core-d049573bc16596f9.core.5587a85061e7188a-cgu.0.rcgu.o)
                0x00000000001274dc                core::fmt::num::imp::<impl core::fmt::LowerExp for i8>::fmt
 .text._ZN4core3fmt3num3imp52_$LT$impl$u20$core..fmt..LowerExp$u20$for$u20$u8$GT$3fmt17h9f71b4e1975c97b3E
                0x000000000012750c       0x20 ./gen/../rust_opt/target/armv7a-none-eabi/release/libitron.a(core-d049573bc16596f9.core.5587a85061e7188a-cgu.0.rcgu.o)
                0x000000000012750c                core::fmt::num::imp::<impl core::fmt::LowerExp for u8>::fmt
 .text._ZN4core3fmt3num3imp53_$LT$impl$u20$core..fmt..LowerExp$u20$for$u20$i16$GT$3fmt17h2ec4792f26758582E
                0x000000000012752c       0x30 ./gen/../rust_opt/target/armv7a-none-eabi/release/libitron.a(core-d049573bc16596f9.core.5587a85061e7188a-cgu.0.rcgu.o)
                0x000000000012752c                core::fmt::num::imp::<impl core::fmt::LowerExp for i16>::fmt
 .text._ZN4core3fmt3num3imp53_$LT$impl$u20$core..fmt..LowerExp$u20$for$u20$u16$GT$3fmt17he1630ced7897f954E
                0x000000000012755c       0x20 ./gen/../rust_opt/target/armv7a-none-eabi/release/libitron.a(core-d049573bc16596f9.core.5587a85061e7188a-cgu.0.rcgu.o)
                0x000000000012755c                core::fmt::num::imp::<impl core::fmt::LowerExp for u16>::fmt
 .text._ZN4core3fmt3num3imp53_$LT$impl$u20$core..fmt..LowerExp$u20$for$u20$i32$GT$3fmt17hc830ff5284d762bdE
                0x000000000012757c       0x30 ./gen/../rust_opt/target/armv7a-none-eabi/release/libitron.a(core-d049573bc16596f9.core.5587a85061e7188a-cgu.0.rcgu.o)
                0x000000000012757c                core::fmt::num::imp::<impl core::fmt::LowerExp for isize>::fmt
                0x000000000012757c                core::fmt::num::imp::<impl core::fmt::LowerExp for i32>::fmt
 .text._ZN4core3fmt3num3imp53_$LT$impl$u20$core..fmt..LowerExp$u20$for$u20$u32$GT$3fmt17he84cd695e6f75fd8E
                0x00000000001275ac       0x20 ./gen/../rust_opt/target/armv7a-none-eabi/release/libitron.a(core-d049573bc16596f9.core.5587a85061e7188a-cgu.0.rcgu.o)
                0x00000000001275ac                core::fmt::num::imp::<impl core::fmt::LowerExp for usize>::fmt
                0x00000000001275ac                core::fmt::num::imp::<impl core::fmt::LowerExp for u32>::fmt
 .text._ZN4core3fmt3num3imp52_$LT$impl$u20$core..fmt..UpperExp$u20$for$u20$i8$GT$3fmt17h3cc98f3a87f4ea66E
                0x00000000001275cc       0x30 ./gen/../rust_opt/target/armv7a-none-eabi/release/libitron.a(core-d049573bc16596f9.core.5587a85061e7188a-cgu.0.rcgu.o)
                0x00000000001275cc                core::fmt::num::imp::<impl core::fmt::UpperExp for i8>::fmt
 .text._ZN4core3fmt3num3imp52_$LT$impl$u20$core..fmt..UpperExp$u20$for$u20$u8$GT$3fmt17h04e779386a1b925eE
                0x00000000001275fc       0x20 ./gen/../rust_opt/target/armv7a-none-eabi/release/libitron.a(core-d049573bc16596f9.core.5587a85061e7188a-cgu.0.rcgu.o)
                0x00000000001275fc                core::fmt::num::imp::<impl core::fmt::UpperExp for u8>::fmt
 .text._ZN4core3fmt3num3imp53_$LT$impl$u20$core..fmt..UpperExp$u20$for$u20$i16$GT$3fmt17ha0dd815a12b4d383E
                0x000000000012761c       0x30 ./gen/../rust_opt/target/armv7a-none-eabi/release/libitron.a(core-d049573bc16596f9.core.5587a85061e7188a-cgu.0.rcgu.o)
                0x000000000012761c                core::fmt::num::imp::<impl core::fmt::UpperExp for i16>::fmt
 .text._ZN4core3fmt3num3imp53_$LT$impl$u20$core..fmt..UpperExp$u20$for$u20$u16$GT$3fmt17h07d48ce0e1e749dcE
                0x000000000012764c       0x20 ./gen/../rust_opt/target/armv7a-none-eabi/release/libitron.a(core-d049573bc16596f9.core.5587a85061e7188a-cgu.0.rcgu.o)
                0x000000000012764c                core::fmt::num::imp::<impl core::fmt::UpperExp for u16>::fmt
 .text._ZN4core3fmt3num3imp53_$LT$impl$u20$core..fmt..UpperExp$u20$for$u20$i32$GT$3fmt17hf0350addfa1667d3E
                0x000000000012766c       0x30 ./gen/../rust_opt/target/armv7a-none-eabi/release/libitron.a(core-d049573bc16596f9.core.5587a85061e7188a-cgu.0.rcgu.o)
                0x000000000012766c                core::fmt::num::imp::<impl core::fmt::UpperExp for isize>::fmt
                0x000000000012766c                core::fmt::num::imp::<impl core::fmt::UpperExp for i32>::fmt
 .text._ZN4core3fmt3num3imp53_$LT$impl$u20$core..fmt..UpperExp$u20$for$u20$u32$GT$3fmt17he78d3191f07bcd68E
                0x000000000012769c       0x20 ./gen/../rust_opt/target/armv7a-none-eabi/release/libitron.a(core-d049573bc16596f9.core.5587a85061e7188a-cgu.0.rcgu.o)
                0x000000000012769c                core::fmt::num::imp::<impl core::fmt::UpperExp for u32>::fmt
                0x000000000012769c                core::fmt::num::imp::<impl core::fmt::UpperExp for usize>::fmt
 .text._ZN4core3fmt3num3imp7exp_u6417h10bcc1a2e249db0dE
                0x00000000001276bc      0x6a4 ./gen/../rust_opt/target/armv7a-none-eabi/release/libitron.a(core-d049573bc16596f9.core.5587a85061e7188a-cgu.0.rcgu.o)
 .text._ZN4core3fmt3num3imp53_$LT$impl$u20$core..fmt..LowerExp$u20$for$u20$i64$GT$3fmt17hcf4752f526debdaeE
                0x0000000000127d60       0x40 ./gen/../rust_opt/target/armv7a-none-eabi/release/libitron.a(core-d049573bc16596f9.core.5587a85061e7188a-cgu.0.rcgu.o)
                0x0000000000127d60                core::fmt::num::imp::<impl core::fmt::LowerExp for i64>::fmt
 .text._ZN4core3fmt3num3imp53_$LT$impl$u20$core..fmt..LowerExp$u20$for$u20$u64$GT$3fmt17h1137bee068b4f16aE
                0x0000000000127da0       0x2c ./gen/../rust_opt/target/armv7a-none-eabi/release/libitron.a(core-d049573bc16596f9.core.5587a85061e7188a-cgu.0.rcgu.o)
                0x0000000000127da0                core::fmt::num::imp::<impl core::fmt::LowerExp for u64>::fmt
 .text._ZN4core3fmt3num3imp53_$LT$impl$u20$core..fmt..UpperExp$u20$for$u20$i64$GT$3fmt17hb868ad8f77e533adE
                0x0000000000127dcc       0x40 ./gen/../rust_opt/target/armv7a-none-eabi/release/libitron.a(core-d049573bc16596f9.core.5587a85061e7188a-cgu.0.rcgu.o)
                0x0000000000127dcc                core::fmt::num::imp::<impl core::fmt::UpperExp for i64>::fmt
 .text._ZN4core3fmt3num3imp53_$LT$impl$u20$core..fmt..UpperExp$u20$for$u20$u64$GT$3fmt17h63c965249d38ffaaE
                0x0000000000127e0c       0x2c ./gen/../rust_opt/target/armv7a-none-eabi/release/libitron.a(core-d049573bc16596f9.core.5587a85061e7188a-cgu.0.rcgu.o)
                0x0000000000127e0c                core::fmt::num::imp::<impl core::fmt::UpperExp for u64>::fmt
 .text._ZN4core3fmt3num8exp_u12817hebe915adc93a3f65E
                0x0000000000127e38     0x3264 ./gen/../rust_opt/target/armv7a-none-eabi/release/libitron.a(core-d049573bc16596f9.core.5587a85061e7188a-cgu.0.rcgu.o)
 .text._ZN4core3fmt3num54_$LT$impl$u20$core..fmt..LowerExp$u20$for$u20$i128$GT$3fmt17h5da6959838468447E
                0x000000000012b09c       0x5c ./gen/../rust_opt/target/armv7a-none-eabi/release/libitron.a(core-d049573bc16596f9.core.5587a85061e7188a-cgu.0.rcgu.o)
                0x000000000012b09c                core::fmt::num::<impl core::fmt::LowerExp for i128>::fmt
 .text._ZN4core3fmt3num54_$LT$impl$u20$core..fmt..LowerExp$u20$for$u20$u128$GT$3fmt17h376c18320fa0ab27E
                0x000000000012b0f8       0x3c ./gen/../rust_opt/target/armv7a-none-eabi/release/libitron.a(core-d049573bc16596f9.core.5587a85061e7188a-cgu.0.rcgu.o)
                0x000000000012b0f8                core::fmt::num::<impl core::fmt::LowerExp for u128>::fmt
 .text._ZN4core3fmt3num54_$LT$impl$u20$core..fmt..UpperExp$u20$for$u20$i128$GT$3fmt17h4fa0aa44e9ac138bE
                0x000000000012b134       0x5c ./gen/../rust_opt/target/armv7a-none-eabi/release/libitron.a(core-d049573bc16596f9.core.5587a85061e7188a-cgu.0.rcgu.o)
                0x000000000012b134                core::fmt::num::<impl core::fmt::UpperExp for i128>::fmt
 .text._ZN4core3fmt3num54_$LT$impl$u20$core..fmt..UpperExp$u20$for$u20$u128$GT$3fmt17h8104a47a73970792E
                0x000000000012b190       0x38 ./gen/../rust_opt/target/armv7a-none-eabi/release/libitron.a(core-d049573bc16596f9.core.5587a85061e7188a-cgu.0.rcgu.o)
                0x000000000012b190                core::fmt::num::<impl core::fmt::UpperExp for u128>::fmt
 .text._ZN53_$LT$core..fmt..Error$u20$as$u20$core..fmt..Debug$GT$3fmt17h1fc33b0efc6d4457E
                0x000000000012b1c8       0x24 ./gen/../rust_opt/target/armv7a-none-eabi/release/libitron.a(core-d049573bc16596f9.core.5587a85061e7188a-cgu.0.rcgu.o)
 .text._ZN42_$LT$$RF$T$u20$as$u20$core..fmt..Debug$GT$3fmt17h24b88fa73242f32eE
                0x000000000012b1ec       0xc0 ./gen/../rust_opt/target/armv7a-none-eabi/release/libitron.a(core-d049573bc16596f9.core.5587a85061e7188a-cgu.0.rcgu.o)
 .text._ZN42_$LT$$RF$T$u20$as$u20$core..fmt..Debug$GT$3fmt17h2b8606028715b277E
                0x000000000012b2ac       0xd8 ./gen/../rust_opt/target/armv7a-none-eabi/release/libitron.a(core-d049573bc16596f9.core.5587a85061e7188a-cgu.0.rcgu.o)
 .text._ZN42_$LT$$RF$T$u20$as$u20$core..fmt..Debug$GT$3fmt17h2c94c47449fce077E
                0x000000000012b384       0x18 ./gen/../rust_opt/target/armv7a-none-eabi/release/libitron.a(core-d049573bc16596f9.core.5587a85061e7188a-cgu.0.rcgu.o)
 .text._ZN42_$LT$$RF$T$u20$as$u20$core..fmt..Debug$GT$3fmt17hf161bf64d7c0ef1eE
                0x000000000012b39c       0x14 ./gen/../rust_opt/target/armv7a-none-eabi/release/libitron.a(core-d049573bc16596f9.core.5587a85061e7188a-cgu.0.rcgu.o)
 .text._ZN44_$LT$$RF$T$u20$as$u20$core..fmt..Display$GT$3fmt17h61386bb67a2fbd60E
                0x000000000012b3b0       0x14 ./gen/../rust_opt/target/armv7a-none-eabi/release/libitron.a(core-d049573bc16596f9.core.5587a85061e7188a-cgu.0.rcgu.o)
 .text._ZN44_$LT$$RF$T$u20$as$u20$core..fmt..Display$GT$3fmt17h8f0befc82ddda638E
                0x000000000012b3c4       0x20 ./gen/../rust_opt/target/armv7a-none-eabi/release/libitron.a(core-d049573bc16596f9.core.5587a85061e7188a-cgu.0.rcgu.o)
 .text._ZN44_$LT$$RF$T$u20$as$u20$core..fmt..Display$GT$3fmt17hfac9eb6f9e514871E
                0x000000000012b3e4       0x14 ./gen/../rust_opt/target/armv7a-none-eabi/release/libitron.a(core-d049573bc16596f9.core.5587a85061e7188a-cgu.0.rcgu.o)
 .text._ZN44_$LT$$RF$T$u20$as$u20$core..fmt..Display$GT$3fmt17hfcf05cee7c9056f6E
                0x000000000012b3f8       0x14 ./gen/../rust_opt/target/armv7a-none-eabi/release/libitron.a(core-d049573bc16596f9.core.5587a85061e7188a-cgu.0.rcgu.o)
 .text._ZN45_$LT$$RF$T$u20$as$u20$core..fmt..LowerHex$GT$3fmt17ha26303ddcb46393bE
                0x000000000012b40c       0x74 ./gen/../rust_opt/target/armv7a-none-eabi/release/libitron.a(core-d049573bc16596f9.core.5587a85061e7188a-cgu.0.rcgu.o)
 .text.unlikely._ZN4core5slice5index26slice_start_index_len_fail8do_panic7runtime17h6b9a2d72cc528d7dE
                0x000000000012b480       0x64 ./gen/../rust_opt/target/armv7a-none-eabi/release/libitron.a(core-d049573bc16596f9.core.5587a85061e7188a-cgu.0.rcgu.o)
                0x000000000012b480                core::slice::index::slice_start_index_len_fail::do_panic::runtime
 .text.unlikely._ZN4core5slice5index24slice_end_index_len_fail8do_panic7runtime17h389d609c37b06f43E
                0x000000000012b4e4       0x64 ./gen/../rust_opt/target/armv7a-none-eabi/release/libitron.a(core-d049573bc16596f9.core.5587a85061e7188a-cgu.0.rcgu.o)
                0x000000000012b4e4                core::slice::index::slice_end_index_len_fail::do_panic::runtime
 .text.unlikely._ZN4core5slice5index22slice_index_order_fail8do_panic7runtime17hba4d89077763ab27E
                0x000000000012b548       0x64 ./gen/../rust_opt/target/armv7a-none-eabi/release/libitron.a(core-d049573bc16596f9.core.5587a85061e7188a-cgu.0.rcgu.o)
                0x000000000012b548                core::slice::index::slice_index_order_fail::do_panic::runtime
 .text.unlikely._ZN4core5slice29_$LT$impl$u20$$u5b$T$u5d$$GT$15copy_from_slice17len_mismatch_fail8do_panic7runtime17ha2cc200a2ee383aeE
                0x000000000012b5ac       0x68 ./gen/../rust_opt/target/armv7a-none-eabi/release/libitron.a(core-d049573bc16596f9.core.5587a85061e7188a-cgu.0.rcgu.o)
                0x000000000012b5ac                core::slice::<impl [T]>::copy_from_slice::len_mismatch_fail::do_panic::runtime
 .text._ZN67_$LT$core..str..iter..EscapeDebug$u20$as$u20$core..fmt..Display$GT$3fmt17h2e2431f416ffb01dE
                0x000000000012b614      0x984 ./gen/../rust_opt/target/armv7a-none-eabi/release/libitron.a(core-d049573bc16596f9.core.5587a85061e7188a-cgu.0.rcgu.o)
                0x000000000012b614                <core::str::iter::EscapeDebug as core::fmt::Display>::fmt
 .text._ZN69_$LT$core..str..iter..EscapeDefault$u20$as$u20$core..fmt..Display$GT$3fmt17ha94bdd14781dc3d5E
                0x000000000012bf98      0x590 ./gen/../rust_opt/target/armv7a-none-eabi/release/libitron.a(core-d049573bc16596f9.core.5587a85061e7188a-cgu.0.rcgu.o)
                0x000000000012bf98                <core::str::iter::EscapeDefault as core::fmt::Display>::fmt
 .text._ZN69_$LT$core..str..iter..EscapeUnicode$u20$as$u20$core..fmt..Display$GT$3fmt17h5c27075c7f7ee5aeE
                0x000000000012c528      0x3ac ./gen/../rust_opt/target/armv7a-none-eabi/release/libitron.a(core-d049573bc16596f9.core.5587a85061e7188a-cgu.0.rcgu.o)
                0x000000000012c528                <core::str::iter::EscapeUnicode as core::fmt::Display>::fmt
 .text._ZN4core7unicode12unicode_data10alphabetic6lookup17h0425ea10b4aa7bf8E
                0x000000000012c8d4      0x118 ./gen/../rust_opt/target/armv7a-none-eabi/release/libitron.a(core-d049573bc16596f9.core.5587a85061e7188a-cgu.0.rcgu.o)
                0x000000000012c8d4                core::unicode::unicode_data::alphabetic::lookup
 .text._ZN4core7unicode12unicode_data14case_ignorable6lookup17ha88a31073cb4ea00E
                0x000000000012c9ec      0x118 ./gen/../rust_opt/target/armv7a-none-eabi/release/libitron.a(core-d049573bc16596f9.core.5587a85061e7188a-cgu.0.rcgu.o)
                0x000000000012c9ec                core::unicode::unicode_data::case_ignorable::lookup
 .text._ZN4core7unicode12unicode_data5cased6lookup17h855070ae3579273aE
                0x000000000012cb04      0x104 ./gen/../rust_opt/target/armv7a-none-eabi/release/libitron.a(core-d049573bc16596f9.core.5587a85061e7188a-cgu.0.rcgu.o)
                0x000000000012cb04                core::unicode::unicode_data::cased::lookup
 .text._ZN4core7unicode12unicode_data2cc6lookup17hbd92340422846ed5E
                0x000000000012cc08       0x2c ./gen/../rust_opt/target/armv7a-none-eabi/release/libitron.a(core-d049573bc16596f9.core.5587a85061e7188a-cgu.0.rcgu.o)
                0x000000000012cc08                core::unicode::unicode_data::cc::lookup
 .text._ZN4core7unicode12unicode_data15grapheme_extend11lookup_slow17ha0f2bcc528f4b24fE
                0x000000000012cc34      0x118 ./gen/../rust_opt/target/armv7a-none-eabi/release/libitron.a(core-d049573bc16596f9.core.5587a85061e7188a-cgu.0.rcgu.o)
                0x000000000012cc34                core::unicode::unicode_data::grapheme_extend::lookup_slow
 .text._ZN4core7unicode12unicode_data9lowercase6lookup17h25b6cb6d69b065d2E
                0x000000000012cd4c      0x15c ./gen/../rust_opt/target/armv7a-none-eabi/release/libitron.a(core-d049573bc16596f9.core.5587a85061e7188a-cgu.0.rcgu.o)
                0x000000000012cd4c                core::unicode::unicode_data::lowercase::lookup
 .text._ZN4core7unicode12unicode_data1n6lookup17hab35f8f69f966811E
                0x000000000012cea8      0x118 ./gen/../rust_opt/target/armv7a-none-eabi/release/libitron.a(core-d049573bc16596f9.core.5587a85061e7188a-cgu.0.rcgu.o)
                0x000000000012cea8                core::unicode::unicode_data::n::lookup
 .text._ZN4core7unicode12unicode_data9uppercase6lookup17h93e2abe42af36001E
                0x000000000012cfc0      0x15c ./gen/../rust_opt/target/armv7a-none-eabi/release/libitron.a(core-d049573bc16596f9.core.5587a85061e7188a-cgu.0.rcgu.o)
                0x000000000012cfc0                core::unicode::unicode_data::uppercase::lookup
 .text._ZN4core7unicode12unicode_data11conversions8to_lower17h8b23e01b2072e971E
                0x000000000012d11c      0x158 ./gen/../rust_opt/target/armv7a-none-eabi/release/libitron.a(core-d049573bc16596f9.core.5587a85061e7188a-cgu.0.rcgu.o)
                0x000000000012d11c                core::unicode::unicode_data::conversions::to_lower
 .text._ZN4core7unicode12unicode_data11conversions8to_upper17hb90ef9b0b7a7f5d4E
                0x000000000012d274      0x168 ./gen/../rust_opt/target/armv7a-none-eabi/release/libitron.a(core-d049573bc16596f9.core.5587a85061e7188a-cgu.0.rcgu.o)
                0x000000000012d274                core::unicode::unicode_data::conversions::to_upper
 .text.__aeabi_memset
                0x000000000012d3dc       0x84 ./gen/../rust_opt/target/armv7a-none-eabi/release/libitron.a(compiler_builtins-70f608aea3cde50d.compiler_builtins.5a681add74c93a61-cgu.162.rcgu.o)
                0x000000000012d3dc                __aeabi_memset
 .text.__aeabi_memcpy4
                0x000000000012d460       0x2c ./gen/../rust_opt/target/armv7a-none-eabi/release/libitron.a(compiler_builtins-70f608aea3cde50d.compiler_builtins.5a681add74c93a61-cgu.174.rcgu.o)
                0x000000000012d460                __aeabi_memcpy4
 .text.__aeabi_dmul
                0x000000000012d48c       0x10 ./gen/../rust_opt/target/armv7a-none-eabi/release/libitron.a(compiler_builtins-70f608aea3cde50d.compiler_builtins.5a681add74c93a61-cgu.178.rcgu.o)
                0x000000000012d48c                __aeabi_dmul
 .text.__aeabi_fcmplt
                0x000000000012d49c       0x64 ./gen/../rust_opt/target/armv7a-none-eabi/release/libitron.a(compiler_builtins-70f608aea3cde50d.compiler_builtins.5a681add74c93a61-cgu.180.rcgu.o)
                0x000000000012d49c                __aeabi_fcmplt
 .text.__aeabi_memclr4
                0x000000000012d500       0x44 ./gen/../rust_opt/target/armv7a-none-eabi/release/libitron.a(compiler_builtins-70f608aea3cde50d.compiler_builtins.5a681add74c93a61-cgu.201.rcgu.o)
                0x000000000012d500                __aeabi_memclr4
 .text.__aeabi_fcmpge
                0x000000000012d544       0x6c ./gen/../rust_opt/target/armv7a-none-eabi/release/libitron.a(compiler_builtins-70f608aea3cde50d.compiler_builtins.5a681add74c93a61-cgu.206.rcgu.o)
                0x000000000012d544                __aeabi_fcmpge
 .text.__aeabi_f2h
                0x000000000012d5b0      0x128 ./gen/../rust_opt/target/armv7a-none-eabi/release/libitron.a(compiler_builtins-70f608aea3cde50d.compiler_builtins.5a681add74c93a61-cgu.210.rcgu.o)
                0x000000000012d5b0                __aeabi_f2h
 .text.__aeabi_memcpy
                0x000000000012d6d8       0x10 ./gen/../rust_opt/target/armv7a-none-eabi/release/libitron.a(compiler_builtins-70f608aea3cde50d.compiler_builtins.5a681add74c93a61-cgu.223.rcgu.o)
                0x000000000012d6d8                __aeabi_memcpy
 .text.__aeabi_memcpy8
                0x000000000012d6e8       0x2c ./gen/../rust_opt/target/armv7a-none-eabi/release/libitron.a(compiler_builtins-70f608aea3cde50d.compiler_builtins.5a681add74c93a61-cgu.253.rcgu.o)
                0x000000000012d6e8                __aeabi_memcpy8
 .text.__aeabi_dcmplt
                0x000000000012d714       0x78 ./gen/../rust_opt/target/armv7a-none-eabi/release/libitron.a(compiler_builtins-70f608aea3cde50d.compiler_builtins.5a681add74c93a61-cgu.261.rcgu.o)
                0x000000000012d714                __aeabi_dcmplt
 .text.__aeabi_ddiv
                0x000000000012d78c       0x10 ./gen/../rust_opt/target/armv7a-none-eabi/release/libitron.a(compiler_builtins-70f608aea3cde50d.compiler_builtins.5a681add74c93a61-cgu.263.rcgu.o)
                0x000000000012d78c                __aeabi_ddiv
 .text.__aeabi_ul2d
                0x000000000012d79c       0x88 ./gen/../rust_opt/target/armv7a-none-eabi/release/libitron.a(compiler_builtins-70f608aea3cde50d.compiler_builtins.5a681add74c93a61-cgu.270.rcgu.o)
                0x000000000012d79c                __aeabi_ul2d
 .text.__aeabi_fcmpeq
                0x000000000012d824       0x54 ./gen/../rust_opt/target/armv7a-none-eabi/release/libitron.a(compiler_builtins-70f608aea3cde50d.compiler_builtins.5a681add74c93a61-cgu.283.rcgu.o)
                0x000000000012d824                __aeabi_fcmpeq
 .text.__aeabi_dcmpeq
                0x000000000012d878       0x68 ./gen/../rust_opt/target/armv7a-none-eabi/release/libitron.a(compiler_builtins-70f608aea3cde50d.compiler_builtins.5a681add74c93a61-cgu.287.rcgu.o)
                0x000000000012d878                __aeabi_dcmpeq
 .text.__aeabi_h2f
                0x000000000012d8e0       0x9c ./gen/../rust_opt/target/armv7a-none-eabi/release/libitron.a(compiler_builtins-70f608aea3cde50d.compiler_builtins.5a681add74c93a61-cgu.300.rcgu.o)
                0x000000000012d8e0                __aeabi_h2f
 .text.memcmp   0x000000000012d97c       0x44 ./gen/../rust_opt/target/armv7a-none-eabi/release/libitron.a(compiler_builtins-70f608aea3cde50d.compiler_builtins.5a681add74c93a61-cgu.310.rcgu.o)
                0x000000000012d97c                memcmp
 .text.__aeabi_fdiv
                0x000000000012d9c0       0x10 ./gen/../rust_opt/target/armv7a-none-eabi/release/libitron.a(compiler_builtins-70f608aea3cde50d.compiler_builtins.5a681add74c93a61-cgu.355.rcgu.o)
                0x000000000012d9c0                __aeabi_fdiv
 .text.__aeabi_dcmpge
                0x000000000012d9d0       0x80 ./gen/../rust_opt/target/armv7a-none-eabi/release/libitron.a(compiler_builtins-70f608aea3cde50d.compiler_builtins.5a681add74c93a61-cgu.361.rcgu.o)
                0x000000000012d9d0                __aeabi_dcmpge
 .text.__aeabi_ul2f
                0x000000000012da50       0x74 ./gen/../rust_opt/target/armv7a-none-eabi/release/libitron.a(compiler_builtins-70f608aea3cde50d.compiler_builtins.5a681add74c93a61-cgu.365.rcgu.o)
                0x000000000012da50                __aeabi_ul2f
 .text.__aeabi_memclr8
                0x000000000012dac4       0x44 ./gen/../rust_opt/target/armv7a-none-eabi/release/libitron.a(compiler_builtins-70f608aea3cde50d.compiler_builtins.5a681add74c93a61-cgu.375.rcgu.o)
                0x000000000012dac4                __aeabi_memclr8
 .text.__aeabi_fmul
                0x000000000012db08       0x10 ./gen/../rust_opt/target/armv7a-none-eabi/release/libitron.a(compiler_builtins-70f608aea3cde50d.compiler_builtins.5a681add74c93a61-cgu.393.rcgu.o)
                0x000000000012db08                __aeabi_fmul
 .text.__aeabi_memclr
                0x000000000012db18       0x80 ./gen/../rust_opt/target/armv7a-none-eabi/release/libitron.a(compiler_builtins-70f608aea3cde50d.compiler_builtins.5a681add74c93a61-cgu.395.rcgu.o)
                0x000000000012db18                __aeabi_memclr
 .text.__aeabi_uldivmod
                0x000000000012db98       0x24 ./gen/../rust_opt/target/armv7a-none-eabi/release/libitron.a(compiler_builtins-70f608aea3cde50d.compiler_builtins.5a681add74c93a61-cgu.410.rcgu.o)
                0x000000000012db98                __aeabi_uldivmod
 .text.__aeabi_uidivmod
                0x000000000012dbbc       0x1c ./gen/../rust_opt/target/armv7a-none-eabi/release/libitron.a(compiler_builtins-70f608aea3cde50d.compiler_builtins.5a681add74c93a61-cgu.411.rcgu.o)
                0x000000000012dbbc                __aeabi_uidivmod
 .text._ZN17compiler_builtins5float3div3div17he78d0620a7b75566E
                0x000000000012dbd8      0xbe8 ./gen/../rust_opt/target/armv7a-none-eabi/release/libitron.a(compiler_builtins-70f608aea3cde50d.compiler_builtins.5a681add74c93a61-cgu.000.rcgu.o)
                0x000000000012dbd8                compiler_builtins::float::div::div
 .text._ZN17compiler_builtins5float3div8__divsf317h2b1d2160bcddc788E
                0x000000000012e7c0      0x258 ./gen/../rust_opt/target/armv7a-none-eabi/release/libitron.a(compiler_builtins-70f608aea3cde50d.compiler_builtins.5a681add74c93a61-cgu.000.rcgu.o)
                0x000000000012e7c0                compiler_builtins::float::div::__divsf3
 .text._ZN17compiler_builtins5float3div8__divdf317hce8b9ad476be59d6E
                0x000000000012ea18      0x3f8 ./gen/../rust_opt/target/armv7a-none-eabi/release/libitron.a(compiler_builtins-70f608aea3cde50d.compiler_builtins.5a681add74c93a61-cgu.000.rcgu.o)
                0x000000000012ea18                compiler_builtins::float::div::__divdf3
 .text._ZN17compiler_builtins5float3mul3mul17hf2a17768751d3093E
                0x000000000012ee10      0x6e8 ./gen/../rust_opt/target/armv7a-none-eabi/release/libitron.a(compiler_builtins-70f608aea3cde50d.compiler_builtins.5a681add74c93a61-cgu.004.rcgu.o)
                0x000000000012ee10                compiler_builtins::float::mul::mul
 .text._ZN17compiler_builtins5float3mul8__mulsf317h25278f3241c059d4E
                0x000000000012f4f8      0x1c4 ./gen/../rust_opt/target/armv7a-none-eabi/release/libitron.a(compiler_builtins-70f608aea3cde50d.compiler_builtins.5a681add74c93a61-cgu.004.rcgu.o)
                0x000000000012f4f8                compiler_builtins::float::mul::__mulsf3
 .text._ZN17compiler_builtins5float3mul8__muldf317hccb81ca3c0286231E
                0x000000000012f6bc      0x34c ./gen/../rust_opt/target/armv7a-none-eabi/release/libitron.a(compiler_builtins-70f608aea3cde50d.compiler_builtins.5a681add74c93a61-cgu.004.rcgu.o)
                0x000000000012f6bc                compiler_builtins::float::mul::__muldf3
 .text._ZN17compiler_builtins3mem6memcpy17h2e27bf7b653d77b8E
                0x000000000012fa08      0x1d4 ./gen/../rust_opt/target/armv7a-none-eabi/release/libitron.a(compiler_builtins-70f608aea3cde50d.compiler_builtins.5a681add74c93a61-cgu.009.rcgu.o)
                0x000000000012fa08                compiler_builtins::mem::memcpy
 .text._ZN17compiler_builtins3mem7memmove17h5a3e1228d8082146E
                0x000000000012fbdc      0x438 ./gen/../rust_opt/target/armv7a-none-eabi/release/libitron.a(compiler_builtins-70f608aea3cde50d.compiler_builtins.5a681add74c93a61-cgu.009.rcgu.o)
                0x000000000012fbdc                compiler_builtins::mem::memmove
 .text._ZN17compiler_builtins3mem6memset17h37b1769849978255E
                0x0000000000130014       0x9c ./gen/../rust_opt/target/armv7a-none-eabi/release/libitron.a(compiler_builtins-70f608aea3cde50d.compiler_builtins.5a681add74c93a61-cgu.009.rcgu.o)
                0x0000000000130014                compiler_builtins::mem::memset
 .text._ZN17compiler_builtins3mem4bcmp17h6438afe9a882ff74E
                0x00000000001300b0       0x44 ./gen/../rust_opt/target/armv7a-none-eabi/release/libitron.a(compiler_builtins-70f608aea3cde50d.compiler_builtins.5a681add74c93a61-cgu.009.rcgu.o)
                0x00000000001300b0                compiler_builtins::mem::bcmp
                0x00000000001300b0                compiler_builtins::mem::memcmp
 .text._ZN17compiler_builtins3mem6strlen17hdb1c52627ea21c52E
                0x00000000001300f4       0x38 ./gen/../rust_opt/target/armv7a-none-eabi/release/libitron.a(compiler_builtins-70f608aea3cde50d.compiler_builtins.5a681add74c93a61-cgu.009.rcgu.o)
                0x00000000001300f4                compiler_builtins::mem::strlen
 .text._ZN84_$LT$compiler_builtins..int..big..u256$u20$as$u20$core..ops..bit..Shr$LT$u32$GT$$GT$3shr17h700137e2b572ae43E
                0x000000000013012c      0x240 ./gen/../rust_opt/target/armv7a-none-eabi/release/libitron.a(compiler_builtins-70f608aea3cde50d.compiler_builtins.5a681add74c93a61-cgu.019.rcgu.o)
                0x000000000013012c                <compiler_builtins::int::big::u256 as core::ops::bit::Shr<u32>>::shr
 .text._ZN17compiler_builtins3int3big71_$LT$impl$u20$compiler_builtins..int..traits..HInt$u20$for$u20$u128$GT$14zero_widen_mul17h2a6f60738a72942fE
                0x000000000013036c      0x214 ./gen/../rust_opt/target/armv7a-none-eabi/release/libitron.a(compiler_builtins-70f608aea3cde50d.compiler_builtins.5a681add74c93a61-cgu.019.rcgu.o)
                0x000000000013036c                compiler_builtins::int::big::<impl compiler_builtins::int::traits::HInt for u128>::zero_widen_mul
 .text._ZN17compiler_builtins3int3big71_$LT$impl$u20$compiler_builtins..int..traits..HInt$u20$for$u20$i128$GT$14zero_widen_mul17h757cd97f511fe0d1E
                0x0000000000130580       0x40 ./gen/../rust_opt/target/armv7a-none-eabi/release/libitron.a(compiler_builtins-70f608aea3cde50d.compiler_builtins.5a681add74c93a61-cgu.019.rcgu.o)
                0x0000000000130580                compiler_builtins::int::big::<impl compiler_builtins::int::traits::HInt for i128>::zero_widen_mul
                0x0000000000130580                compiler_builtins::int::big::<impl compiler_builtins::int::traits::HInt for u128>::widen_mul
 .text.unlikely._ZN17compiler_builtins3int3big71_$LT$impl$u20$compiler_builtins..int..traits..HInt$u20$for$u20$i128$GT$9widen_mul17hbe745c677a8cf624E
                0x00000000001305c0        0xc ./gen/../rust_opt/target/armv7a-none-eabi/release/libitron.a(compiler_builtins-70f608aea3cde50d.compiler_builtins.5a681add74c93a61-cgu.019.rcgu.o)
                0x00000000001305c0                compiler_builtins::int::big::<impl compiler_builtins::int::traits::HInt for i128>::widen_mul
 .text.unlikely._ZN17compiler_builtins3int3big71_$LT$impl$u20$compiler_builtins..int..traits..HInt$u20$for$u20$i128$GT$8widen_hi17hd02f55ec31f3daf8E
                0x00000000001305cc        0xc ./gen/../rust_opt/target/armv7a-none-eabi/release/libitron.a(compiler_builtins-70f608aea3cde50d.compiler_builtins.5a681add74c93a61-cgu.019.rcgu.o)
                0x00000000001305cc                compiler_builtins::int::big::<impl compiler_builtins::int::traits::HInt for u128>::widen_hi
                0x00000000001305cc                compiler_builtins::int::big::<impl compiler_builtins::int::traits::HInt for i128>::widen_hi
 .text._ZN90_$LT$compiler_builtins..int..big..i256$u20$as$u20$compiler_builtins..int..traits..DInt$GT$2lo17h7b22363a25d41783E
                0x00000000001305d8       0x1c ./gen/../rust_opt/target/armv7a-none-eabi/release/libitron.a(compiler_builtins-70f608aea3cde50d.compiler_builtins.5a681add74c93a61-cgu.019.rcgu.o)
                0x00000000001305d8                <compiler_builtins::int::big::i256 as compiler_builtins::int::traits::DInt>::lo
                0x00000000001305d8                <compiler_builtins::int::big::u256 as compiler_builtins::int::traits::DInt>::lo
 .text._ZN90_$LT$compiler_builtins..int..big..i256$u20$as$u20$compiler_builtins..int..traits..DInt$GT$2hi17h3540cc33fb75817bE
                0x00000000001305f4       0x20 ./gen/../rust_opt/target/armv7a-none-eabi/release/libitron.a(compiler_builtins-70f608aea3cde50d.compiler_builtins.5a681add74c93a61-cgu.019.rcgu.o)
                0x00000000001305f4                <compiler_builtins::int::big::u256 as compiler_builtins::int::traits::DInt>::hi
                0x00000000001305f4                <compiler_builtins::int::big::i256 as compiler_builtins::int::traits::DInt>::hi
 .text._ZN17compiler_builtins3int6traits4DInt5lo_hi17ha308a58add6cc6a0E
                0x0000000000130614       0x2c ./gen/../rust_opt/target/armv7a-none-eabi/release/libitron.a(compiler_builtins-70f608aea3cde50d.compiler_builtins.5a681add74c93a61-cgu.019.rcgu.o)
                0x0000000000130614                compiler_builtins::int::traits::DInt::lo_hi
 .text.unlikely._ZN84_$LT$compiler_builtins..int..big..i256$u20$as$u20$core..ops..bit..Shl$LT$u32$GT$$GT$3shl17h7aea36307c5c7502E
                0x0000000000130640        0xc ./gen/../rust_opt/target/armv7a-none-eabi/release/libitron.a(compiler_builtins-70f608aea3cde50d.compiler_builtins.5a681add74c93a61-cgu.019.rcgu.o)
                0x0000000000130640                <compiler_builtins::int::big::u256 as core::ops::bit::Shl<u32>>::shl
                0x0000000000130640                <compiler_builtins::int::big::i256 as core::ops::bit::Shl<u32>>::shl
 .text.__udivmoddi4
                0x000000000013064c       0x4c ./gen/../rust_opt/target/armv7a-none-eabi/release/libitron.a(compiler_builtins-70f608aea3cde50d.compiler_builtins.5a681add74c93a61-cgu.347.rcgu.o)
                0x000000000013064c                __udivmoddi4
 .text.__aeabi_idiv0
                0x0000000000130698        0x4 ./gen/../rust_opt/target/armv7a-none-eabi/release/libitron.a(63f8a0b8a638da8c-aeabi_div0.o)
                0x0000000000130698                __aeabi_idiv0
 .text.__aeabi_ldiv0
                0x000000000013069c        0x4 ./gen/../rust_opt/target/armv7a-none-eabi/release/libitron.a(63f8a0b8a638da8c-aeabi_div0.o)
                0x000000000013069c                __aeabi_ldiv0
 .text._ZN17compiler_builtins3int19specialized_div_rem12u128_div_rem17h745fc7146425b8c6E
                0x00000000001306a0      0x698 ./gen/../rust_opt/target/armv7a-none-eabi/release/libitron.a(compiler_builtins-70f608aea3cde50d.compiler_builtins.5a681add74c93a61-cgu.010.rcgu.o)
                0x00000000001306a0                compiler_builtins::int::specialized_div_rem::u128_div_rem
 .text._ZN17compiler_builtins3int19specialized_div_rem11u64_div_rem17h1dcded8ad6a6aa41E
                0x0000000000130d38      0x2d8 ./gen/../rust_opt/target/armv7a-none-eabi/release/libitron.a(compiler_builtins-70f608aea3cde50d.compiler_builtins.5a681add74c93a61-cgu.010.rcgu.o)
                0x0000000000130d38                compiler_builtins::int::specialized_div_rem::u64_div_rem
 *(.glue_7t)
 .glue_7t       0x0000000000131010        0x0 linker stubs
 *(.glue_7)
 .glue_7        0x0000000000131010        0x0 linker stubs
                0x0000000000131010                __end_kernel = .
                0x0000000000131010                _etext = .
                [!provide]                        PROVIDE (etext = .)

.vfp11_veneer   0x0000000000131010        0x0
 .vfp11_veneer  0x0000000000131010        0x0 linker stubs

.v4_bx          0x0000000000131010        0x0
 .v4_bx         0x0000000000131010        0x0 linker stubs

.iplt           0x0000000000131010        0x0
 .iplt          0x0000000000131010        0x0 objs/start.o

.rodata         0x0000000000131010     0xf0f0
                0x0000000000131010                __start_rodata = .
 *(.rodata)
 .rodata        0x0000000000131010       0x31 objs/log_output.o
 *fill*         0x0000000000131041        0x3 
 .rodata        0x0000000000131044       0x2d objs/t_perror.o
 *fill*         0x0000000000131071        0x3 
 .rodata        0x0000000000131074      0x108 objs/strerror.o
 .rodata        0x000000000013117c        0x4 objs/tTask_rProcessor1Migratable_tecsgen.o
                0x000000000013117c                tTask_INIB_tab
 .rodata        0x0000000000131180        0x8 objs/tSemaphore_rProcessor1Migratable_tecsgen.o
                0x0000000000131180                tSemaphore_INIB_tab
 .rodata        0x0000000000131188        0x4 objs/tInterruptRequest_rProcessor1Migratable_tecsgen.o
                0x0000000000131188                tInterruptRequest_INIB_tab
 .rodata        0x000000000013118c        0x4 objs/tISR_rProcessor1Migratable_tecsgen.o
                0x000000000013118c                tISR_INIB_tab
 .rodata        0x0000000000131190        0x8 objs/tTerminateRoutine_rProcessor1Migratable_tecsgen.o
                0x0000000000131190                tTerminateRoutine_INIB_tab
 .rodata        0x0000000000131198       0x30 objs/tSerialPortMain_rProcessor1Migratable_tecsgen.o
                0x0000000000131198                tSerialPortMain_INIB_tab
                0x00000000001311a8                rProcessor1Migratable_SerialPort1_SerialPortMain_eSerialPort_des
                0x00000000001311b0                tSerialPortMain_eSerialPort_MT_
 .rodata        0x00000000001311c8        0xc objs/tSerialAdapter_rProcessor1Migratable_tecsgen.o
                0x00000000001311c8                tSerialAdapter_SINGLE_CELL_INIB
                0x00000000001311d0                rProcessor1Migratable_SerialAdapter_cSerialPort
 .rodata        0x00000000001311d4       0x10 objs/tSysLog_rProcessor1Migratable_tecsgen.o
                0x00000000001311d4                tSysLog_SINGLE_CELL_INIB
 .rodata        0x00000000001311e4       0x14 objs/tLogTaskMain_rProcessor1Migratable_tecsgen.o
                0x00000000001311e4                rProcessor1Migratable_LogTask_LogTaskMain_eLogTaskTerminate_des
                0x00000000001311ec                tLogTaskMain_SINGLE_CELL_INIB
                0x00000000001311f4                tLogTaskMain_eLogTaskTerminate_MT_
 .rodata        0x00000000001311f8       0x18 objs/tXUartPs_rProcessor1Migratable_tecsgen.o
                0x00000000001311f8                tXUartPs_INIB_tab
                0x0000000000131204                rProcessor1Migratable_SIOPortTarget1_XUartPs_eTerminate_des
                0x000000000013120c                tXUartPs_eTerminate_MT_
 .rodata        0x0000000000131210      0x74c objs/kernel_cfg.o
                0x0000000000131210                _kernel_p_exc_table
                0x0000000000131218                _kernel_exc_table_prc2
                0x0000000000131234                _kernel_exc_table_prc1
                0x0000000000131250                _kernel_p_intcfg_table
                0x0000000000131258                _kernel_intcfg_table_prc2
                0x00000000001312b8                _kernel_intcfg_table_prc1
                0x0000000000131318                _kernel_p_inh_table
                0x0000000000131320                _kernel_inh_table_prc2
                0x00000000001314a0                _kernel_inh_table_prc1
                0x0000000000131620                _kernel_terrtnbb_table
                0x0000000000131638                _kernel_terrtnb_table_prc2
                0x0000000000131640                _kernel_terrtnb_table_prc1
                0x0000000000131658                _kernel_inirtnbb_table
                0x0000000000131670                _kernel_inirtnb_table_prc2
                0x0000000000131678                _kernel_inirtnb_table_prc1
                0x0000000000131680                _kernel_p_tevtcb_table
                0x0000000000131688                _kernel_p_tmevt_heap_table
                0x0000000000131690                _kernel_idstkpt_table
                0x0000000000131698                _kernel_istkpt_table
                0x00000000001316a0                _kernel_istk_table
                0x00000000001316a8                _kernel_istksz_table
                0x00000000001316b0                _kernel_intinib_table
                0x0000000000131764                _kernel_tnum_cfg_intno
                0x0000000000131768                _kernel_p_almcb_table
                0x0000000000131768                _kernel_alminib_table
                0x0000000000131768                _kernel_tmax_almid
                0x000000000013176c                _kernel_cycinib_table
                0x000000000013176c                _kernel_p_cyccb_table
                0x000000000013176c                _kernel_tmax_cycid
                0x0000000000131770                _kernel_tmax_mpfid
                0x0000000000131770                _kernel_mpfinib_table
                0x0000000000131770                _kernel_p_mpfcb_table
                0x0000000000131774                _kernel_spninib_table
                0x0000000000131774                _kernel_tmax_spnid
                0x0000000000131778                _kernel_mtxinib_table
                0x0000000000131778                _kernel_p_mtxcb_table
                0x0000000000131778                _kernel_tmax_mtxid
                0x000000000013177c                _kernel_pdqinib_table
                0x000000000013177c                _kernel_tmax_pdqid
                0x000000000013177c                _kernel_p_pdqcb_table
                0x0000000000131780                _kernel_dtqinib_table
                0x0000000000131780                _kernel_tmax_dtqid
                0x0000000000131780                _kernel_p_dtqcb_table
                0x0000000000131784                _kernel_p_flgcb_table
                0x0000000000131784                _kernel_flginib_table
                0x0000000000131784                _kernel_tmax_flgid
                0x0000000000131788                _kernel_p_semcb_table
                0x00000000001317a8                _kernel_seminib_table
                0x0000000000131808                _kernel_tmax_semid
                0x000000000013180c                _kernel_subprio_primap
                0x0000000000131810                _kernel_torder_table
                0x0000000000131830                _kernel_p_tcb_table
                0x0000000000131850                _kernel_tinib_table
                0x0000000000131950                _kernel_tmax_tskid
                0x0000000000131954                _kernel_p_pcb_table
 .rodata        0x000000000013195c        0x4 ./libkernel.a(target_kernel_impl.o)
                0x000000000013195c                arm_tnum_memory_area
 .rodata        0x0000000000131960       0x3c ./libkernel.a(core_kernel_impl.o)
 *(.rodata.*)
 .rodata.str1.4
                0x000000000013199c       0x36 objs/log_output.o
 *fill*         0x00000000001319d2        0x2 
 .rodata.str1.4
                0x00000000001319d4       0xd9 objs/strerror.o
 *fill*         0x0000000000131aad        0x3 
 .rodata.str1.4
                0x0000000000131ab0       0x39 objs/tLogTaskMain.o
 .rodata.str1.1
                0x0000000000131ae9       0x1c ./gen/../rust_opt/target/armv7a-none-eabi/release/libitron.a(itron-280b1142b498aad8.itron.fbcde098eeebdde0-cgu.0.rcgu.o)
 *fill*         0x0000000000131b05        0x3 
 .rodata..Lanon.5693edb69d6964e26337ea22ecbe5c8d.1
                0x0000000000131b08       0x10 ./gen/../rust_opt/target/armv7a-none-eabi/release/libitron.a(itron-280b1142b498aad8.itron.fbcde098eeebdde0-cgu.0.rcgu.o)
 .rodata..Lanon.5693edb69d6964e26337ea22ecbe5c8d.2
                0x0000000000131b18       0x15 ./gen/../rust_opt/target/armv7a-none-eabi/release/libitron.a(itron-280b1142b498aad8.itron.fbcde098eeebdde0-cgu.0.rcgu.o)
 .rodata..Lanon.5693edb69d6964e26337ea22ecbe5c8d.3
                0x0000000000131b2d        0xa ./gen/../rust_opt/target/armv7a-none-eabi/release/libitron.a(itron-280b1142b498aad8.itron.fbcde098eeebdde0-cgu.0.rcgu.o)
 *fill*         0x0000000000131b37        0x1 
 .rodata..Lanon.5693edb69d6964e26337ea22ecbe5c8d.4
                0x0000000000131b38       0x10 ./gen/../rust_opt/target/armv7a-none-eabi/release/libitron.a(itron-280b1142b498aad8.itron.fbcde098eeebdde0-cgu.0.rcgu.o)
 .rodata..Lanon.cdcacac2f3e4733548ac1a094073207f.0
                0x0000000000131b48        0x5 ./gen/../rust_opt/target/armv7a-none-eabi/release/libitron.a(itron-fbcb73bf0b635dd5.itron.68e737fdf62a80e5-cgu.0.rcgu.o)
 .rodata..Lanon.cdcacac2f3e4733548ac1a094073207f.1
                0x0000000000131b4d        0x7 ./gen/../rust_opt/target/armv7a-none-eabi/release/libitron.a(itron-fbcb73bf0b635dd5.itron.68e737fdf62a80e5-cgu.0.rcgu.o)
 .rodata..Lanon.cdcacac2f3e4733548ac1a094073207f.2
                0x0000000000131b54        0x6 ./gen/../rust_opt/target/armv7a-none-eabi/release/libitron.a(itron-fbcb73bf0b635dd5.itron.68e737fdf62a80e5-cgu.0.rcgu.o)
 .rodata..Lanon.cdcacac2f3e4733548ac1a094073207f.3
                0x0000000000131b5a        0x7 ./gen/../rust_opt/target/armv7a-none-eabi/release/libitron.a(itron-fbcb73bf0b635dd5.itron.68e737fdf62a80e5-cgu.0.rcgu.o)
 .rodata..Lanon.cdcacac2f3e4733548ac1a094073207f.4
                0x0000000000131b61        0x5 ./gen/../rust_opt/target/armv7a-none-eabi/release/libitron.a(itron-fbcb73bf0b635dd5.itron.68e737fdf62a80e5-cgu.0.rcgu.o)
 .rodata.cst4   0x0000000000131b66        0x4 ./gen/../rust_opt/target/armv7a-none-eabi/release/libitron.a(itron-fbcb73bf0b635dd5.itron.68e737fdf62a80e5-cgu.0.rcgu.o)
 .rodata..Lanon.cdcacac2f3e4733548ac1a094073207f.6
                0x0000000000131b6a        0x5 ./gen/../rust_opt/target/armv7a-none-eabi/release/libitron.a(itron-fbcb73bf0b635dd5.itron.68e737fdf62a80e5-cgu.0.rcgu.o)
 .rodata..Lanon.cdcacac2f3e4733548ac1a094073207f.7
                0x0000000000131b6f        0x6 ./gen/../rust_opt/target/armv7a-none-eabi/release/libitron.a(itron-fbcb73bf0b635dd5.itron.68e737fdf62a80e5-cgu.0.rcgu.o)
 .rodata..Lanon.cdcacac2f3e4733548ac1a094073207f.8
                0x0000000000131b75        0x6 ./gen/../rust_opt/target/armv7a-none-eabi/release/libitron.a(itron-fbcb73bf0b635dd5.itron.68e737fdf62a80e5-cgu.0.rcgu.o)
 .rodata..Lanon.cdcacac2f3e4733548ac1a094073207f.9
                0x0000000000131b7b        0x7 ./gen/../rust_opt/target/armv7a-none-eabi/release/libitron.a(itron-fbcb73bf0b635dd5.itron.68e737fdf62a80e5-cgu.0.rcgu.o)
 .rodata..Lanon.cdcacac2f3e4733548ac1a094073207f.10
                0x0000000000131b82        0x7 ./gen/../rust_opt/target/armv7a-none-eabi/release/libitron.a(itron-fbcb73bf0b635dd5.itron.68e737fdf62a80e5-cgu.0.rcgu.o)
 .rodata..Lanon.cdcacac2f3e4733548ac1a094073207f.11
                0x0000000000131b89        0x6 ./gen/../rust_opt/target/armv7a-none-eabi/release/libitron.a(itron-fbcb73bf0b635dd5.itron.68e737fdf62a80e5-cgu.0.rcgu.o)
 .rodata..Lanon.cdcacac2f3e4733548ac1a094073207f.12
                0x0000000000131b8f        0x7 ./gen/../rust_opt/target/armv7a-none-eabi/release/libitron.a(itron-fbcb73bf0b635dd5.itron.68e737fdf62a80e5-cgu.0.rcgu.o)
 .rodata..Lanon.cdcacac2f3e4733548ac1a094073207f.13
                0x0000000000131b96        0x5 ./gen/../rust_opt/target/armv7a-none-eabi/release/libitron.a(itron-fbcb73bf0b635dd5.itron.68e737fdf62a80e5-cgu.0.rcgu.o)
 .rodata..Lanon.cdcacac2f3e4733548ac1a094073207f.14
                0x0000000000131b9b        0x7 ./gen/../rust_opt/target/armv7a-none-eabi/release/libitron.a(itron-fbcb73bf0b635dd5.itron.68e737fdf62a80e5-cgu.0.rcgu.o)
 .rodata..Lanon.cdcacac2f3e4733548ac1a094073207f.15
                0x0000000000131ba2        0x6 ./gen/../rust_opt/target/armv7a-none-eabi/release/libitron.a(itron-fbcb73bf0b635dd5.itron.68e737fdf62a80e5-cgu.0.rcgu.o)
 .rodata..Lanon.cdcacac2f3e4733548ac1a094073207f.16
                0x0000000000131ba8        0x7 ./gen/../rust_opt/target/armv7a-none-eabi/release/libitron.a(itron-fbcb73bf0b635dd5.itron.68e737fdf62a80e5-cgu.0.rcgu.o)
 .rodata..Lanon.cdcacac2f3e4733548ac1a094073207f.17
                0x0000000000131baf        0x7 ./gen/../rust_opt/target/armv7a-none-eabi/release/libitron.a(itron-fbcb73bf0b635dd5.itron.68e737fdf62a80e5-cgu.0.rcgu.o)
 .rodata..Lanon.cdcacac2f3e4733548ac1a094073207f.18
                0x0000000000131bb6        0x5 ./gen/../rust_opt/target/armv7a-none-eabi/release/libitron.a(itron-fbcb73bf0b635dd5.itron.68e737fdf62a80e5-cgu.0.rcgu.o)
 .rodata..Lanon.cdcacac2f3e4733548ac1a094073207f.19
                0x0000000000131bbb        0x5 ./gen/../rust_opt/target/armv7a-none-eabi/release/libitron.a(itron-fbcb73bf0b635dd5.itron.68e737fdf62a80e5-cgu.0.rcgu.o)
 .rodata.cst8   0x0000000000131bc0       0x10 ./gen/../rust_opt/target/armv7a-none-eabi/release/libitron.a(itron-fbcb73bf0b635dd5.itron.68e737fdf62a80e5-cgu.0.rcgu.o)
 .rodata..Lanon.cdcacac2f3e4733548ac1a094073207f.21
                0x0000000000131bd0        0x6 ./gen/../rust_opt/target/armv7a-none-eabi/release/libitron.a(itron-fbcb73bf0b635dd5.itron.68e737fdf62a80e5-cgu.0.rcgu.o)
 .rodata..Lanon.cdcacac2f3e4733548ac1a094073207f.22
                0x0000000000131bd6        0x6 ./gen/../rust_opt/target/armv7a-none-eabi/release/libitron.a(itron-fbcb73bf0b635dd5.itron.68e737fdf62a80e5-cgu.0.rcgu.o)
 .rodata..Lanon.cdcacac2f3e4733548ac1a094073207f.23
                0x0000000000131bdc        0x6 ./gen/../rust_opt/target/armv7a-none-eabi/release/libitron.a(itron-fbcb73bf0b635dd5.itron.68e737fdf62a80e5-cgu.0.rcgu.o)
 .rodata..Lanon.cdcacac2f3e4733548ac1a094073207f.25
                0x0000000000131be2        0xa ./gen/../rust_opt/target/armv7a-none-eabi/release/libitron.a(itron-fbcb73bf0b635dd5.itron.68e737fdf62a80e5-cgu.0.rcgu.o)
 .rodata..Lanon.cdcacac2f3e4733548ac1a094073207f.26
                0x0000000000131bec        0x1 ./gen/../rust_opt/target/armv7a-none-eabi/release/libitron.a(itron-fbcb73bf0b635dd5.itron.68e737fdf62a80e5-cgu.0.rcgu.o)
 *fill*         0x0000000000131bed        0x3 
 .rodata..Lanon.cdcacac2f3e4733548ac1a094073207f.27
                0x0000000000131bf0       0x10 ./gen/../rust_opt/target/armv7a-none-eabi/release/libitron.a(itron-fbcb73bf0b635dd5.itron.68e737fdf62a80e5-cgu.0.rcgu.o)
 .rodata..Lanon.cdcacac2f3e4733548ac1a094073207f.28
                0x0000000000131c00        0xb ./gen/../rust_opt/target/armv7a-none-eabi/release/libitron.a(itron-fbcb73bf0b635dd5.itron.68e737fdf62a80e5-cgu.0.rcgu.o)
 *fill*         0x0000000000131c0b        0x1 
 .rodata..Lanon.cdcacac2f3e4733548ac1a094073207f.29
                0x0000000000131c0c       0x10 ./gen/../rust_opt/target/armv7a-none-eabi/release/libitron.a(itron-fbcb73bf0b635dd5.itron.68e737fdf62a80e5-cgu.0.rcgu.o)
 .rodata..Lanon.cdcacac2f3e4733548ac1a094073207f.30
                0x0000000000131c1c        0x6 ./gen/../rust_opt/target/armv7a-none-eabi/release/libitron.a(itron-fbcb73bf0b635dd5.itron.68e737fdf62a80e5-cgu.0.rcgu.o)
 *fill*         0x0000000000131c22        0x2 
 .rodata..Lanon.cdcacac2f3e4733548ac1a094073207f.31
                0x0000000000131c24       0x10 ./gen/../rust_opt/target/armv7a-none-eabi/release/libitron.a(itron-fbcb73bf0b635dd5.itron.68e737fdf62a80e5-cgu.0.rcgu.o)
 .rodata..Lanon.cdcacac2f3e4733548ac1a094073207f.32
                0x0000000000131c34        0xa ./gen/../rust_opt/target/armv7a-none-eabi/release/libitron.a(itron-fbcb73bf0b635dd5.itron.68e737fdf62a80e5-cgu.0.rcgu.o)
 *fill*         0x0000000000131c3e        0x2 
 .rodata..Lanon.cdcacac2f3e4733548ac1a094073207f.33
                0x0000000000131c40       0x10 ./gen/../rust_opt/target/armv7a-none-eabi/release/libitron.a(itron-fbcb73bf0b635dd5.itron.68e737fdf62a80e5-cgu.0.rcgu.o)
 .rodata..Lanon.cdcacac2f3e4733548ac1a094073207f.34
                0x0000000000131c50        0xa ./gen/../rust_opt/target/armv7a-none-eabi/release/libitron.a(itron-fbcb73bf0b635dd5.itron.68e737fdf62a80e5-cgu.0.rcgu.o)
 *fill*         0x0000000000131c5a        0x2 
 .rodata..Lanon.cdcacac2f3e4733548ac1a094073207f.35
                0x0000000000131c5c       0x10 ./gen/../rust_opt/target/armv7a-none-eabi/release/libitron.a(itron-fbcb73bf0b635dd5.itron.68e737fdf62a80e5-cgu.0.rcgu.o)
 .rodata..Lanon.cdcacac2f3e4733548ac1a094073207f.36
                0x0000000000131c6c        0x5 ./gen/../rust_opt/target/armv7a-none-eabi/release/libitron.a(itron-fbcb73bf0b635dd5.itron.68e737fdf62a80e5-cgu.0.rcgu.o)
 *fill*         0x0000000000131c71        0x3 
 .rodata..Lanon.cdcacac2f3e4733548ac1a094073207f.37
                0x0000000000131c74       0x10 ./gen/../rust_opt/target/armv7a-none-eabi/release/libitron.a(itron-fbcb73bf0b635dd5.itron.68e737fdf62a80e5-cgu.0.rcgu.o)
 .rodata..Lanon.cdcacac2f3e4733548ac1a094073207f.38
                0x0000000000131c84       0x59 ./gen/../rust_opt/target/armv7a-none-eabi/release/libitron.a(itron-fbcb73bf0b635dd5.itron.68e737fdf62a80e5-cgu.0.rcgu.o)
 *fill*         0x0000000000131cdd        0x3 
 .rodata..Lanon.cdcacac2f3e4733548ac1a094073207f.39
                0x0000000000131ce0       0x10 ./gen/../rust_opt/target/armv7a-none-eabi/release/libitron.a(itron-fbcb73bf0b635dd5.itron.68e737fdf62a80e5-cgu.0.rcgu.o)
 .rodata._ZN4core7unicode12unicode_data10alphabetic7OFFSETS17hdc526415903ccd82E
                0x0000000000131cf0      0x5eb ./gen/../rust_opt/target/armv7a-none-eabi/release/libitron.a(core-d049573bc16596f9.core.5587a85061e7188a-cgu.0.rcgu.o)
 .rodata._ZN4core7unicode12unicode_data14case_ignorable7OFFSETS17hde027294297a5b30E
                0x00000000001322db      0x389 ./gen/../rust_opt/target/armv7a-none-eabi/release/libitron.a(core-d049573bc16596f9.core.5587a85061e7188a-cgu.0.rcgu.o)
 .rodata._ZN4core7unicode12unicode_data5cased7OFFSETS17h4d7f7f757bbbcd2fE
                0x0000000000132664      0x13f ./gen/../rust_opt/target/armv7a-none-eabi/release/libitron.a(core-d049573bc16596f9.core.5587a85061e7188a-cgu.0.rcgu.o)
 .rodata._ZN4core7unicode12unicode_data15grapheme_extend7OFFSETS17h10bd76417f3c2fd6E
                0x00000000001327a3      0x2ef ./gen/../rust_opt/target/armv7a-none-eabi/release/libitron.a(core-d049573bc16596f9.core.5587a85061e7188a-cgu.0.rcgu.o)
 .rodata._ZN4core7unicode12unicode_data9lowercase17BITSET_CHUNKS_MAP17hffaf68f0f508fac7E
                0x0000000000132a92       0x7b ./gen/../rust_opt/target/armv7a-none-eabi/release/libitron.a(core-d049573bc16596f9.core.5587a85061e7188a-cgu.0.rcgu.o)
                0x0000000000132a92                core::unicode::unicode_data::lowercase::BITSET_CHUNKS_MAP
 .rodata._ZN4core7unicode12unicode_data1n7OFFSETS17hdb97b96c7cf27088E
                0x0000000000132b0d      0x121 ./gen/../rust_opt/target/armv7a-none-eabi/release/libitron.a(core-d049573bc16596f9.core.5587a85061e7188a-cgu.0.rcgu.o)
 .rodata._ZN4core7unicode12unicode_data9uppercase17BITSET_CHUNKS_MAP17h6b9400355040de03E
                0x0000000000132c2e       0x7d ./gen/../rust_opt/target/armv7a-none-eabi/release/libitron.a(core-d049573bc16596f9.core.5587a85061e7188a-cgu.0.rcgu.o)
                0x0000000000132c2e                core::unicode::unicode_data::uppercase::BITSET_CHUNKS_MAP
 .rodata._ZN4core7unicode12unicode_data11white_space14WHITESPACE_MAP17h2de0024a71532bf3E
                0x0000000000132cab      0x100 ./gen/../rust_opt/target/armv7a-none-eabi/release/libitron.a(core-d049573bc16596f9.core.5587a85061e7188a-cgu.0.rcgu.o)
                0x0000000000132cab                core::unicode::unicode_data::white_space::WHITESPACE_MAP
 *fill*         0x0000000000132dab        0x5 
 .rodata..Lanon.a0506fc3c6b36e5783e71ab63da9841e.0
                0x0000000000132db0       0x80 ./gen/../rust_opt/target/armv7a-none-eabi/release/libitron.a(core-d049573bc16596f9.core.5587a85061e7188a-cgu.0.rcgu.o)
 .rodata..Lanon.a0506fc3c6b36e5783e71ab63da9841e.1
                0x0000000000132e30       0x2b ./gen/../rust_opt/target/armv7a-none-eabi/release/libitron.a(core-d049573bc16596f9.core.5587a85061e7188a-cgu.0.rcgu.o)
 *fill*         0x0000000000132e5b        0x1 
 .rodata..Lanon.a0506fc3c6b36e5783e71ab63da9841e.2
                0x0000000000132e5c       0x10 ./gen/../rust_opt/target/armv7a-none-eabi/release/libitron.a(core-d049573bc16596f9.core.5587a85061e7188a-cgu.0.rcgu.o)
 .rodata..Lanon.a0506fc3c6b36e5783e71ab63da9841e.3
                0x0000000000132e6c       0x10 ./gen/../rust_opt/target/armv7a-none-eabi/release/libitron.a(core-d049573bc16596f9.core.5587a85061e7188a-cgu.0.rcgu.o)
 .rodata..Lanon.a0506fc3c6b36e5783e71ab63da9841e.4
                0x0000000000132e7c       0x10 ./gen/../rust_opt/target/armv7a-none-eabi/release/libitron.a(core-d049573bc16596f9.core.5587a85061e7188a-cgu.0.rcgu.o)
 .rodata..Lanon.a0506fc3c6b36e5783e71ab63da9841e.5
                0x0000000000132e8c       0x10 ./gen/../rust_opt/target/armv7a-none-eabi/release/libitron.a(core-d049573bc16596f9.core.5587a85061e7188a-cgu.0.rcgu.o)
 .rodata..Lanon.a0506fc3c6b36e5783e71ab63da9841e.6
                0x0000000000132e9c       0x10 ./gen/../rust_opt/target/armv7a-none-eabi/release/libitron.a(core-d049573bc16596f9.core.5587a85061e7188a-cgu.0.rcgu.o)
 .rodata..Lanon.a0506fc3c6b36e5783e71ab63da9841e.7
                0x0000000000132eac       0x10 ./gen/../rust_opt/target/armv7a-none-eabi/release/libitron.a(core-d049573bc16596f9.core.5587a85061e7188a-cgu.0.rcgu.o)
 .rodata..Lanon.a0506fc3c6b36e5783e71ab63da9841e.8
                0x0000000000132ebc       0x82 ./gen/../rust_opt/target/armv7a-none-eabi/release/libitron.a(core-d049573bc16596f9.core.5587a85061e7188a-cgu.0.rcgu.o)
 .rodata..Lanon.a0506fc3c6b36e5783e71ab63da9841e.9
                0x0000000000132f3e      0x51c ./gen/../rust_opt/target/armv7a-none-eabi/release/libitron.a(core-d049573bc16596f9.core.5587a85061e7188a-cgu.0.rcgu.o)
 *fill*         0x000000000013345a        0x2 
 .rodata..Lanon.a0506fc3c6b36e5783e71ab63da9841e.10
                0x000000000013345c       0x10 ./gen/../rust_opt/target/armv7a-none-eabi/release/libitron.a(core-d049573bc16596f9.core.5587a85061e7188a-cgu.0.rcgu.o)
 .rodata..Lanon.a0506fc3c6b36e5783e71ab63da9841e.11
                0x000000000013346c       0x10 ./gen/../rust_opt/target/armv7a-none-eabi/release/libitron.a(core-d049573bc16596f9.core.5587a85061e7188a-cgu.0.rcgu.o)
 .rodata.cst16  0x000000000013347c       0x80 ./gen/../rust_opt/target/armv7a-none-eabi/release/libitron.a(core-d049573bc16596f9.core.5587a85061e7188a-cgu.0.rcgu.o)
 .rodata..Lanon.a0506fc3c6b36e5783e71ab63da9841e.13
                0x00000000001334fc       0x40 ./gen/../rust_opt/target/armv7a-none-eabi/release/libitron.a(core-d049573bc16596f9.core.5587a85061e7188a-cgu.0.rcgu.o)
 *fill*         0x000000000013353c        0x4 
 .rodata..Lanon.a0506fc3c6b36e5783e71ab63da9841e.14
                0x0000000000133540      0x100 ./gen/../rust_opt/target/armv7a-none-eabi/release/libitron.a(core-d049573bc16596f9.core.5587a85061e7188a-cgu.0.rcgu.o)
 .rodata..Lanon.a0506fc3c6b36e5783e71ab63da9841e.15
                0x0000000000133640       0x26 ./gen/../rust_opt/target/armv7a-none-eabi/release/libitron.a(core-d049573bc16596f9.core.5587a85061e7188a-cgu.0.rcgu.o)
 *fill*         0x0000000000133666        0x2 
 .rodata..Lanon.a0506fc3c6b36e5783e71ab63da9841e.16
                0x0000000000133668       0x10 ./gen/../rust_opt/target/armv7a-none-eabi/release/libitron.a(core-d049573bc16596f9.core.5587a85061e7188a-cgu.0.rcgu.o)
 .rodata..Lanon.a0506fc3c6b36e5783e71ab63da9841e.17
                0x0000000000133678       0x25 ./gen/../rust_opt/target/armv7a-none-eabi/release/libitron.a(core-d049573bc16596f9.core.5587a85061e7188a-cgu.0.rcgu.o)
 *fill*         0x000000000013369d        0x3 
 .rodata..Lanon.a0506fc3c6b36e5783e71ab63da9841e.18
                0x00000000001336a0       0x10 ./gen/../rust_opt/target/armv7a-none-eabi/release/libitron.a(core-d049573bc16596f9.core.5587a85061e7188a-cgu.0.rcgu.o)
 .rodata..Lanon.a0506fc3c6b36e5783e71ab63da9841e.19
                0x00000000001336b0       0x24 ./gen/../rust_opt/target/armv7a-none-eabi/release/libitron.a(core-d049573bc16596f9.core.5587a85061e7188a-cgu.0.rcgu.o)
 .rodata..Lanon.a0506fc3c6b36e5783e71ab63da9841e.20
                0x00000000001336d4       0x15 ./gen/../rust_opt/target/armv7a-none-eabi/release/libitron.a(core-d049573bc16596f9.core.5587a85061e7188a-cgu.0.rcgu.o)
 .rodata..Lanon.a0506fc3c6b36e5783e71ab63da9841e.21
                0x00000000001336e9       0x1d ./gen/../rust_opt/target/armv7a-none-eabi/release/libitron.a(core-d049573bc16596f9.core.5587a85061e7188a-cgu.0.rcgu.o)
 .rodata..Lanon.a0506fc3c6b36e5783e71ab63da9841e.22
                0x0000000000133706       0x21 ./gen/../rust_opt/target/armv7a-none-eabi/release/libitron.a(core-d049573bc16596f9.core.5587a85061e7188a-cgu.0.rcgu.o)
 *fill*         0x0000000000133727        0x1 
 .rodata..Lanon.a0506fc3c6b36e5783e71ab63da9841e.23
                0x0000000000133728       0x10 ./gen/../rust_opt/target/armv7a-none-eabi/release/libitron.a(core-d049573bc16596f9.core.5587a85061e7188a-cgu.0.rcgu.o)
 .rodata..Lanon.a0506fc3c6b36e5783e71ab63da9841e.24
                0x0000000000133738       0x10 ./gen/../rust_opt/target/armv7a-none-eabi/release/libitron.a(core-d049573bc16596f9.core.5587a85061e7188a-cgu.0.rcgu.o)
 .rodata._ZN4core3num7flt2dec8strategy6dragon8POW5TO1617h9aa120b17aa06f22E
                0x0000000000133748        0x8 ./gen/../rust_opt/target/armv7a-none-eabi/release/libitron.a(core-d049573bc16596f9.core.5587a85061e7188a-cgu.0.rcgu.o)
 .rodata._ZN4core3num7flt2dec8strategy6dragon8POW5TO3217hd052c03e770190b7E
                0x0000000000133750        0xc ./gen/../rust_opt/target/armv7a-none-eabi/release/libitron.a(core-d049573bc16596f9.core.5587a85061e7188a-cgu.0.rcgu.o)
 .rodata._ZN4core3num7flt2dec8strategy6dragon8POW5TO6417h2dc1159c29093a1eE
                0x000000000013375c       0x14 ./gen/../rust_opt/target/armv7a-none-eabi/release/libitron.a(core-d049573bc16596f9.core.5587a85061e7188a-cgu.0.rcgu.o)
 .rodata._ZN4core3num7flt2dec8strategy6dragon9POW5TO12817ha974d5882b6b5763E
                0x0000000000133770       0x28 ./gen/../rust_opt/target/armv7a-none-eabi/release/libitron.a(core-d049573bc16596f9.core.5587a85061e7188a-cgu.0.rcgu.o)
 .rodata._ZN4core3num7flt2dec8strategy6dragon9POW5TO25617hec924f6a1e1f056cE
                0x0000000000133798       0x4c ./gen/../rust_opt/target/armv7a-none-eabi/release/libitron.a(core-d049573bc16596f9.core.5587a85061e7188a-cgu.0.rcgu.o)
 .rodata..Lanon.a0506fc3c6b36e5783e71ab63da9841e.25
                0x00000000001337e4       0x2f ./gen/../rust_opt/target/armv7a-none-eabi/release/libitron.a(core-d049573bc16596f9.core.5587a85061e7188a-cgu.0.rcgu.o)
 .rodata..Lanon.a0506fc3c6b36e5783e71ab63da9841e.26
                0x0000000000133813       0x1c ./gen/../rust_opt/target/armv7a-none-eabi/release/libitron.a(core-d049573bc16596f9.core.5587a85061e7188a-cgu.0.rcgu.o)
 *fill*         0x000000000013382f        0x1 
 .rodata..Lanon.a0506fc3c6b36e5783e71ab63da9841e.27
                0x0000000000133830       0x10 ./gen/../rust_opt/target/armv7a-none-eabi/release/libitron.a(core-d049573bc16596f9.core.5587a85061e7188a-cgu.0.rcgu.o)
 .rodata..Lanon.a0506fc3c6b36e5783e71ab63da9841e.28
                0x0000000000133840       0x1d ./gen/../rust_opt/target/armv7a-none-eabi/release/libitron.a(core-d049573bc16596f9.core.5587a85061e7188a-cgu.0.rcgu.o)
 *fill*         0x000000000013385d        0x3 
 .rodata..Lanon.a0506fc3c6b36e5783e71ab63da9841e.29
                0x0000000000133860       0x10 ./gen/../rust_opt/target/armv7a-none-eabi/release/libitron.a(core-d049573bc16596f9.core.5587a85061e7188a-cgu.0.rcgu.o)
 .rodata..Lanon.a0506fc3c6b36e5783e71ab63da9841e.30
                0x0000000000133870       0x1c ./gen/../rust_opt/target/armv7a-none-eabi/release/libitron.a(core-d049573bc16596f9.core.5587a85061e7188a-cgu.0.rcgu.o)
 .rodata..Lanon.a0506fc3c6b36e5783e71ab63da9841e.31
                0x000000000013388c       0x10 ./gen/../rust_opt/target/armv7a-none-eabi/release/libitron.a(core-d049573bc16596f9.core.5587a85061e7188a-cgu.0.rcgu.o)
 .rodata..Lanon.a0506fc3c6b36e5783e71ab63da9841e.32
                0x000000000013389c       0x2d ./gen/../rust_opt/target/armv7a-none-eabi/release/libitron.a(core-d049573bc16596f9.core.5587a85061e7188a-cgu.0.rcgu.o)
 *fill*         0x00000000001338c9        0x3 
 .rodata..Lanon.a0506fc3c6b36e5783e71ab63da9841e.33
                0x00000000001338cc       0x10 ./gen/../rust_opt/target/armv7a-none-eabi/release/libitron.a(core-d049573bc16596f9.core.5587a85061e7188a-cgu.0.rcgu.o)
 .rodata..Lanon.a0506fc3c6b36e5783e71ab63da9841e.34
                0x00000000001338dc       0x10 ./gen/../rust_opt/target/armv7a-none-eabi/release/libitron.a(core-d049573bc16596f9.core.5587a85061e7188a-cgu.0.rcgu.o)
 .rodata..Lanon.a0506fc3c6b36e5783e71ab63da9841e.35
                0x00000000001338ec       0x10 ./gen/../rust_opt/target/armv7a-none-eabi/release/libitron.a(core-d049573bc16596f9.core.5587a85061e7188a-cgu.0.rcgu.o)
 .rodata..Lanon.a0506fc3c6b36e5783e71ab63da9841e.36
                0x00000000001338fc       0x10 ./gen/../rust_opt/target/armv7a-none-eabi/release/libitron.a(core-d049573bc16596f9.core.5587a85061e7188a-cgu.0.rcgu.o)
 .rodata..Lanon.a0506fc3c6b36e5783e71ab63da9841e.37
                0x000000000013390c       0x37 ./gen/../rust_opt/target/armv7a-none-eabi/release/libitron.a(core-d049573bc16596f9.core.5587a85061e7188a-cgu.0.rcgu.o)
 *fill*         0x0000000000133943        0x1 
 .rodata..Lanon.a0506fc3c6b36e5783e71ab63da9841e.38
                0x0000000000133944       0x10 ./gen/../rust_opt/target/armv7a-none-eabi/release/libitron.a(core-d049573bc16596f9.core.5587a85061e7188a-cgu.0.rcgu.o)
 .rodata..Lanon.a0506fc3c6b36e5783e71ab63da9841e.39
                0x0000000000133954       0x36 ./gen/../rust_opt/target/armv7a-none-eabi/release/libitron.a(core-d049573bc16596f9.core.5587a85061e7188a-cgu.0.rcgu.o)
 *fill*         0x000000000013398a        0x2 
 .rodata..Lanon.a0506fc3c6b36e5783e71ab63da9841e.40
                0x000000000013398c       0x10 ./gen/../rust_opt/target/armv7a-none-eabi/release/libitron.a(core-d049573bc16596f9.core.5587a85061e7188a-cgu.0.rcgu.o)
 .rodata..Lanon.a0506fc3c6b36e5783e71ab63da9841e.41
                0x000000000013399c       0x10 ./gen/../rust_opt/target/armv7a-none-eabi/release/libitron.a(core-d049573bc16596f9.core.5587a85061e7188a-cgu.0.rcgu.o)
 .rodata..Lanon.a0506fc3c6b36e5783e71ab63da9841e.42
                0x00000000001339ac       0x10 ./gen/../rust_opt/target/armv7a-none-eabi/release/libitron.a(core-d049573bc16596f9.core.5587a85061e7188a-cgu.0.rcgu.o)
 .rodata..Lanon.a0506fc3c6b36e5783e71ab63da9841e.43
                0x00000000001339bc       0x10 ./gen/../rust_opt/target/armv7a-none-eabi/release/libitron.a(core-d049573bc16596f9.core.5587a85061e7188a-cgu.0.rcgu.o)
 .rodata..Lanon.a0506fc3c6b36e5783e71ab63da9841e.44
                0x00000000001339cc       0x10 ./gen/../rust_opt/target/armv7a-none-eabi/release/libitron.a(core-d049573bc16596f9.core.5587a85061e7188a-cgu.0.rcgu.o)
 .rodata..Lanon.a0506fc3c6b36e5783e71ab63da9841e.45
                0x00000000001339dc       0x10 ./gen/../rust_opt/target/armv7a-none-eabi/release/libitron.a(core-d049573bc16596f9.core.5587a85061e7188a-cgu.0.rcgu.o)
 .rodata..Lanon.a0506fc3c6b36e5783e71ab63da9841e.46
                0x00000000001339ec       0x10 ./gen/../rust_opt/target/armv7a-none-eabi/release/libitron.a(core-d049573bc16596f9.core.5587a85061e7188a-cgu.0.rcgu.o)
 .rodata..Lanon.a0506fc3c6b36e5783e71ab63da9841e.47
                0x00000000001339fc       0x10 ./gen/../rust_opt/target/armv7a-none-eabi/release/libitron.a(core-d049573bc16596f9.core.5587a85061e7188a-cgu.0.rcgu.o)
 .rodata..Lanon.a0506fc3c6b36e5783e71ab63da9841e.48
                0x0000000000133a0c       0x10 ./gen/../rust_opt/target/armv7a-none-eabi/release/libitron.a(core-d049573bc16596f9.core.5587a85061e7188a-cgu.0.rcgu.o)
 .rodata..Lanon.a0506fc3c6b36e5783e71ab63da9841e.49
                0x0000000000133a1c       0x10 ./gen/../rust_opt/target/armv7a-none-eabi/release/libitron.a(core-d049573bc16596f9.core.5587a85061e7188a-cgu.0.rcgu.o)
 .rodata..Lanon.a0506fc3c6b36e5783e71ab63da9841e.50
                0x0000000000133a2c       0x10 ./gen/../rust_opt/target/armv7a-none-eabi/release/libitron.a(core-d049573bc16596f9.core.5587a85061e7188a-cgu.0.rcgu.o)
 *fill*         0x0000000000133a3c        0x4 
 .rodata._ZN4core3num7flt2dec8strategy5grisu12CACHED_POW1017h9e7e1a5908bb56b3E
                0x0000000000133a40      0x510 ./gen/../rust_opt/target/armv7a-none-eabi/release/libitron.a(core-d049573bc16596f9.core.5587a85061e7188a-cgu.0.rcgu.o)
                0x0000000000133a40                core::num::flt2dec::strategy::grisu::CACHED_POW10
 .rodata..Lanon.a0506fc3c6b36e5783e71ab63da9841e.51
                0x0000000000133f50       0x2e ./gen/../rust_opt/target/armv7a-none-eabi/release/libitron.a(core-d049573bc16596f9.core.5587a85061e7188a-cgu.0.rcgu.o)
 *fill*         0x0000000000133f7e        0x2 
 .rodata..Lanon.a0506fc3c6b36e5783e71ab63da9841e.52
                0x0000000000133f80       0x10 ./gen/../rust_opt/target/armv7a-none-eabi/release/libitron.a(core-d049573bc16596f9.core.5587a85061e7188a-cgu.0.rcgu.o)
 .rodata..Lanon.a0506fc3c6b36e5783e71ab63da9841e.53
                0x0000000000133f90       0x10 ./gen/../rust_opt/target/armv7a-none-eabi/release/libitron.a(core-d049573bc16596f9.core.5587a85061e7188a-cgu.0.rcgu.o)
 .rodata..Lanon.a0506fc3c6b36e5783e71ab63da9841e.54
                0x0000000000133fa0       0x10 ./gen/../rust_opt/target/armv7a-none-eabi/release/libitron.a(core-d049573bc16596f9.core.5587a85061e7188a-cgu.0.rcgu.o)
 .rodata..Lanon.a0506fc3c6b36e5783e71ab63da9841e.55
                0x0000000000133fb0       0x10 ./gen/../rust_opt/target/armv7a-none-eabi/release/libitron.a(core-d049573bc16596f9.core.5587a85061e7188a-cgu.0.rcgu.o)
 .rodata..Lanon.a0506fc3c6b36e5783e71ab63da9841e.56
                0x0000000000133fc0       0x10 ./gen/../rust_opt/target/armv7a-none-eabi/release/libitron.a(core-d049573bc16596f9.core.5587a85061e7188a-cgu.0.rcgu.o)
 .rodata..Lanon.a0506fc3c6b36e5783e71ab63da9841e.57
                0x0000000000133fd0       0x2d ./gen/../rust_opt/target/armv7a-none-eabi/release/libitron.a(core-d049573bc16596f9.core.5587a85061e7188a-cgu.0.rcgu.o)
 *fill*         0x0000000000133ffd        0x3 
 .rodata..Lanon.a0506fc3c6b36e5783e71ab63da9841e.58
                0x0000000000134000       0x10 ./gen/../rust_opt/target/armv7a-none-eabi/release/libitron.a(core-d049573bc16596f9.core.5587a85061e7188a-cgu.0.rcgu.o)
 .rodata..Lanon.a0506fc3c6b36e5783e71ab63da9841e.59
                0x0000000000134010       0x10 ./gen/../rust_opt/target/armv7a-none-eabi/release/libitron.a(core-d049573bc16596f9.core.5587a85061e7188a-cgu.0.rcgu.o)
 .rodata..Lanon.a0506fc3c6b36e5783e71ab63da9841e.60
                0x0000000000134020       0x10 ./gen/../rust_opt/target/armv7a-none-eabi/release/libitron.a(core-d049573bc16596f9.core.5587a85061e7188a-cgu.0.rcgu.o)
 .rodata..Lanon.a0506fc3c6b36e5783e71ab63da9841e.61
                0x0000000000134030       0x10 ./gen/../rust_opt/target/armv7a-none-eabi/release/libitron.a(core-d049573bc16596f9.core.5587a85061e7188a-cgu.0.rcgu.o)
 .rodata..Lanon.a0506fc3c6b36e5783e71ab63da9841e.62
                0x0000000000134040       0x10 ./gen/../rust_opt/target/armv7a-none-eabi/release/libitron.a(core-d049573bc16596f9.core.5587a85061e7188a-cgu.0.rcgu.o)
 .rodata..Lanon.a0506fc3c6b36e5783e71ab63da9841e.63
                0x0000000000134050       0x10 ./gen/../rust_opt/target/armv7a-none-eabi/release/libitron.a(core-d049573bc16596f9.core.5587a85061e7188a-cgu.0.rcgu.o)
 .rodata..Lanon.a0506fc3c6b36e5783e71ab63da9841e.64
                0x0000000000134060       0x21 ./gen/../rust_opt/target/armv7a-none-eabi/release/libitron.a(core-d049573bc16596f9.core.5587a85061e7188a-cgu.0.rcgu.o)
 *fill*         0x0000000000134081        0x3 
 .rodata..Lanon.a0506fc3c6b36e5783e71ab63da9841e.65
                0x0000000000134084       0x10 ./gen/../rust_opt/target/armv7a-none-eabi/release/libitron.a(core-d049573bc16596f9.core.5587a85061e7188a-cgu.0.rcgu.o)
 .rodata..Lanon.a0506fc3c6b36e5783e71ab63da9841e.66
                0x0000000000134094       0x24 ./gen/../rust_opt/target/armv7a-none-eabi/release/libitron.a(core-d049573bc16596f9.core.5587a85061e7188a-cgu.0.rcgu.o)
 .rodata..Lanon.a0506fc3c6b36e5783e71ab63da9841e.67
                0x00000000001340b8       0x10 ./gen/../rust_opt/target/armv7a-none-eabi/release/libitron.a(core-d049573bc16596f9.core.5587a85061e7188a-cgu.0.rcgu.o)
 .rodata..Lanon.a0506fc3c6b36e5783e71ab63da9841e.68
                0x00000000001340c8       0x10 ./gen/../rust_opt/target/armv7a-none-eabi/release/libitron.a(core-d049573bc16596f9.core.5587a85061e7188a-cgu.0.rcgu.o)
 .rodata..Lanon.a0506fc3c6b36e5783e71ab63da9841e.69
                0x00000000001340d8       0x28 ./gen/../rust_opt/target/armv7a-none-eabi/release/libitron.a(core-d049573bc16596f9.core.5587a85061e7188a-cgu.0.rcgu.o)
 .rodata..Lanon.a0506fc3c6b36e5783e71ab63da9841e.70
                0x0000000000134100       0x10 ./gen/../rust_opt/target/armv7a-none-eabi/release/libitron.a(core-d049573bc16596f9.core.5587a85061e7188a-cgu.0.rcgu.o)
 .rodata..Lanon.a0506fc3c6b36e5783e71ab63da9841e.71
                0x0000000000134110       0x10 ./gen/../rust_opt/target/armv7a-none-eabi/release/libitron.a(core-d049573bc16596f9.core.5587a85061e7188a-cgu.0.rcgu.o)
 .rodata..Lanon.a0506fc3c6b36e5783e71ab63da9841e.72
                0x0000000000134120       0x10 ./gen/../rust_opt/target/armv7a-none-eabi/release/libitron.a(core-d049573bc16596f9.core.5587a85061e7188a-cgu.0.rcgu.o)
 .rodata..Lanon.a0506fc3c6b36e5783e71ab63da9841e.73
                0x0000000000134130       0x10 ./gen/../rust_opt/target/armv7a-none-eabi/release/libitron.a(core-d049573bc16596f9.core.5587a85061e7188a-cgu.0.rcgu.o)
 .rodata..Lanon.a0506fc3c6b36e5783e71ab63da9841e.74
                0x0000000000134140       0x10 ./gen/../rust_opt/target/armv7a-none-eabi/release/libitron.a(core-d049573bc16596f9.core.5587a85061e7188a-cgu.0.rcgu.o)
 .rodata..Lanon.a0506fc3c6b36e5783e71ab63da9841e.75
                0x0000000000134150       0x10 ./gen/../rust_opt/target/armv7a-none-eabi/release/libitron.a(core-d049573bc16596f9.core.5587a85061e7188a-cgu.0.rcgu.o)
 .rodata..Lanon.a0506fc3c6b36e5783e71ab63da9841e.76
                0x0000000000134160       0x23 ./gen/../rust_opt/target/armv7a-none-eabi/release/libitron.a(core-d049573bc16596f9.core.5587a85061e7188a-cgu.0.rcgu.o)
 *fill*         0x0000000000134183        0x1 
 .rodata..Lanon.a0506fc3c6b36e5783e71ab63da9841e.77
                0x0000000000134184       0x10 ./gen/../rust_opt/target/armv7a-none-eabi/release/libitron.a(core-d049573bc16596f9.core.5587a85061e7188a-cgu.0.rcgu.o)
 .rodata..Lanon.a0506fc3c6b36e5783e71ab63da9841e.78
                0x0000000000134194       0x1f ./gen/../rust_opt/target/armv7a-none-eabi/release/libitron.a(core-d049573bc16596f9.core.5587a85061e7188a-cgu.0.rcgu.o)
 *fill*         0x00000000001341b3        0x1 
 .rodata..Lanon.a0506fc3c6b36e5783e71ab63da9841e.79
                0x00000000001341b4       0x10 ./gen/../rust_opt/target/armv7a-none-eabi/release/libitron.a(core-d049573bc16596f9.core.5587a85061e7188a-cgu.0.rcgu.o)
 .rodata..Lanon.a0506fc3c6b36e5783e71ab63da9841e.80
                0x00000000001341c4       0x22 ./gen/../rust_opt/target/armv7a-none-eabi/release/libitron.a(core-d049573bc16596f9.core.5587a85061e7188a-cgu.0.rcgu.o)
 *fill*         0x00000000001341e6        0x2 
 .rodata..Lanon.a0506fc3c6b36e5783e71ab63da9841e.81
                0x00000000001341e8       0x10 ./gen/../rust_opt/target/armv7a-none-eabi/release/libitron.a(core-d049573bc16596f9.core.5587a85061e7188a-cgu.0.rcgu.o)
 .rodata..Lanon.a0506fc3c6b36e5783e71ab63da9841e.82
                0x00000000001341f8        0x1 ./gen/../rust_opt/target/armv7a-none-eabi/release/libitron.a(core-d049573bc16596f9.core.5587a85061e7188a-cgu.0.rcgu.o)
 .rodata..Lanon.a0506fc3c6b36e5783e71ab63da9841e.83
                0x00000000001341f9        0x2 ./gen/../rust_opt/target/armv7a-none-eabi/release/libitron.a(core-d049573bc16596f9.core.5587a85061e7188a-cgu.0.rcgu.o)
 *fill*         0x00000000001341fb        0x1 
 .rodata..Lanon.a0506fc3c6b36e5783e71ab63da9841e.84
                0x00000000001341fc       0x10 ./gen/../rust_opt/target/armv7a-none-eabi/release/libitron.a(core-d049573bc16596f9.core.5587a85061e7188a-cgu.0.rcgu.o)
 .rodata..Lanon.a0506fc3c6b36e5783e71ab63da9841e.85
                0x000000000013420c       0x10 ./gen/../rust_opt/target/armv7a-none-eabi/release/libitron.a(core-d049573bc16596f9.core.5587a85061e7188a-cgu.0.rcgu.o)
 .rodata..Lanon.a0506fc3c6b36e5783e71ab63da9841e.86
                0x000000000013421c       0x22 ./gen/../rust_opt/target/armv7a-none-eabi/release/libitron.a(core-d049573bc16596f9.core.5587a85061e7188a-cgu.0.rcgu.o)
 *fill*         0x000000000013423e        0x2 
 .rodata..Lanon.a0506fc3c6b36e5783e71ab63da9841e.87
                0x0000000000134240       0x10 ./gen/../rust_opt/target/armv7a-none-eabi/release/libitron.a(core-d049573bc16596f9.core.5587a85061e7188a-cgu.0.rcgu.o)
 .rodata..Lanon.a0506fc3c6b36e5783e71ab63da9841e.88
                0x0000000000134250        0x1 ./gen/../rust_opt/target/armv7a-none-eabi/release/libitron.a(core-d049573bc16596f9.core.5587a85061e7188a-cgu.0.rcgu.o)
 .rodata..Lanon.a0506fc3c6b36e5783e71ab63da9841e.89
                0x0000000000134251        0x1 ./gen/../rust_opt/target/armv7a-none-eabi/release/libitron.a(core-d049573bc16596f9.core.5587a85061e7188a-cgu.0.rcgu.o)
 .rodata..Lanon.a0506fc3c6b36e5783e71ab63da9841e.90
                0x0000000000134252        0x2 ./gen/../rust_opt/target/armv7a-none-eabi/release/libitron.a(core-d049573bc16596f9.core.5587a85061e7188a-cgu.0.rcgu.o)
 .rodata..Lanon.a0506fc3c6b36e5783e71ab63da9841e.91
                0x0000000000134254        0x2 ./gen/../rust_opt/target/armv7a-none-eabi/release/libitron.a(core-d049573bc16596f9.core.5587a85061e7188a-cgu.0.rcgu.o)
 .rodata..Lanon.a0506fc3c6b36e5783e71ab63da9841e.92
                0x0000000000134256        0x1 ./gen/../rust_opt/target/armv7a-none-eabi/release/libitron.a(core-d049573bc16596f9.core.5587a85061e7188a-cgu.0.rcgu.o)
 .rodata..Lanon.a0506fc3c6b36e5783e71ab63da9841e.93
                0x0000000000134257        0x1 ./gen/../rust_opt/target/armv7a-none-eabi/release/libitron.a(core-d049573bc16596f9.core.5587a85061e7188a-cgu.0.rcgu.o)
 .rodata..Lanon.a0506fc3c6b36e5783e71ab63da9841e.94
                0x0000000000134258        0x3 ./gen/../rust_opt/target/armv7a-none-eabi/release/libitron.a(core-d049573bc16596f9.core.5587a85061e7188a-cgu.0.rcgu.o)
 .rodata..Lanon.a0506fc3c6b36e5783e71ab63da9841e.95
                0x000000000013425b        0x3 ./gen/../rust_opt/target/armv7a-none-eabi/release/libitron.a(core-d049573bc16596f9.core.5587a85061e7188a-cgu.0.rcgu.o)
 .rodata..Lanon.a0506fc3c6b36e5783e71ab63da9841e.96
                0x000000000013425e        0x1 ./gen/../rust_opt/target/armv7a-none-eabi/release/libitron.a(core-d049573bc16596f9.core.5587a85061e7188a-cgu.0.rcgu.o)
 .rodata..Lanon.a0506fc3c6b36e5783e71ab63da9841e.97
                0x000000000013425f        0x3 ./gen/../rust_opt/target/armv7a-none-eabi/release/libitron.a(core-d049573bc16596f9.core.5587a85061e7188a-cgu.0.rcgu.o)
 .rodata..Lanon.a0506fc3c6b36e5783e71ab63da9841e.98
                0x0000000000134262        0x3 ./gen/../rust_opt/target/armv7a-none-eabi/release/libitron.a(core-d049573bc16596f9.core.5587a85061e7188a-cgu.0.rcgu.o)
 .rodata..Lanon.a0506fc3c6b36e5783e71ab63da9841e.99
                0x0000000000134265       0x1d ./gen/../rust_opt/target/armv7a-none-eabi/release/libitron.a(core-d049573bc16596f9.core.5587a85061e7188a-cgu.0.rcgu.o)
 *fill*         0x0000000000134282        0x2 
 .rodata..Lanon.a0506fc3c6b36e5783e71ab63da9841e.100
                0x0000000000134284       0x10 ./gen/../rust_opt/target/armv7a-none-eabi/release/libitron.a(core-d049573bc16596f9.core.5587a85061e7188a-cgu.0.rcgu.o)
 .rodata..Lanon.a0506fc3c6b36e5783e71ab63da9841e.101
                0x0000000000134294        0x2 ./gen/../rust_opt/target/armv7a-none-eabi/release/libitron.a(core-d049573bc16596f9.core.5587a85061e7188a-cgu.0.rcgu.o)
 .rodata..Lanon.a0506fc3c6b36e5783e71ab63da9841e.102
                0x0000000000134296        0x2 ./gen/../rust_opt/target/armv7a-none-eabi/release/libitron.a(core-d049573bc16596f9.core.5587a85061e7188a-cgu.0.rcgu.o)
 .rodata..Lanon.a0506fc3c6b36e5783e71ab63da9841e.103
                0x0000000000134298       0x3d ./gen/../rust_opt/target/armv7a-none-eabi/release/libitron.a(core-d049573bc16596f9.core.5587a85061e7188a-cgu.0.rcgu.o)
 *fill*         0x00000000001342d5        0x3 
 .rodata..Lanon.a0506fc3c6b36e5783e71ab63da9841e.104
                0x00000000001342d8       0x10 ./gen/../rust_opt/target/armv7a-none-eabi/release/libitron.a(core-d049573bc16596f9.core.5587a85061e7188a-cgu.0.rcgu.o)
 .rodata..Lanon.a0506fc3c6b36e5783e71ab63da9841e.105
                0x00000000001342e8       0x10 ./gen/../rust_opt/target/armv7a-none-eabi/release/libitron.a(core-d049573bc16596f9.core.5587a85061e7188a-cgu.0.rcgu.o)
 .rodata..Lanon.a0506fc3c6b36e5783e71ab63da9841e.106
                0x00000000001342f8       0x25 ./gen/../rust_opt/target/armv7a-none-eabi/release/libitron.a(core-d049573bc16596f9.core.5587a85061e7188a-cgu.0.rcgu.o)
 *fill*         0x000000000013431d        0x3 
 .rodata..Lanon.a0506fc3c6b36e5783e71ab63da9841e.107
                0x0000000000134320       0x10 ./gen/../rust_opt/target/armv7a-none-eabi/release/libitron.a(core-d049573bc16596f9.core.5587a85061e7188a-cgu.0.rcgu.o)
 .rodata..Lanon.a0506fc3c6b36e5783e71ab63da9841e.108
                0x0000000000134330       0x1b ./gen/../rust_opt/target/armv7a-none-eabi/release/libitron.a(core-d049573bc16596f9.core.5587a85061e7188a-cgu.0.rcgu.o)
 *fill*         0x000000000013434b        0x1 
 .rodata..Lanon.a0506fc3c6b36e5783e71ab63da9841e.109
                0x000000000013434c       0x10 ./gen/../rust_opt/target/armv7a-none-eabi/release/libitron.a(core-d049573bc16596f9.core.5587a85061e7188a-cgu.0.rcgu.o)
 .rodata..Lanon.a0506fc3c6b36e5783e71ab63da9841e.110
                0x000000000013435c       0x10 ./gen/../rust_opt/target/armv7a-none-eabi/release/libitron.a(core-d049573bc16596f9.core.5587a85061e7188a-cgu.0.rcgu.o)
 .rodata..Lanon.a0506fc3c6b36e5783e71ab63da9841e.111
                0x000000000013436c       0x10 ./gen/../rust_opt/target/armv7a-none-eabi/release/libitron.a(core-d049573bc16596f9.core.5587a85061e7188a-cgu.0.rcgu.o)
 .rodata..Lanon.a0506fc3c6b36e5783e71ab63da9841e.112
                0x000000000013437c       0x2f ./gen/../rust_opt/target/armv7a-none-eabi/release/libitron.a(core-d049573bc16596f9.core.5587a85061e7188a-cgu.0.rcgu.o)
 .rodata..Lanon.a0506fc3c6b36e5783e71ab63da9841e.113
                0x00000000001343ab       0x26 ./gen/../rust_opt/target/armv7a-none-eabi/release/libitron.a(core-d049573bc16596f9.core.5587a85061e7188a-cgu.0.rcgu.o)
 .rodata..Lanon.a0506fc3c6b36e5783e71ab63da9841e.114
                0x00000000001343d1       0x1d ./gen/../rust_opt/target/armv7a-none-eabi/release/libitron.a(core-d049573bc16596f9.core.5587a85061e7188a-cgu.0.rcgu.o)
 .rodata..Lanon.a0506fc3c6b36e5783e71ab63da9841e.115
                0x00000000001343ee       0x26 ./gen/../rust_opt/target/armv7a-none-eabi/release/libitron.a(core-d049573bc16596f9.core.5587a85061e7188a-cgu.0.rcgu.o)
 .rodata..Lanon.a0506fc3c6b36e5783e71ab63da9841e.116
                0x0000000000134414       0x26 ./gen/../rust_opt/target/armv7a-none-eabi/release/libitron.a(core-d049573bc16596f9.core.5587a85061e7188a-cgu.0.rcgu.o)
 .rodata..Lanon.a0506fc3c6b36e5783e71ab63da9841e.117
                0x000000000013443a       0x26 ./gen/../rust_opt/target/armv7a-none-eabi/release/libitron.a(core-d049573bc16596f9.core.5587a85061e7188a-cgu.0.rcgu.o)
 .rodata..Lanon.a0506fc3c6b36e5783e71ab63da9841e.118
                0x0000000000134460       0x2e ./gen/../rust_opt/target/armv7a-none-eabi/release/libitron.a(core-d049573bc16596f9.core.5587a85061e7188a-cgu.0.rcgu.o)
 *fill*         0x000000000013448e        0x2 
 .rodata..Lanon.a0506fc3c6b36e5783e71ab63da9841e.119
                0x0000000000134490        0x8 ./gen/../rust_opt/target/armv7a-none-eabi/release/libitron.a(core-d049573bc16596f9.core.5587a85061e7188a-cgu.0.rcgu.o)
 .rodata..Lanon.a0506fc3c6b36e5783e71ab63da9841e.120
                0x0000000000134498       0x32 ./gen/../rust_opt/target/armv7a-none-eabi/release/libitron.a(core-d049573bc16596f9.core.5587a85061e7188a-cgu.0.rcgu.o)
 *fill*         0x00000000001344ca        0x2 
 .rodata..Lanon.a0506fc3c6b36e5783e71ab63da9841e.121
                0x00000000001344cc        0x8 ./gen/../rust_opt/target/armv7a-none-eabi/release/libitron.a(core-d049573bc16596f9.core.5587a85061e7188a-cgu.0.rcgu.o)
 .rodata..Lanon.a0506fc3c6b36e5783e71ab63da9841e.122
                0x00000000001344d4       0x1c ./gen/../rust_opt/target/armv7a-none-eabi/release/libitron.a(core-d049573bc16596f9.core.5587a85061e7188a-cgu.0.rcgu.o)
 .rodata..Lanon.a0506fc3c6b36e5783e71ab63da9841e.123
                0x00000000001344f0        0x8 ./gen/../rust_opt/target/armv7a-none-eabi/release/libitron.a(core-d049573bc16596f9.core.5587a85061e7188a-cgu.0.rcgu.o)
 .rodata..Lanon.a0506fc3c6b36e5783e71ab63da9841e.124
                0x00000000001344f8       0x21 ./gen/../rust_opt/target/armv7a-none-eabi/release/libitron.a(core-d049573bc16596f9.core.5587a85061e7188a-cgu.0.rcgu.o)
 *fill*         0x0000000000134519        0x3 
 .rodata..Lanon.a0506fc3c6b36e5783e71ab63da9841e.125
                0x000000000013451c        0x8 ./gen/../rust_opt/target/armv7a-none-eabi/release/libitron.a(core-d049573bc16596f9.core.5587a85061e7188a-cgu.0.rcgu.o)
 .rodata..Lanon.a0506fc3c6b36e5783e71ab63da9841e.126
                0x0000000000134524       0x21 ./gen/../rust_opt/target/armv7a-none-eabi/release/libitron.a(core-d049573bc16596f9.core.5587a85061e7188a-cgu.0.rcgu.o)
 *fill*         0x0000000000134545        0x3 
 .rodata..Lanon.a0506fc3c6b36e5783e71ab63da9841e.127
                0x0000000000134548        0x8 ./gen/../rust_opt/target/armv7a-none-eabi/release/libitron.a(core-d049573bc16596f9.core.5587a85061e7188a-cgu.0.rcgu.o)
 .rodata..Lanon.a0506fc3c6b36e5783e71ab63da9841e.128
                0x0000000000134550       0x1f ./gen/../rust_opt/target/armv7a-none-eabi/release/libitron.a(core-d049573bc16596f9.core.5587a85061e7188a-cgu.0.rcgu.o)
 *fill*         0x000000000013456f        0x1 
 .rodata..Lanon.a0506fc3c6b36e5783e71ab63da9841e.129
                0x0000000000134570        0x8 ./gen/../rust_opt/target/armv7a-none-eabi/release/libitron.a(core-d049573bc16596f9.core.5587a85061e7188a-cgu.0.rcgu.o)
 .rodata..Lanon.a0506fc3c6b36e5783e71ab63da9841e.130
                0x0000000000134578       0x30 ./gen/../rust_opt/target/armv7a-none-eabi/release/libitron.a(core-d049573bc16596f9.core.5587a85061e7188a-cgu.0.rcgu.o)
 .rodata..Lanon.a0506fc3c6b36e5783e71ab63da9841e.131
                0x00000000001345a8        0x8 ./gen/../rust_opt/target/armv7a-none-eabi/release/libitron.a(core-d049573bc16596f9.core.5587a85061e7188a-cgu.0.rcgu.o)
 .rodata..Lanon.a0506fc3c6b36e5783e71ab63da9841e.132
                0x00000000001345b0       0x1f ./gen/../rust_opt/target/armv7a-none-eabi/release/libitron.a(core-d049573bc16596f9.core.5587a85061e7188a-cgu.0.rcgu.o)
 *fill*         0x00000000001345cf        0x1 
 .rodata..Lanon.a0506fc3c6b36e5783e71ab63da9841e.133
                0x00000000001345d0        0x8 ./gen/../rust_opt/target/armv7a-none-eabi/release/libitron.a(core-d049573bc16596f9.core.5587a85061e7188a-cgu.0.rcgu.o)
 .rodata..Lanon.a0506fc3c6b36e5783e71ab63da9841e.134
                0x00000000001345d8       0x24 ./gen/../rust_opt/target/armv7a-none-eabi/release/libitron.a(core-d049573bc16596f9.core.5587a85061e7188a-cgu.0.rcgu.o)
 .rodata..Lanon.a0506fc3c6b36e5783e71ab63da9841e.135
                0x00000000001345fc        0x8 ./gen/../rust_opt/target/armv7a-none-eabi/release/libitron.a(core-d049573bc16596f9.core.5587a85061e7188a-cgu.0.rcgu.o)
 .rodata..Lanon.a0506fc3c6b36e5783e71ab63da9841e.136
                0x0000000000134604       0x23 ./gen/../rust_opt/target/armv7a-none-eabi/release/libitron.a(core-d049573bc16596f9.core.5587a85061e7188a-cgu.0.rcgu.o)
 *fill*         0x0000000000134627        0x1 
 .rodata..Lanon.a0506fc3c6b36e5783e71ab63da9841e.137
                0x0000000000134628        0x8 ./gen/../rust_opt/target/armv7a-none-eabi/release/libitron.a(core-d049573bc16596f9.core.5587a85061e7188a-cgu.0.rcgu.o)
 .rodata..Lanon.a0506fc3c6b36e5783e71ab63da9841e.138
                0x0000000000134630        0x7 ./gen/../rust_opt/target/armv7a-none-eabi/release/libitron.a(core-d049573bc16596f9.core.5587a85061e7188a-cgu.0.rcgu.o)
 .rodata..Lanon.a0506fc3c6b36e5783e71ab63da9841e.139
                0x0000000000134637        0x1 ./gen/../rust_opt/target/armv7a-none-eabi/release/libitron.a(core-d049573bc16596f9.core.5587a85061e7188a-cgu.0.rcgu.o)
 .rodata..Lanon.a0506fc3c6b36e5783e71ab63da9841e.140
                0x0000000000134638       0x18 ./gen/../rust_opt/target/armv7a-none-eabi/release/libitron.a(core-d049573bc16596f9.core.5587a85061e7188a-cgu.0.rcgu.o)
 .rodata..Lanon.a0506fc3c6b36e5783e71ab63da9841e.141
                0x0000000000134650        0x7 ./gen/../rust_opt/target/armv7a-none-eabi/release/libitron.a(core-d049573bc16596f9.core.5587a85061e7188a-cgu.0.rcgu.o)
 .rodata..Lanon.a0506fc3c6b36e5783e71ab63da9841e.142
                0x0000000000134657        0x2 ./gen/../rust_opt/target/armv7a-none-eabi/release/libitron.a(core-d049573bc16596f9.core.5587a85061e7188a-cgu.0.rcgu.o)
 .rodata..Lanon.a0506fc3c6b36e5783e71ab63da9841e.143
                0x0000000000134659        0x3 ./gen/../rust_opt/target/armv7a-none-eabi/release/libitron.a(core-d049573bc16596f9.core.5587a85061e7188a-cgu.0.rcgu.o)
 .rodata..Lanon.a0506fc3c6b36e5783e71ab63da9841e.144
                0x000000000013465c        0x7 ./gen/../rust_opt/target/armv7a-none-eabi/release/libitron.a(core-d049573bc16596f9.core.5587a85061e7188a-cgu.0.rcgu.o)
 *fill*         0x0000000000134663        0x1 
 .rodata..Lanon.a0506fc3c6b36e5783e71ab63da9841e.145
                0x0000000000134664       0x10 ./gen/../rust_opt/target/armv7a-none-eabi/release/libitron.a(core-d049573bc16596f9.core.5587a85061e7188a-cgu.0.rcgu.o)
 .rodata..Lanon.a0506fc3c6b36e5783e71ab63da9841e.146
                0x0000000000134674       0x18 ./gen/../rust_opt/target/armv7a-none-eabi/release/libitron.a(core-d049573bc16596f9.core.5587a85061e7188a-cgu.0.rcgu.o)
 .rodata..Lanon.a0506fc3c6b36e5783e71ab63da9841e.148
                0x000000000013468c        0xd ./gen/../rust_opt/target/armv7a-none-eabi/release/libitron.a(core-d049573bc16596f9.core.5587a85061e7188a-cgu.0.rcgu.o)
 .rodata..Lanon.a0506fc3c6b36e5783e71ab63da9841e.149
                0x0000000000134699        0x1 ./gen/../rust_opt/target/armv7a-none-eabi/release/libitron.a(core-d049573bc16596f9.core.5587a85061e7188a-cgu.0.rcgu.o)
 *fill*         0x000000000013469a        0x2 
 .rodata.cst8   0x000000000013469c       0x20 ./gen/../rust_opt/target/armv7a-none-eabi/release/libitron.a(core-d049573bc16596f9.core.5587a85061e7188a-cgu.0.rcgu.o)
                                         0x28 (size before relaxing)
 .rodata..Lanon.a0506fc3c6b36e5783e71ab63da9841e.151
                0x00000000001346bc        0x2 ./gen/../rust_opt/target/armv7a-none-eabi/release/libitron.a(core-d049573bc16596f9.core.5587a85061e7188a-cgu.0.rcgu.o)
 .rodata..Lanon.a0506fc3c6b36e5783e71ab63da9841e.152
                0x00000000001346be        0x3 ./gen/../rust_opt/target/armv7a-none-eabi/release/libitron.a(core-d049573bc16596f9.core.5587a85061e7188a-cgu.0.rcgu.o)
 .rodata..Lanon.a0506fc3c6b36e5783e71ab63da9841e.153
                0x00000000001346c1       0x2e ./gen/../rust_opt/target/armv7a-none-eabi/release/libitron.a(core-d049573bc16596f9.core.5587a85061e7188a-cgu.0.rcgu.o)
 *fill*         0x00000000001346ef        0x1 
 .rodata..Lanon.a0506fc3c6b36e5783e71ab63da9841e.154
                0x00000000001346f0        0x8 ./gen/../rust_opt/target/armv7a-none-eabi/release/libitron.a(core-d049573bc16596f9.core.5587a85061e7188a-cgu.0.rcgu.o)
 .rodata..Lanon.a0506fc3c6b36e5783e71ab63da9841e.155
                0x00000000001346f8       0x1d ./gen/../rust_opt/target/armv7a-none-eabi/release/libitron.a(core-d049573bc16596f9.core.5587a85061e7188a-cgu.0.rcgu.o)
 *fill*         0x0000000000134715        0x3 
 .rodata..Lanon.a0506fc3c6b36e5783e71ab63da9841e.156
                0x0000000000134718       0x10 ./gen/../rust_opt/target/armv7a-none-eabi/release/libitron.a(core-d049573bc16596f9.core.5587a85061e7188a-cgu.0.rcgu.o)
 .rodata..Lanon.a0506fc3c6b36e5783e71ab63da9841e.157
                0x0000000000134728        0xb ./gen/../rust_opt/target/armv7a-none-eabi/release/libitron.a(core-d049573bc16596f9.core.5587a85061e7188a-cgu.0.rcgu.o)
 .rodata..Lanon.a0506fc3c6b36e5783e71ab63da9841e.158
                0x0000000000134733       0x18 ./gen/../rust_opt/target/armv7a-none-eabi/release/libitron.a(core-d049573bc16596f9.core.5587a85061e7188a-cgu.0.rcgu.o)
 .rodata..Lanon.a0506fc3c6b36e5783e71ab63da9841e.159
                0x000000000013474b        0xe ./gen/../rust_opt/target/armv7a-none-eabi/release/libitron.a(core-d049573bc16596f9.core.5587a85061e7188a-cgu.0.rcgu.o)
 .rodata..Lanon.a0506fc3c6b36e5783e71ab63da9841e.161
                0x0000000000134759       0x12 ./gen/../rust_opt/target/armv7a-none-eabi/release/libitron.a(core-d049573bc16596f9.core.5587a85061e7188a-cgu.0.rcgu.o)
 *fill*         0x000000000013476b        0x1 
 .rodata..Lanon.a0506fc3c6b36e5783e71ab63da9841e.162
                0x000000000013476c        0x8 ./gen/../rust_opt/target/armv7a-none-eabi/release/libitron.a(core-d049573bc16596f9.core.5587a85061e7188a-cgu.0.rcgu.o)
 .rodata..Lanon.a0506fc3c6b36e5783e71ab63da9841e.163
                0x0000000000134774       0x1a ./gen/../rust_opt/target/armv7a-none-eabi/release/libitron.a(core-d049573bc16596f9.core.5587a85061e7188a-cgu.0.rcgu.o)
 *fill*         0x000000000013478e        0x2 
 .rodata..Lanon.a0506fc3c6b36e5783e71ab63da9841e.164
                0x0000000000134790        0x8 ./gen/../rust_opt/target/armv7a-none-eabi/release/libitron.a(core-d049573bc16596f9.core.5587a85061e7188a-cgu.0.rcgu.o)
 .rodata..Lanon.a0506fc3c6b36e5783e71ab63da9841e.165
                0x0000000000134798       0x23 ./gen/../rust_opt/target/armv7a-none-eabi/release/libitron.a(core-d049573bc16596f9.core.5587a85061e7188a-cgu.0.rcgu.o)
 .rodata..Lanon.a0506fc3c6b36e5783e71ab63da9841e.166
                0x00000000001347bb       0x1d ./gen/../rust_opt/target/armv7a-none-eabi/release/libitron.a(core-d049573bc16596f9.core.5587a85061e7188a-cgu.0.rcgu.o)
 .rodata..Lanon.a0506fc3c6b36e5783e71ab63da9841e.167
                0x00000000001347d8       0x29 ./gen/../rust_opt/target/armv7a-none-eabi/release/libitron.a(core-d049573bc16596f9.core.5587a85061e7188a-cgu.0.rcgu.o)
 .rodata..Lanon.a0506fc3c6b36e5783e71ab63da9841e.168
                0x0000000000134801       0x1a ./gen/../rust_opt/target/armv7a-none-eabi/release/libitron.a(core-d049573bc16596f9.core.5587a85061e7188a-cgu.0.rcgu.o)
 *fill*         0x000000000013481b        0x1 
 .rodata..Lanon.a0506fc3c6b36e5783e71ab63da9841e.169
                0x000000000013481c        0x8 ./gen/../rust_opt/target/armv7a-none-eabi/release/libitron.a(core-d049573bc16596f9.core.5587a85061e7188a-cgu.0.rcgu.o)
 .rodata..Lanon.a0506fc3c6b36e5783e71ab63da9841e.170
                0x0000000000134824       0x47 ./gen/../rust_opt/target/armv7a-none-eabi/release/libitron.a(core-d049573bc16596f9.core.5587a85061e7188a-cgu.0.rcgu.o)
 *fill*         0x000000000013486b        0x1 
 .rodata..Lanon.a0506fc3c6b36e5783e71ab63da9841e.171
                0x000000000013486c        0x8 ./gen/../rust_opt/target/armv7a-none-eabi/release/libitron.a(core-d049573bc16596f9.core.5587a85061e7188a-cgu.0.rcgu.o)
 .rodata.cst32  0x0000000000134874       0xa0 ./gen/../rust_opt/target/armv7a-none-eabi/release/libitron.a(core-d049573bc16596f9.core.5587a85061e7188a-cgu.0.rcgu.o)
 .rodata..Lanon.a0506fc3c6b36e5783e71ab63da9841e.173
                0x0000000000134914       0x10 ./gen/../rust_opt/target/armv7a-none-eabi/release/libitron.a(core-d049573bc16596f9.core.5587a85061e7188a-cgu.0.rcgu.o)
 .rodata..Lanon.a0506fc3c6b36e5783e71ab63da9841e.174
                0x0000000000134924       0x1f ./gen/../rust_opt/target/armv7a-none-eabi/release/libitron.a(core-d049573bc16596f9.core.5587a85061e7188a-cgu.0.rcgu.o)
 .rodata..Lanon.a0506fc3c6b36e5783e71ab63da9841e.175
                0x0000000000134943       0x24 ./gen/../rust_opt/target/armv7a-none-eabi/release/libitron.a(core-d049573bc16596f9.core.5587a85061e7188a-cgu.0.rcgu.o)
 *fill*         0x0000000000134967        0x1 
 .rodata..Lanon.a0506fc3c6b36e5783e71ab63da9841e.176
                0x0000000000134968       0x10 ./gen/../rust_opt/target/armv7a-none-eabi/release/libitron.a(core-d049573bc16596f9.core.5587a85061e7188a-cgu.0.rcgu.o)
 .rodata..Lanon.a0506fc3c6b36e5783e71ab63da9841e.177
                0x0000000000134978       0x2b ./gen/../rust_opt/target/armv7a-none-eabi/release/libitron.a(core-d049573bc16596f9.core.5587a85061e7188a-cgu.0.rcgu.o)
 .rodata..Lanon.a0506fc3c6b36e5783e71ab63da9841e.178
                0x00000000001349a3       0x23 ./gen/../rust_opt/target/armv7a-none-eabi/release/libitron.a(core-d049573bc16596f9.core.5587a85061e7188a-cgu.0.rcgu.o)
 .rodata..Lanon.a0506fc3c6b36e5783e71ab63da9841e.179
                0x00000000001349c6        0xd ./gen/../rust_opt/target/armv7a-none-eabi/release/libitron.a(core-d049573bc16596f9.core.5587a85061e7188a-cgu.0.rcgu.o)
 *fill*         0x00000000001349d3        0x1 
 .rodata..Lanon.a0506fc3c6b36e5783e71ab63da9841e.180
                0x00000000001349d4        0x8 ./gen/../rust_opt/target/armv7a-none-eabi/release/libitron.a(core-d049573bc16596f9.core.5587a85061e7188a-cgu.0.rcgu.o)
 .rodata..Lanon.a0506fc3c6b36e5783e71ab63da9841e.181
                0x00000000001349dc        0x9 ./gen/../rust_opt/target/armv7a-none-eabi/release/libitron.a(core-d049573bc16596f9.core.5587a85061e7188a-cgu.0.rcgu.o)
 *fill*         0x00000000001349e5        0x3 
 .rodata..Lanon.a0506fc3c6b36e5783e71ab63da9841e.182
                0x00000000001349e8        0x8 ./gen/../rust_opt/target/armv7a-none-eabi/release/libitron.a(core-d049573bc16596f9.core.5587a85061e7188a-cgu.0.rcgu.o)
 .rodata..Lanon.a0506fc3c6b36e5783e71ab63da9841e.183
                0x00000000001349f0        0x6 ./gen/../rust_opt/target/armv7a-none-eabi/release/libitron.a(core-d049573bc16596f9.core.5587a85061e7188a-cgu.0.rcgu.o)
 .rodata..Lanon.a0506fc3c6b36e5783e71ab63da9841e.184
                0x00000000001349f6        0xb ./gen/../rust_opt/target/armv7a-none-eabi/release/libitron.a(core-d049573bc16596f9.core.5587a85061e7188a-cgu.0.rcgu.o)
 *fill*         0x0000000000134a01        0x3 
 .rodata..Lanon.a0506fc3c6b36e5783e71ab63da9841e.185
                0x0000000000134a04       0x10 ./gen/../rust_opt/target/armv7a-none-eabi/release/libitron.a(core-d049573bc16596f9.core.5587a85061e7188a-cgu.0.rcgu.o)
 .rodata.cst4   0x0000000000134a14       0x18 ./gen/../rust_opt/target/armv7a-none-eabi/release/libitron.a(core-d049573bc16596f9.core.5587a85061e7188a-cgu.0.rcgu.o)
 .rodata..Lanon.a0506fc3c6b36e5783e71ab63da9841e.187
                0x0000000000134a2c        0x6 ./gen/../rust_opt/target/armv7a-none-eabi/release/libitron.a(core-d049573bc16596f9.core.5587a85061e7188a-cgu.0.rcgu.o)
 *fill*         0x0000000000134a32        0x2 
 .rodata..Lanon.a0506fc3c6b36e5783e71ab63da9841e.189
                0x0000000000134a34       0x20 ./gen/../rust_opt/target/armv7a-none-eabi/release/libitron.a(core-d049573bc16596f9.core.5587a85061e7188a-cgu.0.rcgu.o)
 .rodata..Lanon.a0506fc3c6b36e5783e71ab63da9841e.190
                0x0000000000134a54       0x26 ./gen/../rust_opt/target/armv7a-none-eabi/release/libitron.a(core-d049573bc16596f9.core.5587a85061e7188a-cgu.0.rcgu.o)
 *fill*         0x0000000000134a7a        0x2 
 .rodata..Lanon.a0506fc3c6b36e5783e71ab63da9841e.191
                0x0000000000134a7c       0x10 ./gen/../rust_opt/target/armv7a-none-eabi/release/libitron.a(core-d049573bc16596f9.core.5587a85061e7188a-cgu.0.rcgu.o)
 .rodata..Lanon.a0506fc3c6b36e5783e71ab63da9841e.192
                0x0000000000134a8c       0x10 ./gen/../rust_opt/target/armv7a-none-eabi/release/libitron.a(core-d049573bc16596f9.core.5587a85061e7188a-cgu.0.rcgu.o)
 .rodata..Lanon.a0506fc3c6b36e5783e71ab63da9841e.193
                0x0000000000134a9c       0x2b ./gen/../rust_opt/target/armv7a-none-eabi/release/libitron.a(core-d049573bc16596f9.core.5587a85061e7188a-cgu.0.rcgu.o)
 .rodata..Lanon.a0506fc3c6b36e5783e71ab63da9841e.194
                0x0000000000134ac7       0x1f ./gen/../rust_opt/target/armv7a-none-eabi/release/libitron.a(core-d049573bc16596f9.core.5587a85061e7188a-cgu.0.rcgu.o)
 *fill*         0x0000000000134ae6        0x2 
 .rodata..Lanon.a0506fc3c6b36e5783e71ab63da9841e.195
                0x0000000000134ae8       0x10 ./gen/../rust_opt/target/armv7a-none-eabi/release/libitron.a(core-d049573bc16596f9.core.5587a85061e7188a-cgu.0.rcgu.o)
 .rodata..Lanon.a0506fc3c6b36e5783e71ab63da9841e.196
                0x0000000000134af8       0x10 ./gen/../rust_opt/target/armv7a-none-eabi/release/libitron.a(core-d049573bc16596f9.core.5587a85061e7188a-cgu.0.rcgu.o)
 .rodata..Lanon.a0506fc3c6b36e5783e71ab63da9841e.197
                0x0000000000134b08        0x7 ./gen/../rust_opt/target/armv7a-none-eabi/release/libitron.a(core-d049573bc16596f9.core.5587a85061e7188a-cgu.0.rcgu.o)
 *fill*         0x0000000000134b0f        0x1 
 .rodata..Lanon.a0506fc3c6b36e5783e71ab63da9841e.198
                0x0000000000134b10        0x8 ./gen/../rust_opt/target/armv7a-none-eabi/release/libitron.a(core-d049573bc16596f9.core.5587a85061e7188a-cgu.0.rcgu.o)
 .rodata..Lanon.a0506fc3c6b36e5783e71ab63da9841e.199
                0x0000000000134b18        0x2 ./gen/../rust_opt/target/armv7a-none-eabi/release/libitron.a(core-d049573bc16596f9.core.5587a85061e7188a-cgu.0.rcgu.o)
 *fill*         0x0000000000134b1a        0x2 
 .rodata..Lanon.a0506fc3c6b36e5783e71ab63da9841e.200
                0x0000000000134b1c       0x10 ./gen/../rust_opt/target/armv7a-none-eabi/release/libitron.a(core-d049573bc16596f9.core.5587a85061e7188a-cgu.0.rcgu.o)
 .rodata..Lanon.a0506fc3c6b36e5783e71ab63da9841e.201
                0x0000000000134b2c       0x1e ./gen/../rust_opt/target/armv7a-none-eabi/release/libitron.a(core-d049573bc16596f9.core.5587a85061e7188a-cgu.0.rcgu.o)
 *fill*         0x0000000000134b4a        0x2 
 .rodata..Lanon.a0506fc3c6b36e5783e71ab63da9841e.202
                0x0000000000134b4c       0x10 ./gen/../rust_opt/target/armv7a-none-eabi/release/libitron.a(core-d049573bc16596f9.core.5587a85061e7188a-cgu.0.rcgu.o)
 .rodata..Lanon.a0506fc3c6b36e5783e71ab63da9841e.203
                0x0000000000134b5c       0x10 ./gen/../rust_opt/target/armv7a-none-eabi/release/libitron.a(core-d049573bc16596f9.core.5587a85061e7188a-cgu.0.rcgu.o)
 .rodata..Lanon.a0506fc3c6b36e5783e71ab63da9841e.204
                0x0000000000134b6c       0x10 ./gen/../rust_opt/target/armv7a-none-eabi/release/libitron.a(core-d049573bc16596f9.core.5587a85061e7188a-cgu.0.rcgu.o)
 .rodata..Lanon.a0506fc3c6b36e5783e71ab63da9841e.205
                0x0000000000134b7c       0x19 ./gen/../rust_opt/target/armv7a-none-eabi/release/libitron.a(core-d049573bc16596f9.core.5587a85061e7188a-cgu.0.rcgu.o)
 .rodata..Lanon.a0506fc3c6b36e5783e71ab63da9841e.206
                0x0000000000134b95       0x1b ./gen/../rust_opt/target/armv7a-none-eabi/release/libitron.a(core-d049573bc16596f9.core.5587a85061e7188a-cgu.0.rcgu.o)
 .rodata..Lanon.a0506fc3c6b36e5783e71ab63da9841e.207
                0x0000000000134bb0       0x1b ./gen/../rust_opt/target/armv7a-none-eabi/release/libitron.a(core-d049573bc16596f9.core.5587a85061e7188a-cgu.0.rcgu.o)
 .rodata..Lanon.a0506fc3c6b36e5783e71ab63da9841e.208
                0x0000000000134bcb       0x1d ./gen/../rust_opt/target/armv7a-none-eabi/release/libitron.a(core-d049573bc16596f9.core.5587a85061e7188a-cgu.0.rcgu.o)
 .rodata..Lanon.a0506fc3c6b36e5783e71ab63da9841e.209
                0x0000000000134be8       0x22 ./gen/../rust_opt/target/armv7a-none-eabi/release/libitron.a(core-d049573bc16596f9.core.5587a85061e7188a-cgu.0.rcgu.o)
 .rodata..Lanon.a0506fc3c6b36e5783e71ab63da9841e.210
                0x0000000000134c0a       0x22 ./gen/../rust_opt/target/armv7a-none-eabi/release/libitron.a(core-d049573bc16596f9.core.5587a85061e7188a-cgu.0.rcgu.o)
 .rodata..Lanon.a0506fc3c6b36e5783e71ab63da9841e.211
                0x0000000000134c2c        0x1 ./gen/../rust_opt/target/armv7a-none-eabi/release/libitron.a(core-d049573bc16596f9.core.5587a85061e7188a-cgu.0.rcgu.o)
 *fill*         0x0000000000134c2d        0x3 
 .rodata..Lanon.a0506fc3c6b36e5783e71ab63da9841e.212
                0x0000000000134c30       0x10 ./gen/../rust_opt/target/armv7a-none-eabi/release/libitron.a(core-d049573bc16596f9.core.5587a85061e7188a-cgu.0.rcgu.o)
 .rodata..Lanon.a0506fc3c6b36e5783e71ab63da9841e.213
                0x0000000000134c40       0x23 ./gen/../rust_opt/target/armv7a-none-eabi/release/libitron.a(core-d049573bc16596f9.core.5587a85061e7188a-cgu.0.rcgu.o)
 *fill*         0x0000000000134c63        0x1 
 .rodata..Lanon.a0506fc3c6b36e5783e71ab63da9841e.214
                0x0000000000134c64       0x10 ./gen/../rust_opt/target/armv7a-none-eabi/release/libitron.a(core-d049573bc16596f9.core.5587a85061e7188a-cgu.0.rcgu.o)
 .rodata..Lanon.a0506fc3c6b36e5783e71ab63da9841e.215
                0x0000000000134c74        0x1 ./gen/../rust_opt/target/armv7a-none-eabi/release/libitron.a(core-d049573bc16596f9.core.5587a85061e7188a-cgu.0.rcgu.o)
 .rodata..Lanon.a0506fc3c6b36e5783e71ab63da9841e.216
                0x0000000000134c75        0x2 ./gen/../rust_opt/target/armv7a-none-eabi/release/libitron.a(core-d049573bc16596f9.core.5587a85061e7188a-cgu.0.rcgu.o)
 *fill*         0x0000000000134c77        0x1 
 .rodata..Lanon.a0506fc3c6b36e5783e71ab63da9841e.217
                0x0000000000134c78       0x10 ./gen/../rust_opt/target/armv7a-none-eabi/release/libitron.a(core-d049573bc16596f9.core.5587a85061e7188a-cgu.0.rcgu.o)
 .rodata..Lanon.a0506fc3c6b36e5783e71ab63da9841e.218
                0x0000000000134c88        0x1 ./gen/../rust_opt/target/armv7a-none-eabi/release/libitron.a(core-d049573bc16596f9.core.5587a85061e7188a-cgu.0.rcgu.o)
 *fill*         0x0000000000134c89        0x3 
 .rodata..Lanon.a0506fc3c6b36e5783e71ab63da9841e.219
                0x0000000000134c8c       0x18 ./gen/../rust_opt/target/armv7a-none-eabi/release/libitron.a(core-d049573bc16596f9.core.5587a85061e7188a-cgu.0.rcgu.o)
 .rodata..Lanon.a0506fc3c6b36e5783e71ab63da9841e.220
                0x0000000000134ca4       0x10 ./gen/../rust_opt/target/armv7a-none-eabi/release/libitron.a(core-d049573bc16596f9.core.5587a85061e7188a-cgu.0.rcgu.o)
 .rodata..Lanon.a0506fc3c6b36e5783e71ab63da9841e.221
                0x0000000000134cb4       0x2b ./gen/../rust_opt/target/armv7a-none-eabi/release/libitron.a(core-d049573bc16596f9.core.5587a85061e7188a-cgu.0.rcgu.o)
 *fill*         0x0000000000134cdf        0x1 
 .rodata..Lanon.a0506fc3c6b36e5783e71ab63da9841e.222
                0x0000000000134ce0       0x18 ./gen/../rust_opt/target/armv7a-none-eabi/release/libitron.a(core-d049573bc16596f9.core.5587a85061e7188a-cgu.0.rcgu.o)
 .rodata..Lanon.a0506fc3c6b36e5783e71ab63da9841e.223
                0x0000000000134cf8        0xc ./gen/../rust_opt/target/armv7a-none-eabi/release/libitron.a(core-d049573bc16596f9.core.5587a85061e7188a-cgu.0.rcgu.o)
 .rodata..Lanon.a0506fc3c6b36e5783e71ab63da9841e.224
                0x0000000000134d04        0x2 ./gen/../rust_opt/target/armv7a-none-eabi/release/libitron.a(core-d049573bc16596f9.core.5587a85061e7188a-cgu.0.rcgu.o)
 .rodata..Lanon.a0506fc3c6b36e5783e71ab63da9841e.225
                0x0000000000134d06       0x1d ./gen/../rust_opt/target/armv7a-none-eabi/release/libitron.a(core-d049573bc16596f9.core.5587a85061e7188a-cgu.0.rcgu.o)
 *fill*         0x0000000000134d23        0x1 
 .rodata..Lanon.a0506fc3c6b36e5783e71ab63da9841e.226
                0x0000000000134d24       0x10 ./gen/../rust_opt/target/armv7a-none-eabi/release/libitron.a(core-d049573bc16596f9.core.5587a85061e7188a-cgu.0.rcgu.o)
 .rodata..Lanon.a0506fc3c6b36e5783e71ab63da9841e.227
                0x0000000000134d34       0x10 ./gen/../rust_opt/target/armv7a-none-eabi/release/libitron.a(core-d049573bc16596f9.core.5587a85061e7188a-cgu.0.rcgu.o)
 .rodata..Lanon.a0506fc3c6b36e5783e71ab63da9841e.228
                0x0000000000134d44        0xe ./gen/../rust_opt/target/armv7a-none-eabi/release/libitron.a(core-d049573bc16596f9.core.5587a85061e7188a-cgu.0.rcgu.o)
 *fill*         0x0000000000134d52        0x2 
 .rodata..Lanon.a0506fc3c6b36e5783e71ab63da9841e.229
                0x0000000000134d54        0x8 ./gen/../rust_opt/target/armv7a-none-eabi/release/libitron.a(core-d049573bc16596f9.core.5587a85061e7188a-cgu.0.rcgu.o)
 .rodata..Lanon.a0506fc3c6b36e5783e71ab63da9841e.231
                0x0000000000134d5c       0x12 ./gen/../rust_opt/target/armv7a-none-eabi/release/libitron.a(core-d049573bc16596f9.core.5587a85061e7188a-cgu.0.rcgu.o)
 *fill*         0x0000000000134d6e        0x2 
 .rodata..Lanon.a0506fc3c6b36e5783e71ab63da9841e.232
                0x0000000000134d70       0x10 ./gen/../rust_opt/target/armv7a-none-eabi/release/libitron.a(core-d049573bc16596f9.core.5587a85061e7188a-cgu.0.rcgu.o)
 .rodata..Lanon.a0506fc3c6b36e5783e71ab63da9841e.233
                0x0000000000134d80       0x3e ./gen/../rust_opt/target/armv7a-none-eabi/release/libitron.a(core-d049573bc16596f9.core.5587a85061e7188a-cgu.0.rcgu.o)
 *fill*         0x0000000000134dbe        0x2 
 .rodata..Lanon.a0506fc3c6b36e5783e71ab63da9841e.235
                0x0000000000134dc0       0x10 ./gen/../rust_opt/target/armv7a-none-eabi/release/libitron.a(core-d049573bc16596f9.core.5587a85061e7188a-cgu.0.rcgu.o)
 .rodata..Lanon.a0506fc3c6b36e5783e71ab63da9841e.236
                0x0000000000134dd0       0x30 ./gen/../rust_opt/target/armv7a-none-eabi/release/libitron.a(core-d049573bc16596f9.core.5587a85061e7188a-cgu.0.rcgu.o)
 .rodata..Lanon.a0506fc3c6b36e5783e71ab63da9841e.237
                0x0000000000134e00       0x21 ./gen/../rust_opt/target/armv7a-none-eabi/release/libitron.a(core-d049573bc16596f9.core.5587a85061e7188a-cgu.0.rcgu.o)
 *fill*         0x0000000000134e21        0x3 
 .rodata..Lanon.a0506fc3c6b36e5783e71ab63da9841e.238
                0x0000000000134e24        0x8 ./gen/../rust_opt/target/armv7a-none-eabi/release/libitron.a(core-d049573bc16596f9.core.5587a85061e7188a-cgu.0.rcgu.o)
 .rodata..Lanon.a0506fc3c6b36e5783e71ab63da9841e.239
                0x0000000000134e2c       0x26 ./gen/../rust_opt/target/armv7a-none-eabi/release/libitron.a(core-d049573bc16596f9.core.5587a85061e7188a-cgu.0.rcgu.o)
 .rodata..Lanon.a0506fc3c6b36e5783e71ab63da9841e.240
                0x0000000000134e52       0x24 ./gen/../rust_opt/target/armv7a-none-eabi/release/libitron.a(core-d049573bc16596f9.core.5587a85061e7188a-cgu.0.rcgu.o)
 *fill*         0x0000000000134e76        0x2 
 .rodata..Lanon.a0506fc3c6b36e5783e71ab63da9841e.241
                0x0000000000134e78       0x10 ./gen/../rust_opt/target/armv7a-none-eabi/release/libitron.a(core-d049573bc16596f9.core.5587a85061e7188a-cgu.0.rcgu.o)
 .rodata..Lanon.a0506fc3c6b36e5783e71ab63da9841e.242
                0x0000000000134e88       0x10 ./gen/../rust_opt/target/armv7a-none-eabi/release/libitron.a(core-d049573bc16596f9.core.5587a85061e7188a-cgu.0.rcgu.o)
 .rodata..Lanon.a0506fc3c6b36e5783e71ab63da9841e.243
                0x0000000000134e98       0x10 ./gen/../rust_opt/target/armv7a-none-eabi/release/libitron.a(core-d049573bc16596f9.core.5587a85061e7188a-cgu.0.rcgu.o)
 .rodata..Lanon.a0506fc3c6b36e5783e71ab63da9841e.244
                0x0000000000134ea8        0x2 ./gen/../rust_opt/target/armv7a-none-eabi/release/libitron.a(core-d049573bc16596f9.core.5587a85061e7188a-cgu.0.rcgu.o)
 .rodata..Lanon.a0506fc3c6b36e5783e71ab63da9841e.245
                0x0000000000134eaa        0x2 ./gen/../rust_opt/target/armv7a-none-eabi/release/libitron.a(core-d049573bc16596f9.core.5587a85061e7188a-cgu.0.rcgu.o)
 .rodata..Lanon.a0506fc3c6b36e5783e71ab63da9841e.246
                0x0000000000134eac        0x7 ./gen/../rust_opt/target/armv7a-none-eabi/release/libitron.a(core-d049573bc16596f9.core.5587a85061e7188a-cgu.0.rcgu.o)
 .rodata..Lanon.a0506fc3c6b36e5783e71ab63da9841e.248
                0x0000000000134eb3       0x17 ./gen/../rust_opt/target/armv7a-none-eabi/release/libitron.a(core-d049573bc16596f9.core.5587a85061e7188a-cgu.0.rcgu.o)
 .rodata..Lanon.a0506fc3c6b36e5783e71ab63da9841e.249
                0x0000000000134eca        0x9 ./gen/../rust_opt/target/armv7a-none-eabi/release/libitron.a(core-d049573bc16596f9.core.5587a85061e7188a-cgu.0.rcgu.o)
 *fill*         0x0000000000134ed3        0x1 
 .rodata..Lanon.a0506fc3c6b36e5783e71ab63da9841e.250
                0x0000000000134ed4       0x18 ./gen/../rust_opt/target/armv7a-none-eabi/release/libitron.a(core-d049573bc16596f9.core.5587a85061e7188a-cgu.0.rcgu.o)
 .rodata..Lanon.a0506fc3c6b36e5783e71ab63da9841e.252
                0x0000000000134eec        0x9 ./gen/../rust_opt/target/armv7a-none-eabi/release/libitron.a(core-d049573bc16596f9.core.5587a85061e7188a-cgu.0.rcgu.o)
 *fill*         0x0000000000134ef5        0x3 
 .rodata..Lanon.a0506fc3c6b36e5783e71ab63da9841e.253
                0x0000000000134ef8       0x20 ./gen/../rust_opt/target/armv7a-none-eabi/release/libitron.a(core-d049573bc16596f9.core.5587a85061e7188a-cgu.0.rcgu.o)
 .rodata..Lanon.a0506fc3c6b36e5783e71ab63da9841e.254
                0x0000000000134f18       0x27 ./gen/../rust_opt/target/armv7a-none-eabi/release/libitron.a(core-d049573bc16596f9.core.5587a85061e7188a-cgu.0.rcgu.o)
 *fill*         0x0000000000134f3f        0x1 
 .rodata..Lanon.a0506fc3c6b36e5783e71ab63da9841e.255
                0x0000000000134f40        0x8 ./gen/../rust_opt/target/armv7a-none-eabi/release/libitron.a(core-d049573bc16596f9.core.5587a85061e7188a-cgu.0.rcgu.o)
 .rodata..Lanon.a0506fc3c6b36e5783e71ab63da9841e.256
                0x0000000000134f48        0x2 ./gen/../rust_opt/target/armv7a-none-eabi/release/libitron.a(core-d049573bc16596f9.core.5587a85061e7188a-cgu.0.rcgu.o)
 *fill*         0x0000000000134f4a        0x2 
 .rodata..Lanon.a0506fc3c6b36e5783e71ab63da9841e.257
                0x0000000000134f4c       0x10 ./gen/../rust_opt/target/armv7a-none-eabi/release/libitron.a(core-d049573bc16596f9.core.5587a85061e7188a-cgu.0.rcgu.o)
 .rodata..Lanon.a0506fc3c6b36e5783e71ab63da9841e.258
                0x0000000000134f5c       0x18 ./gen/../rust_opt/target/armv7a-none-eabi/release/libitron.a(core-d049573bc16596f9.core.5587a85061e7188a-cgu.0.rcgu.o)
 .rodata..Lanon.a0506fc3c6b36e5783e71ab63da9841e.260
                0x0000000000134f74        0x3 ./gen/../rust_opt/target/armv7a-none-eabi/release/libitron.a(core-d049573bc16596f9.core.5587a85061e7188a-cgu.0.rcgu.o)
 .rodata..Lanon.a0506fc3c6b36e5783e71ab63da9841e.261
                0x0000000000134f77        0x2 ./gen/../rust_opt/target/armv7a-none-eabi/release/libitron.a(core-d049573bc16596f9.core.5587a85061e7188a-cgu.0.rcgu.o)
 .rodata..Lanon.a0506fc3c6b36e5783e71ab63da9841e.262
                0x0000000000134f79        0x3 ./gen/../rust_opt/target/armv7a-none-eabi/release/libitron.a(core-d049573bc16596f9.core.5587a85061e7188a-cgu.0.rcgu.o)
 .rodata..Lanon.a0506fc3c6b36e5783e71ab63da9841e.263
                0x0000000000134f7c        0x2 ./gen/../rust_opt/target/armv7a-none-eabi/release/libitron.a(core-d049573bc16596f9.core.5587a85061e7188a-cgu.0.rcgu.o)
 .rodata..Lanon.a0506fc3c6b36e5783e71ab63da9841e.264
                0x0000000000134f7e        0x7 ./gen/../rust_opt/target/armv7a-none-eabi/release/libitron.a(core-d049573bc16596f9.core.5587a85061e7188a-cgu.0.rcgu.o)
 .rodata..Lanon.a0506fc3c6b36e5783e71ab63da9841e.265
                0x0000000000134f85        0x6 ./gen/../rust_opt/target/armv7a-none-eabi/release/libitron.a(core-d049573bc16596f9.core.5587a85061e7188a-cgu.0.rcgu.o)
 .rodata..Lanon.a0506fc3c6b36e5783e71ab63da9841e.266
                0x0000000000134f8b        0x3 ./gen/../rust_opt/target/armv7a-none-eabi/release/libitron.a(core-d049573bc16596f9.core.5587a85061e7188a-cgu.0.rcgu.o)
 .rodata..Lanon.a0506fc3c6b36e5783e71ab63da9841e.267
                0x0000000000134f8e        0x1 ./gen/../rust_opt/target/armv7a-none-eabi/release/libitron.a(core-d049573bc16596f9.core.5587a85061e7188a-cgu.0.rcgu.o)
 .rodata..Lanon.a0506fc3c6b36e5783e71ab63da9841e.268
                0x0000000000134f8f        0x2 ./gen/../rust_opt/target/armv7a-none-eabi/release/libitron.a(core-d049573bc16596f9.core.5587a85061e7188a-cgu.0.rcgu.o)
 .rodata..Lanon.a0506fc3c6b36e5783e71ab63da9841e.269
                0x0000000000134f91        0x1 ./gen/../rust_opt/target/armv7a-none-eabi/release/libitron.a(core-d049573bc16596f9.core.5587a85061e7188a-cgu.0.rcgu.o)
 .rodata..Lanon.a0506fc3c6b36e5783e71ab63da9841e.270
                0x0000000000134f92        0x2 ./gen/../rust_opt/target/armv7a-none-eabi/release/libitron.a(core-d049573bc16596f9.core.5587a85061e7188a-cgu.0.rcgu.o)
 .rodata..Lanon.a0506fc3c6b36e5783e71ab63da9841e.272
                0x0000000000134f94        0x5 ./gen/../rust_opt/target/armv7a-none-eabi/release/libitron.a(core-d049573bc16596f9.core.5587a85061e7188a-cgu.0.rcgu.o)
 .rodata..Lanon.a0506fc3c6b36e5783e71ab63da9841e.273
                0x0000000000134f99        0x1 ./gen/../rust_opt/target/armv7a-none-eabi/release/libitron.a(core-d049573bc16596f9.core.5587a85061e7188a-cgu.0.rcgu.o)
 .rodata..Lanon.a0506fc3c6b36e5783e71ab63da9841e.274
                0x0000000000134f9a        0x1 ./gen/../rust_opt/target/armv7a-none-eabi/release/libitron.a(core-d049573bc16596f9.core.5587a85061e7188a-cgu.0.rcgu.o)
 .rodata..Lanon.a0506fc3c6b36e5783e71ab63da9841e.275
                0x0000000000134f9b        0x1 ./gen/../rust_opt/target/armv7a-none-eabi/release/libitron.a(core-d049573bc16596f9.core.5587a85061e7188a-cgu.0.rcgu.o)
 .rodata..Lanon.a0506fc3c6b36e5783e71ab63da9841e.276
                0x0000000000134f9c        0x3 ./gen/../rust_opt/target/armv7a-none-eabi/release/libitron.a(core-d049573bc16596f9.core.5587a85061e7188a-cgu.0.rcgu.o)
 .rodata..Lanon.a0506fc3c6b36e5783e71ab63da9841e.277
                0x0000000000134f9f        0x5 ./gen/../rust_opt/target/armv7a-none-eabi/release/libitron.a(core-d049573bc16596f9.core.5587a85061e7188a-cgu.0.rcgu.o)
 .rodata..Lanon.a0506fc3c6b36e5783e71ab63da9841e.278
                0x0000000000134fa4        0x3 ./gen/../rust_opt/target/armv7a-none-eabi/release/libitron.a(core-d049573bc16596f9.core.5587a85061e7188a-cgu.0.rcgu.o)
 .rodata..Lanon.a0506fc3c6b36e5783e71ab63da9841e.279
                0x0000000000134fa7        0x5 ./gen/../rust_opt/target/armv7a-none-eabi/release/libitron.a(core-d049573bc16596f9.core.5587a85061e7188a-cgu.0.rcgu.o)
 .rodata..Lanon.a0506fc3c6b36e5783e71ab63da9841e.280
                0x0000000000134fac        0x1 ./gen/../rust_opt/target/armv7a-none-eabi/release/libitron.a(core-d049573bc16596f9.core.5587a85061e7188a-cgu.0.rcgu.o)
 .rodata..Lanon.a0506fc3c6b36e5783e71ab63da9841e.281
                0x0000000000134fad       0x46 ./gen/../rust_opt/target/armv7a-none-eabi/release/libitron.a(core-d049573bc16596f9.core.5587a85061e7188a-cgu.0.rcgu.o)
 *fill*         0x0000000000134ff3        0x1 
 .rodata..Lanon.a0506fc3c6b36e5783e71ab63da9841e.282
                0x0000000000134ff4        0x8 ./gen/../rust_opt/target/armv7a-none-eabi/release/libitron.a(core-d049573bc16596f9.core.5587a85061e7188a-cgu.0.rcgu.o)
 .rodata..Lanon.a0506fc3c6b36e5783e71ab63da9841e.284
                0x0000000000134ffc       0x10 ./gen/../rust_opt/target/armv7a-none-eabi/release/libitron.a(core-d049573bc16596f9.core.5587a85061e7188a-cgu.0.rcgu.o)
 .rodata..Lanon.a0506fc3c6b36e5783e71ab63da9841e.285
                0x000000000013500c       0x2e ./gen/../rust_opt/target/armv7a-none-eabi/release/libitron.a(core-d049573bc16596f9.core.5587a85061e7188a-cgu.0.rcgu.o)
 *fill*         0x000000000013503a        0x2 
 .rodata..Lanon.a0506fc3c6b36e5783e71ab63da9841e.286
                0x000000000013503c        0x8 ./gen/../rust_opt/target/armv7a-none-eabi/release/libitron.a(core-d049573bc16596f9.core.5587a85061e7188a-cgu.0.rcgu.o)
 .rodata..Lanon.a0506fc3c6b36e5783e71ab63da9841e.287
                0x0000000000135044       0x10 ./gen/../rust_opt/target/armv7a-none-eabi/release/libitron.a(core-d049573bc16596f9.core.5587a85061e7188a-cgu.0.rcgu.o)
 .rodata..Lanon.a0506fc3c6b36e5783e71ab63da9841e.288
                0x0000000000135054       0x2e ./gen/../rust_opt/target/armv7a-none-eabi/release/libitron.a(core-d049573bc16596f9.core.5587a85061e7188a-cgu.0.rcgu.o)
 *fill*         0x0000000000135082        0x2 
 .rodata..Lanon.a0506fc3c6b36e5783e71ab63da9841e.289
                0x0000000000135084        0x8 ./gen/../rust_opt/target/armv7a-none-eabi/release/libitron.a(core-d049573bc16596f9.core.5587a85061e7188a-cgu.0.rcgu.o)
 .rodata..Lanon.a0506fc3c6b36e5783e71ab63da9841e.290
                0x000000000013508c       0x10 ./gen/../rust_opt/target/armv7a-none-eabi/release/libitron.a(core-d049573bc16596f9.core.5587a85061e7188a-cgu.0.rcgu.o)
 .rodata..Lanon.a0506fc3c6b36e5783e71ab63da9841e.291
                0x000000000013509c       0x10 ./gen/../rust_opt/target/armv7a-none-eabi/release/libitron.a(core-d049573bc16596f9.core.5587a85061e7188a-cgu.0.rcgu.o)
 .rodata..Lanon.a0506fc3c6b36e5783e71ab63da9841e.292
                0x00000000001350ac       0x1b ./gen/../rust_opt/target/armv7a-none-eabi/release/libitron.a(core-d049573bc16596f9.core.5587a85061e7188a-cgu.0.rcgu.o)
 *fill*         0x00000000001350c7        0x1 
 .rodata..Lanon.a0506fc3c6b36e5783e71ab63da9841e.293
                0x00000000001350c8       0x10 ./gen/../rust_opt/target/armv7a-none-eabi/release/libitron.a(core-d049573bc16596f9.core.5587a85061e7188a-cgu.0.rcgu.o)
 .rodata..Lanon.a0506fc3c6b36e5783e71ab63da9841e.294
                0x00000000001350d8        0x2 ./gen/../rust_opt/target/armv7a-none-eabi/release/libitron.a(core-d049573bc16596f9.core.5587a85061e7188a-cgu.0.rcgu.o)
 .rodata..Lanon.a0506fc3c6b36e5783e71ab63da9841e.295
                0x00000000001350da        0x2 ./gen/../rust_opt/target/armv7a-none-eabi/release/libitron.a(core-d049573bc16596f9.core.5587a85061e7188a-cgu.0.rcgu.o)
 .rodata..Lanon.a0506fc3c6b36e5783e71ab63da9841e.296
                0x00000000001350dc        0x2 ./gen/../rust_opt/target/armv7a-none-eabi/release/libitron.a(core-d049573bc16596f9.core.5587a85061e7188a-cgu.0.rcgu.o)
 .rodata..Lanon.a0506fc3c6b36e5783e71ab63da9841e.297
                0x00000000001350de       0xc8 ./gen/../rust_opt/target/armv7a-none-eabi/release/libitron.a(core-d049573bc16596f9.core.5587a85061e7188a-cgu.0.rcgu.o)
 .rodata..Lanon.a0506fc3c6b36e5783e71ab63da9841e.298
                0x00000000001351a6       0x1c ./gen/../rust_opt/target/armv7a-none-eabi/release/libitron.a(core-d049573bc16596f9.core.5587a85061e7188a-cgu.0.rcgu.o)
 *fill*         0x00000000001351c2        0x2 
 .rodata..Lanon.a0506fc3c6b36e5783e71ab63da9841e.299
                0x00000000001351c4       0x10 ./gen/../rust_opt/target/armv7a-none-eabi/release/libitron.a(core-d049573bc16596f9.core.5587a85061e7188a-cgu.0.rcgu.o)
 .rodata..Lanon.a0506fc3c6b36e5783e71ab63da9841e.300
                0x00000000001351d4       0x18 ./gen/../rust_opt/target/armv7a-none-eabi/release/libitron.a(core-d049573bc16596f9.core.5587a85061e7188a-cgu.0.rcgu.o)
 .rodata..Lanon.a0506fc3c6b36e5783e71ab63da9841e.301
                0x00000000001351ec       0x18 ./gen/../rust_opt/target/armv7a-none-eabi/release/libitron.a(core-d049573bc16596f9.core.5587a85061e7188a-cgu.0.rcgu.o)
 .rodata..Lanon.a0506fc3c6b36e5783e71ab63da9841e.302
                0x0000000000135204       0x18 ./gen/../rust_opt/target/armv7a-none-eabi/release/libitron.a(core-d049573bc16596f9.core.5587a85061e7188a-cgu.0.rcgu.o)
 .rodata..Lanon.a0506fc3c6b36e5783e71ab63da9841e.303
                0x000000000013521c       0x18 ./gen/../rust_opt/target/armv7a-none-eabi/release/libitron.a(core-d049573bc16596f9.core.5587a85061e7188a-cgu.0.rcgu.o)
 .rodata..Lanon.a0506fc3c6b36e5783e71ab63da9841e.304
                0x0000000000135234       0x40 ./gen/../rust_opt/target/armv7a-none-eabi/release/libitron.a(core-d049573bc16596f9.core.5587a85061e7188a-cgu.0.rcgu.o)
 .rodata..Lanon.a0506fc3c6b36e5783e71ab63da9841e.305
                0x0000000000135274       0x1b ./gen/../rust_opt/target/armv7a-none-eabi/release/libitron.a(core-d049573bc16596f9.core.5587a85061e7188a-cgu.0.rcgu.o)
 *fill*         0x000000000013528f        0x1 
 .rodata..Lanon.a0506fc3c6b36e5783e71ab63da9841e.306
                0x0000000000135290       0x10 ./gen/../rust_opt/target/armv7a-none-eabi/release/libitron.a(core-d049573bc16596f9.core.5587a85061e7188a-cgu.0.rcgu.o)
 .rodata..Lanon.a0506fc3c6b36e5783e71ab63da9841e.307
                0x00000000001352a0       0x10 ./gen/../rust_opt/target/armv7a-none-eabi/release/libitron.a(core-d049573bc16596f9.core.5587a85061e7188a-cgu.0.rcgu.o)
 .rodata..Lanon.a0506fc3c6b36e5783e71ab63da9841e.308
                0x00000000001352b0       0x2d ./gen/../rust_opt/target/armv7a-none-eabi/release/libitron.a(core-d049573bc16596f9.core.5587a85061e7188a-cgu.0.rcgu.o)
 .rodata..Lanon.a0506fc3c6b36e5783e71ab63da9841e.309
                0x00000000001352dd        0x5 ./gen/../rust_opt/target/armv7a-none-eabi/release/libitron.a(core-d049573bc16596f9.core.5587a85061e7188a-cgu.0.rcgu.o)
 *fill*         0x00000000001352e2        0x2 
 .rodata..Lanon.a0506fc3c6b36e5783e71ab63da9841e.311
                0x00000000001352e4       0x10 ./gen/../rust_opt/target/armv7a-none-eabi/release/libitron.a(core-d049573bc16596f9.core.5587a85061e7188a-cgu.0.rcgu.o)
 .rodata..Lanon.a0506fc3c6b36e5783e71ab63da9841e.312
                0x00000000001352f4       0x10 ./gen/../rust_opt/target/armv7a-none-eabi/release/libitron.a(core-d049573bc16596f9.core.5587a85061e7188a-cgu.0.rcgu.o)
 .rodata..Lanon.a0506fc3c6b36e5783e71ab63da9841e.314
                0x0000000000135304       0x10 ./gen/../rust_opt/target/armv7a-none-eabi/release/libitron.a(core-d049573bc16596f9.core.5587a85061e7188a-cgu.0.rcgu.o)
 .rodata..Lanon.a0506fc3c6b36e5783e71ab63da9841e.315
                0x0000000000135314       0x10 ./gen/../rust_opt/target/armv7a-none-eabi/release/libitron.a(core-d049573bc16596f9.core.5587a85061e7188a-cgu.0.rcgu.o)
 .rodata..Lanon.a0506fc3c6b36e5783e71ab63da9841e.316
                0x0000000000135324       0x4c ./gen/../rust_opt/target/armv7a-none-eabi/release/libitron.a(core-d049573bc16596f9.core.5587a85061e7188a-cgu.0.rcgu.o)
 .rodata..Lanon.a0506fc3c6b36e5783e71ab63da9841e.317
                0x0000000000135370        0x8 ./gen/../rust_opt/target/armv7a-none-eabi/release/libitron.a(core-d049573bc16596f9.core.5587a85061e7188a-cgu.0.rcgu.o)
 .rodata..Lanon.a0506fc3c6b36e5783e71ab63da9841e.318
                0x0000000000135378       0x2f ./gen/../rust_opt/target/armv7a-none-eabi/release/libitron.a(core-d049573bc16596f9.core.5587a85061e7188a-cgu.0.rcgu.o)
 *fill*         0x00000000001353a7        0x1 
 .rodata..Lanon.a0506fc3c6b36e5783e71ab63da9841e.319
                0x00000000001353a8       0x10 ./gen/../rust_opt/target/armv7a-none-eabi/release/libitron.a(core-d049573bc16596f9.core.5587a85061e7188a-cgu.0.rcgu.o)
 .rodata..Lanon.a0506fc3c6b36e5783e71ab63da9841e.320
                0x00000000001353b8        0xb ./gen/../rust_opt/target/armv7a-none-eabi/release/libitron.a(core-d049573bc16596f9.core.5587a85061e7188a-cgu.0.rcgu.o)
 .rodata..Lanon.a0506fc3c6b36e5783e71ab63da9841e.321
                0x00000000001353c3       0x31 ./gen/../rust_opt/target/armv7a-none-eabi/release/libitron.a(core-d049573bc16596f9.core.5587a85061e7188a-cgu.0.rcgu.o)
 .rodata..Lanon.a0506fc3c6b36e5783e71ab63da9841e.322
                0x00000000001353f4        0x8 ./gen/../rust_opt/target/armv7a-none-eabi/release/libitron.a(core-d049573bc16596f9.core.5587a85061e7188a-cgu.0.rcgu.o)
 .rodata..Lanon.a0506fc3c6b36e5783e71ab63da9841e.323
                0x00000000001353fc       0x2c ./gen/../rust_opt/target/armv7a-none-eabi/release/libitron.a(core-d049573bc16596f9.core.5587a85061e7188a-cgu.0.rcgu.o)
 .rodata..Lanon.a0506fc3c6b36e5783e71ab63da9841e.324
                0x0000000000135428        0x8 ./gen/../rust_opt/target/armv7a-none-eabi/release/libitron.a(core-d049573bc16596f9.core.5587a85061e7188a-cgu.0.rcgu.o)
 .rodata..Lanon.a0506fc3c6b36e5783e71ab63da9841e.325
                0x0000000000135430       0x1f ./gen/../rust_opt/target/armv7a-none-eabi/release/libitron.a(core-d049573bc16596f9.core.5587a85061e7188a-cgu.0.rcgu.o)
 *fill*         0x000000000013544f        0x1 
 .rodata..Lanon.a0506fc3c6b36e5783e71ab63da9841e.326
                0x0000000000135450       0x10 ./gen/../rust_opt/target/armv7a-none-eabi/release/libitron.a(core-d049573bc16596f9.core.5587a85061e7188a-cgu.0.rcgu.o)
 .rodata..Lanon.a0506fc3c6b36e5783e71ab63da9841e.327
                0x0000000000135460       0x10 ./gen/../rust_opt/target/armv7a-none-eabi/release/libitron.a(core-d049573bc16596f9.core.5587a85061e7188a-cgu.0.rcgu.o)
 .rodata..Lanon.a0506fc3c6b36e5783e71ab63da9841e.328
                0x0000000000135470       0x19 ./gen/../rust_opt/target/armv7a-none-eabi/release/libitron.a(core-d049573bc16596f9.core.5587a85061e7188a-cgu.0.rcgu.o)
 .rodata..Lanon.a0506fc3c6b36e5783e71ab63da9841e.329
                0x0000000000135489       0x1e ./gen/../rust_opt/target/armv7a-none-eabi/release/libitron.a(core-d049573bc16596f9.core.5587a85061e7188a-cgu.0.rcgu.o)
 .rodata..Lanon.a0506fc3c6b36e5783e71ab63da9841e.330
                0x00000000001354a7       0x1a ./gen/../rust_opt/target/armv7a-none-eabi/release/libitron.a(core-d049573bc16596f9.core.5587a85061e7188a-cgu.0.rcgu.o)
 .rodata..Lanon.a0506fc3c6b36e5783e71ab63da9841e.331
                0x00000000001354c1       0x12 ./gen/../rust_opt/target/armv7a-none-eabi/release/libitron.a(core-d049573bc16596f9.core.5587a85061e7188a-cgu.0.rcgu.o)
 *fill*         0x00000000001354d3        0x1 
 .rodata..Lanon.a0506fc3c6b36e5783e71ab63da9841e.332
                0x00000000001354d4       0x10 ./gen/../rust_opt/target/armv7a-none-eabi/release/libitron.a(core-d049573bc16596f9.core.5587a85061e7188a-cgu.0.rcgu.o)
 .rodata..Lanon.a0506fc3c6b36e5783e71ab63da9841e.333
                0x00000000001354e4       0x2a ./gen/../rust_opt/target/armv7a-none-eabi/release/libitron.a(core-d049573bc16596f9.core.5587a85061e7188a-cgu.0.rcgu.o)
 *fill*         0x000000000013550e        0x2 
 .rodata..Lanon.a0506fc3c6b36e5783e71ab63da9841e.334
                0x0000000000135510        0x8 ./gen/../rust_opt/target/armv7a-none-eabi/release/libitron.a(core-d049573bc16596f9.core.5587a85061e7188a-cgu.0.rcgu.o)
 .rodata..Lanon.a0506fc3c6b36e5783e71ab63da9841e.335
                0x0000000000135518       0x29 ./gen/../rust_opt/target/armv7a-none-eabi/release/libitron.a(core-d049573bc16596f9.core.5587a85061e7188a-cgu.0.rcgu.o)
 .rodata..Lanon.a0506fc3c6b36e5783e71ab63da9841e.336
                0x0000000000135541        0x6 ./gen/../rust_opt/target/armv7a-none-eabi/release/libitron.a(core-d049573bc16596f9.core.5587a85061e7188a-cgu.0.rcgu.o)
 .rodata..Lanon.a0506fc3c6b36e5783e71ab63da9841e.337
                0x0000000000135547        0xb ./gen/../rust_opt/target/armv7a-none-eabi/release/libitron.a(core-d049573bc16596f9.core.5587a85061e7188a-cgu.0.rcgu.o)
 .rodata..Lanon.a0506fc3c6b36e5783e71ab63da9841e.338
                0x0000000000135552       0x2a ./gen/../rust_opt/target/armv7a-none-eabi/release/libitron.a(core-d049573bc16596f9.core.5587a85061e7188a-cgu.0.rcgu.o)
 .rodata..Lanon.a0506fc3c6b36e5783e71ab63da9841e.339
                0x000000000013557c        0x8 ./gen/../rust_opt/target/armv7a-none-eabi/release/libitron.a(core-d049573bc16596f9.core.5587a85061e7188a-cgu.0.rcgu.o)
 .rodata..Lanon.a0506fc3c6b36e5783e71ab63da9841e.340
                0x0000000000135584       0x1b ./gen/../rust_opt/target/armv7a-none-eabi/release/libitron.a(core-d049573bc16596f9.core.5587a85061e7188a-cgu.0.rcgu.o)
 .rodata..Lanon.a0506fc3c6b36e5783e71ab63da9841e.341
                0x000000000013559f      0x100 ./gen/../rust_opt/target/armv7a-none-eabi/release/libitron.a(core-d049573bc16596f9.core.5587a85061e7188a-cgu.0.rcgu.o)
 .rodata..Lanon.a0506fc3c6b36e5783e71ab63da9841e.342
                0x000000000013569f       0x1f ./gen/../rust_opt/target/armv7a-none-eabi/release/libitron.a(core-d049573bc16596f9.core.5587a85061e7188a-cgu.0.rcgu.o)
 *fill*         0x00000000001356be        0x2 
 .rodata..Lanon.a0506fc3c6b36e5783e71ab63da9841e.343
                0x00000000001356c0       0x10 ./gen/../rust_opt/target/armv7a-none-eabi/release/libitron.a(core-d049573bc16596f9.core.5587a85061e7188a-cgu.0.rcgu.o)
 .rodata..Lanon.a0506fc3c6b36e5783e71ab63da9841e.344
                0x00000000001356d0       0x10 ./gen/../rust_opt/target/armv7a-none-eabi/release/libitron.a(core-d049573bc16596f9.core.5587a85061e7188a-cgu.0.rcgu.o)
 .rodata..Lanon.a0506fc3c6b36e5783e71ab63da9841e.345
                0x00000000001356e0       0x10 ./gen/../rust_opt/target/armv7a-none-eabi/release/libitron.a(core-d049573bc16596f9.core.5587a85061e7188a-cgu.0.rcgu.o)
 .rodata..Lanon.a0506fc3c6b36e5783e71ab63da9841e.346
                0x00000000001356f0       0x10 ./gen/../rust_opt/target/armv7a-none-eabi/release/libitron.a(core-d049573bc16596f9.core.5587a85061e7188a-cgu.0.rcgu.o)
 .rodata..Lanon.a0506fc3c6b36e5783e71ab63da9841e.347
                0x0000000000135700       0x10 ./gen/../rust_opt/target/armv7a-none-eabi/release/libitron.a(core-d049573bc16596f9.core.5587a85061e7188a-cgu.0.rcgu.o)
 .rodata..Lanon.a0506fc3c6b36e5783e71ab63da9841e.348
                0x0000000000135710       0x1d ./gen/../rust_opt/target/armv7a-none-eabi/release/libitron.a(core-d049573bc16596f9.core.5587a85061e7188a-cgu.0.rcgu.o)
 *fill*         0x000000000013572d        0x3 
 .rodata..Lanon.a0506fc3c6b36e5783e71ab63da9841e.349
                0x0000000000135730       0x10 ./gen/../rust_opt/target/armv7a-none-eabi/release/libitron.a(core-d049573bc16596f9.core.5587a85061e7188a-cgu.0.rcgu.o)
 .rodata..Lanon.a0506fc3c6b36e5783e71ab63da9841e.350
                0x0000000000135740        0x2 ./gen/../rust_opt/target/armv7a-none-eabi/release/libitron.a(core-d049573bc16596f9.core.5587a85061e7188a-cgu.0.rcgu.o)
 *fill*         0x0000000000135742        0x2 
 .rodata..Lanon.a0506fc3c6b36e5783e71ab63da9841e.351
                0x0000000000135744        0x8 ./gen/../rust_opt/target/armv7a-none-eabi/release/libitron.a(core-d049573bc16596f9.core.5587a85061e7188a-cgu.0.rcgu.o)
 .rodata..Lanon.a0506fc3c6b36e5783e71ab63da9841e.352
                0x000000000013574c       0x18 ./gen/../rust_opt/target/armv7a-none-eabi/release/libitron.a(core-d049573bc16596f9.core.5587a85061e7188a-cgu.0.rcgu.o)
 .rodata..Lanon.a0506fc3c6b36e5783e71ab63da9841e.353
                0x0000000000135764       0x10 ./gen/../rust_opt/target/armv7a-none-eabi/release/libitron.a(core-d049573bc16596f9.core.5587a85061e7188a-cgu.0.rcgu.o)
 .rodata.str1.1
                0x0000000000135774       0x1c ./gen/../rust_opt/target/armv7a-none-eabi/release/libitron.a(core-d049573bc16596f9.core.5587a85061e7188a-cgu.0.rcgu.o)
                                          0x1 (size before relaxing)
 .rodata..Lanon.a0506fc3c6b36e5783e71ab63da9841e.355
                0x0000000000135774        0xa ./gen/../rust_opt/target/armv7a-none-eabi/release/libitron.a(core-d049573bc16596f9.core.5587a85061e7188a-cgu.0.rcgu.o)
 *fill*         0x000000000013577e        0x2 
 .rodata..Lanon.a0506fc3c6b36e5783e71ab63da9841e.356
                0x0000000000135780       0x10 ./gen/../rust_opt/target/armv7a-none-eabi/release/libitron.a(core-d049573bc16596f9.core.5587a85061e7188a-cgu.0.rcgu.o)
 .rodata..Lanon.a0506fc3c6b36e5783e71ab63da9841e.357
                0x0000000000135790        0x6 ./gen/../rust_opt/target/armv7a-none-eabi/release/libitron.a(core-d049573bc16596f9.core.5587a85061e7188a-cgu.0.rcgu.o)
 .rodata..Lanon.a0506fc3c6b36e5783e71ab63da9841e.358
                0x0000000000135796       0x16 ./gen/../rust_opt/target/armv7a-none-eabi/release/libitron.a(core-d049573bc16596f9.core.5587a85061e7188a-cgu.0.rcgu.o)
 .rodata..Lanon.a0506fc3c6b36e5783e71ab63da9841e.359
                0x00000000001357ac        0x8 ./gen/../rust_opt/target/armv7a-none-eabi/release/libitron.a(core-d049573bc16596f9.core.5587a85061e7188a-cgu.0.rcgu.o)
 .rodata..Lanon.a0506fc3c6b36e5783e71ab63da9841e.360
                0x00000000001357b4        0x5 ./gen/../rust_opt/target/armv7a-none-eabi/release/libitron.a(core-d049573bc16596f9.core.5587a85061e7188a-cgu.0.rcgu.o)
 .rodata..Lanon.a0506fc3c6b36e5783e71ab63da9841e.361
                0x00000000001357b9        0xe ./gen/../rust_opt/target/armv7a-none-eabi/release/libitron.a(core-d049573bc16596f9.core.5587a85061e7188a-cgu.0.rcgu.o)
 .rodata..Lanon.a0506fc3c6b36e5783e71ab63da9841e.364
                0x00000000001357c7        0x1 ./gen/../rust_opt/target/armv7a-none-eabi/release/libitron.a(core-d049573bc16596f9.core.5587a85061e7188a-cgu.0.rcgu.o)
 .rodata..Lanon.a0506fc3c6b36e5783e71ab63da9841e.365
                0x00000000001357c8       0x20 ./gen/../rust_opt/target/armv7a-none-eabi/release/libitron.a(core-d049573bc16596f9.core.5587a85061e7188a-cgu.0.rcgu.o)
 .rodata..Lanon.a0506fc3c6b36e5783e71ab63da9841e.366
                0x00000000001357e8        0xb ./gen/../rust_opt/target/armv7a-none-eabi/release/libitron.a(core-d049573bc16596f9.core.5587a85061e7188a-cgu.0.rcgu.o)
 .rodata..Lanon.a0506fc3c6b36e5783e71ab63da9841e.367
                0x00000000001357f3       0x26 ./gen/../rust_opt/target/armv7a-none-eabi/release/libitron.a(core-d049573bc16596f9.core.5587a85061e7188a-cgu.0.rcgu.o)
 .rodata..Lanon.a0506fc3c6b36e5783e71ab63da9841e.369
                0x0000000000135819        0x6 ./gen/../rust_opt/target/armv7a-none-eabi/release/libitron.a(core-d049573bc16596f9.core.5587a85061e7188a-cgu.0.rcgu.o)
 *fill*         0x000000000013581f        0x1 
 .rodata..Lanon.a0506fc3c6b36e5783e71ab63da9841e.370
                0x0000000000135820       0x28 ./gen/../rust_opt/target/armv7a-none-eabi/release/libitron.a(core-d049573bc16596f9.core.5587a85061e7188a-cgu.0.rcgu.o)
 .rodata..Lanon.a0506fc3c6b36e5783e71ab63da9841e.371
                0x0000000000135848       0x16 ./gen/../rust_opt/target/armv7a-none-eabi/release/libitron.a(core-d049573bc16596f9.core.5587a85061e7188a-cgu.0.rcgu.o)
 *fill*         0x000000000013585e        0x2 
 .rodata..Lanon.a0506fc3c6b36e5783e71ab63da9841e.372
                0x0000000000135860       0x18 ./gen/../rust_opt/target/armv7a-none-eabi/release/libitron.a(core-d049573bc16596f9.core.5587a85061e7188a-cgu.0.rcgu.o)
 .rodata..Lanon.a0506fc3c6b36e5783e71ab63da9841e.373
                0x0000000000135878       0x10 ./gen/../rust_opt/target/armv7a-none-eabi/release/libitron.a(core-d049573bc16596f9.core.5587a85061e7188a-cgu.0.rcgu.o)
 .rodata..Lanon.a0506fc3c6b36e5783e71ab63da9841e.374
                0x0000000000135888        0x2 ./gen/../rust_opt/target/armv7a-none-eabi/release/libitron.a(core-d049573bc16596f9.core.5587a85061e7188a-cgu.0.rcgu.o)
 .rodata..Lanon.a0506fc3c6b36e5783e71ab63da9841e.375
                0x000000000013588a        0x3 ./gen/../rust_opt/target/armv7a-none-eabi/release/libitron.a(core-d049573bc16596f9.core.5587a85061e7188a-cgu.0.rcgu.o)
 .rodata..Lanon.a0506fc3c6b36e5783e71ab63da9841e.376
                0x000000000013588d        0x2 ./gen/../rust_opt/target/armv7a-none-eabi/release/libitron.a(core-d049573bc16596f9.core.5587a85061e7188a-cgu.0.rcgu.o)
 .rodata..Lanon.a0506fc3c6b36e5783e71ab63da9841e.377
                0x000000000013588f        0x1 ./gen/../rust_opt/target/armv7a-none-eabi/release/libitron.a(core-d049573bc16596f9.core.5587a85061e7188a-cgu.0.rcgu.o)
 .rodata..Lanon.a0506fc3c6b36e5783e71ab63da9841e.378
                0x0000000000135890       0x18 ./gen/../rust_opt/target/armv7a-none-eabi/release/libitron.a(core-d049573bc16596f9.core.5587a85061e7188a-cgu.0.rcgu.o)
 .rodata..Lanon.a0506fc3c6b36e5783e71ab63da9841e.379
                0x00000000001358a8       0x10 ./gen/../rust_opt/target/armv7a-none-eabi/release/libitron.a(core-d049573bc16596f9.core.5587a85061e7188a-cgu.0.rcgu.o)
 .rodata..Lanon.a0506fc3c6b36e5783e71ab63da9841e.381
                0x00000000001358b8       0x14 ./gen/../rust_opt/target/armv7a-none-eabi/release/libitron.a(core-d049573bc16596f9.core.5587a85061e7188a-cgu.0.rcgu.o)
 .rodata..Lanon.a0506fc3c6b36e5783e71ab63da9841e.382
                0x00000000001358cc       0x10 ./gen/../rust_opt/target/armv7a-none-eabi/release/libitron.a(core-d049573bc16596f9.core.5587a85061e7188a-cgu.0.rcgu.o)
 .rodata..Lanon.a0506fc3c6b36e5783e71ab63da9841e.383
                0x00000000001358dc       0x10 ./gen/../rust_opt/target/armv7a-none-eabi/release/libitron.a(core-d049573bc16596f9.core.5587a85061e7188a-cgu.0.rcgu.o)
 .rodata..Lanon.a0506fc3c6b36e5783e71ab63da9841e.384
                0x00000000001358ec        0x8 ./gen/../rust_opt/target/armv7a-none-eabi/release/libitron.a(core-d049573bc16596f9.core.5587a85061e7188a-cgu.0.rcgu.o)
 .rodata..Lanon.a0506fc3c6b36e5783e71ab63da9841e.385
                0x00000000001358f4       0x18 ./gen/../rust_opt/target/armv7a-none-eabi/release/libitron.a(core-d049573bc16596f9.core.5587a85061e7188a-cgu.0.rcgu.o)
 .rodata..Lanon.a0506fc3c6b36e5783e71ab63da9841e.387
                0x000000000013590c        0x8 ./gen/../rust_opt/target/armv7a-none-eabi/release/libitron.a(core-d049573bc16596f9.core.5587a85061e7188a-cgu.0.rcgu.o)
 .rodata..Lanon.a0506fc3c6b36e5783e71ab63da9841e.388
                0x0000000000135914       0x10 ./gen/../rust_opt/target/armv7a-none-eabi/release/libitron.a(core-d049573bc16596f9.core.5587a85061e7188a-cgu.0.rcgu.o)
 .rodata..Lanon.a0506fc3c6b36e5783e71ab63da9841e.389
                0x0000000000135924       0x3b ./gen/../rust_opt/target/armv7a-none-eabi/release/libitron.a(core-d049573bc16596f9.core.5587a85061e7188a-cgu.0.rcgu.o)
 .rodata..Lanon.a0506fc3c6b36e5783e71ab63da9841e.390
                0x000000000013595f       0x48 ./gen/../rust_opt/target/armv7a-none-eabi/release/libitron.a(core-d049573bc16596f9.core.5587a85061e7188a-cgu.0.rcgu.o)
 .rodata..Lanon.a0506fc3c6b36e5783e71ab63da9841e.391
                0x00000000001359a7       0x25 ./gen/../rust_opt/target/armv7a-none-eabi/release/libitron.a(core-d049573bc16596f9.core.5587a85061e7188a-cgu.0.rcgu.o)
 .rodata..Lanon.a0506fc3c6b36e5783e71ab63da9841e.392
                0x00000000001359cc       0x10 ./gen/../rust_opt/target/armv7a-none-eabi/release/libitron.a(core-d049573bc16596f9.core.5587a85061e7188a-cgu.0.rcgu.o)
 .rodata..Lanon.a0506fc3c6b36e5783e71ab63da9841e.393
                0x00000000001359dc       0x10 ./gen/../rust_opt/target/armv7a-none-eabi/release/libitron.a(core-d049573bc16596f9.core.5587a85061e7188a-cgu.0.rcgu.o)
 .rodata..Lanon.a0506fc3c6b36e5783e71ab63da9841e.394
                0x00000000001359ec       0x58 ./gen/../rust_opt/target/armv7a-none-eabi/release/libitron.a(core-d049573bc16596f9.core.5587a85061e7188a-cgu.0.rcgu.o)
 .rodata..Lanon.a0506fc3c6b36e5783e71ab63da9841e.395
                0x0000000000135a44       0xd0 ./gen/../rust_opt/target/armv7a-none-eabi/release/libitron.a(core-d049573bc16596f9.core.5587a85061e7188a-cgu.0.rcgu.o)
 .rodata..Lanon.a0506fc3c6b36e5783e71ab63da9841e.396
                0x0000000000135b14      0x1e6 ./gen/../rust_opt/target/armv7a-none-eabi/release/libitron.a(core-d049573bc16596f9.core.5587a85061e7188a-cgu.0.rcgu.o)
 .rodata..Lanon.a0506fc3c6b36e5783e71ab63da9841e.397
                0x0000000000135cfa       0x50 ./gen/../rust_opt/target/armv7a-none-eabi/release/libitron.a(core-d049573bc16596f9.core.5587a85061e7188a-cgu.0.rcgu.o)
 .rodata..Lanon.a0506fc3c6b36e5783e71ab63da9841e.398
                0x0000000000135d4a      0x122 ./gen/../rust_opt/target/armv7a-none-eabi/release/libitron.a(core-d049573bc16596f9.core.5587a85061e7188a-cgu.0.rcgu.o)
 .rodata..Lanon.a0506fc3c6b36e5783e71ab63da9841e.399
                0x0000000000135e6c      0x129 ./gen/../rust_opt/target/armv7a-none-eabi/release/libitron.a(core-d049573bc16596f9.core.5587a85061e7188a-cgu.0.rcgu.o)
 .rodata..Lanon.a0506fc3c6b36e5783e71ab63da9841e.400
                0x0000000000135f95       0x28 ./gen/../rust_opt/target/armv7a-none-eabi/release/libitron.a(core-d049573bc16596f9.core.5587a85061e7188a-cgu.0.rcgu.o)
 *fill*         0x0000000000135fbd        0x3 
 .rodata..Lanon.a0506fc3c6b36e5783e71ab63da9841e.401
                0x0000000000135fc0       0x10 ./gen/../rust_opt/target/armv7a-none-eabi/release/libitron.a(core-d049573bc16596f9.core.5587a85061e7188a-cgu.0.rcgu.o)
 .rodata..Lanon.a0506fc3c6b36e5783e71ab63da9841e.402
                0x0000000000135fd0       0x10 ./gen/../rust_opt/target/armv7a-none-eabi/release/libitron.a(core-d049573bc16596f9.core.5587a85061e7188a-cgu.0.rcgu.o)
 .rodata..Lanon.a0506fc3c6b36e5783e71ab63da9841e.403
                0x0000000000135fe0       0x10 ./gen/../rust_opt/target/armv7a-none-eabi/release/libitron.a(core-d049573bc16596f9.core.5587a85061e7188a-cgu.0.rcgu.o)
 .rodata..Lanon.a0506fc3c6b36e5783e71ab63da9841e.404
                0x0000000000135ff0        0x7 ./gen/../rust_opt/target/armv7a-none-eabi/release/libitron.a(core-d049573bc16596f9.core.5587a85061e7188a-cgu.0.rcgu.o)
 *fill*         0x0000000000135ff7        0x1 
 .rodata..Lanon.a0506fc3c6b36e5783e71ab63da9841e.405
                0x0000000000135ff8       0x10 ./gen/../rust_opt/target/armv7a-none-eabi/release/libitron.a(core-d049573bc16596f9.core.5587a85061e7188a-cgu.0.rcgu.o)
 .rodata..Lanon.a0506fc3c6b36e5783e71ab63da9841e.406
                0x0000000000136008        0x5 ./gen/../rust_opt/target/armv7a-none-eabi/release/libitron.a(core-d049573bc16596f9.core.5587a85061e7188a-cgu.0.rcgu.o)
 .rodata..Lanon.a0506fc3c6b36e5783e71ab63da9841e.407
                0x000000000013600d        0x5 ./gen/../rust_opt/target/armv7a-none-eabi/release/libitron.a(core-d049573bc16596f9.core.5587a85061e7188a-cgu.0.rcgu.o)
 *fill*         0x0000000000136012        0x2 
 .rodata..Lanon.a0506fc3c6b36e5783e71ab63da9841e.408
                0x0000000000136014       0x10 ./gen/../rust_opt/target/armv7a-none-eabi/release/libitron.a(core-d049573bc16596f9.core.5587a85061e7188a-cgu.0.rcgu.o)
 .rodata..Lanon.a0506fc3c6b36e5783e71ab63da9841e.410
                0x0000000000136024       0x10 ./gen/../rust_opt/target/armv7a-none-eabi/release/libitron.a(core-d049573bc16596f9.core.5587a85061e7188a-cgu.0.rcgu.o)
 .rodata..Lanon.a0506fc3c6b36e5783e71ab63da9841e.411
                0x0000000000136034        0x6 ./gen/../rust_opt/target/armv7a-none-eabi/release/libitron.a(core-d049573bc16596f9.core.5587a85061e7188a-cgu.0.rcgu.o)
 .rodata..Lanon.a0506fc3c6b36e5783e71ab63da9841e.412
                0x000000000013603a        0xa ./gen/../rust_opt/target/armv7a-none-eabi/release/libitron.a(core-d049573bc16596f9.core.5587a85061e7188a-cgu.0.rcgu.o)
 .rodata..Lanon.a0506fc3c6b36e5783e71ab63da9841e.413
                0x0000000000136044       0x2d ./gen/../rust_opt/target/armv7a-none-eabi/release/libitron.a(core-d049573bc16596f9.core.5587a85061e7188a-cgu.0.rcgu.o)
 .rodata..Lanon.a0506fc3c6b36e5783e71ab63da9841e.414
                0x0000000000136071       0x18 ./gen/../rust_opt/target/armv7a-none-eabi/release/libitron.a(core-d049573bc16596f9.core.5587a85061e7188a-cgu.0.rcgu.o)
 .rodata..Lanon.a0506fc3c6b36e5783e71ab63da9841e.415
                0x0000000000136089      0x100 ./gen/../rust_opt/target/armv7a-none-eabi/release/libitron.a(core-d049573bc16596f9.core.5587a85061e7188a-cgu.0.rcgu.o)
 .rodata..Lanon.a0506fc3c6b36e5783e71ab63da9841e.416
                0x0000000000136189       0x24 ./gen/../rust_opt/target/armv7a-none-eabi/release/libitron.a(core-d049573bc16596f9.core.5587a85061e7188a-cgu.0.rcgu.o)
 *fill*         0x00000000001361ad        0x3 
 .rodata..Lanon.a0506fc3c6b36e5783e71ab63da9841e.418
                0x00000000001361b0       0x10 ./gen/../rust_opt/target/armv7a-none-eabi/release/libitron.a(core-d049573bc16596f9.core.5587a85061e7188a-cgu.0.rcgu.o)
 .rodata..Lanon.a0506fc3c6b36e5783e71ab63da9841e.419
                0x00000000001361c0       0x1e ./gen/../rust_opt/target/armv7a-none-eabi/release/libitron.a(core-d049573bc16596f9.core.5587a85061e7188a-cgu.0.rcgu.o)
 *fill*         0x00000000001361de        0x2 
 .rodata..Lanon.a0506fc3c6b36e5783e71ab63da9841e.420
                0x00000000001361e0       0x10 ./gen/../rust_opt/target/armv7a-none-eabi/release/libitron.a(core-d049573bc16596f9.core.5587a85061e7188a-cgu.0.rcgu.o)
 .rodata..Lanon.a0506fc3c6b36e5783e71ab63da9841e.421
                0x00000000001361f0       0x10 ./gen/../rust_opt/target/armv7a-none-eabi/release/libitron.a(core-d049573bc16596f9.core.5587a85061e7188a-cgu.0.rcgu.o)
 .rodata..Lanon.a0506fc3c6b36e5783e71ab63da9841e.422
                0x0000000000136200       0x1a ./gen/../rust_opt/target/armv7a-none-eabi/release/libitron.a(core-d049573bc16596f9.core.5587a85061e7188a-cgu.0.rcgu.o)
 .rodata..Lanon.a0506fc3c6b36e5783e71ab63da9841e.423
                0x000000000013621a       0x1d ./gen/../rust_opt/target/armv7a-none-eabi/release/libitron.a(core-d049573bc16596f9.core.5587a85061e7188a-cgu.0.rcgu.o)
 .rodata..Lanon.a0506fc3c6b36e5783e71ab63da9841e.424
                0x0000000000136237       0x1b ./gen/../rust_opt/target/armv7a-none-eabi/release/libitron.a(core-d049573bc16596f9.core.5587a85061e7188a-cgu.0.rcgu.o)
 .rodata..Lanon.a0506fc3c6b36e5783e71ab63da9841e.425
                0x0000000000136252       0x1e ./gen/../rust_opt/target/armv7a-none-eabi/release/libitron.a(core-d049573bc16596f9.core.5587a85061e7188a-cgu.0.rcgu.o)
 .rodata..Lanon.a0506fc3c6b36e5783e71ab63da9841e.426
                0x0000000000136270       0x18 ./gen/../rust_opt/target/armv7a-none-eabi/release/libitron.a(core-d049573bc16596f9.core.5587a85061e7188a-cgu.0.rcgu.o)
 .rodata..Lanon.a0506fc3c6b36e5783e71ab63da9841e.427
                0x0000000000136288        0x1 ./gen/../rust_opt/target/armv7a-none-eabi/release/libitron.a(core-d049573bc16596f9.core.5587a85061e7188a-cgu.0.rcgu.o)
 *fill*         0x0000000000136289        0x3 
 .rodata..Lanon.a0506fc3c6b36e5783e71ab63da9841e.428
                0x000000000013628c        0x8 ./gen/../rust_opt/target/armv7a-none-eabi/release/libitron.a(core-d049573bc16596f9.core.5587a85061e7188a-cgu.0.rcgu.o)
 .rodata..Lanon.a0506fc3c6b36e5783e71ab63da9841e.429
                0x0000000000136294       0x18 ./gen/../rust_opt/target/armv7a-none-eabi/release/libitron.a(core-d049573bc16596f9.core.5587a85061e7188a-cgu.0.rcgu.o)
 .rodata..Lanon.a0506fc3c6b36e5783e71ab63da9841e.430
                0x00000000001362ac       0x10 ./gen/../rust_opt/target/armv7a-none-eabi/release/libitron.a(core-d049573bc16596f9.core.5587a85061e7188a-cgu.0.rcgu.o)
 .rodata..Lanon.a0506fc3c6b36e5783e71ab63da9841e.431
                0x00000000001362bc       0x1c ./gen/../rust_opt/target/armv7a-none-eabi/release/libitron.a(core-d049573bc16596f9.core.5587a85061e7188a-cgu.0.rcgu.o)
 .rodata._ZN4core3num7dec2flt5table17POWER_OF_FIVE_12817h60379a77b3c83400E
                0x00000000001362d8     0x28b0 ./gen/../rust_opt/target/armv7a-none-eabi/release/libitron.a(core-d049573bc16596f9.core.5587a85061e7188a-cgu.0.rcgu.o)
 .rodata..Lanon.a0506fc3c6b36e5783e71ab63da9841e.432
                0x0000000000138b88       0x40 ./gen/../rust_opt/target/armv7a-none-eabi/release/libitron.a(core-d049573bc16596f9.core.5587a85061e7188a-cgu.0.rcgu.o)
 .rodata..Lanon.a0506fc3c6b36e5783e71ab63da9841e.433
                0x0000000000138bc8        0x8 ./gen/../rust_opt/target/armv7a-none-eabi/release/libitron.a(core-d049573bc16596f9.core.5587a85061e7188a-cgu.0.rcgu.o)
 .rodata..Lanon.a0506fc3c6b36e5783e71ab63da9841e.434
                0x0000000000138bd0       0x18 ./gen/../rust_opt/target/armv7a-none-eabi/release/libitron.a(core-d049573bc16596f9.core.5587a85061e7188a-cgu.0.rcgu.o)
 .rodata..Lanon.a0506fc3c6b36e5783e71ab63da9841e.435
                0x0000000000138be8       0x1c ./gen/../rust_opt/target/armv7a-none-eabi/release/libitron.a(core-d049573bc16596f9.core.5587a85061e7188a-cgu.0.rcgu.o)
 .rodata..Lanon.a0506fc3c6b36e5783e71ab63da9841e.436
                0x0000000000138c04       0x18 ./gen/../rust_opt/target/armv7a-none-eabi/release/libitron.a(core-d049573bc16596f9.core.5587a85061e7188a-cgu.0.rcgu.o)
 .rodata..Lanon.a0506fc3c6b36e5783e71ab63da9841e.437
                0x0000000000138c1c       0x12 ./gen/../rust_opt/target/armv7a-none-eabi/release/libitron.a(core-d049573bc16596f9.core.5587a85061e7188a-cgu.0.rcgu.o)
 .rodata..Lanon.a0506fc3c6b36e5783e71ab63da9841e.438
                0x0000000000138c2e       0x13 ./gen/../rust_opt/target/armv7a-none-eabi/release/libitron.a(core-d049573bc16596f9.core.5587a85061e7188a-cgu.0.rcgu.o)
 .rodata..Lanon.a0506fc3c6b36e5783e71ab63da9841e.439
                0x0000000000138c41       0x15 ./gen/../rust_opt/target/armv7a-none-eabi/release/libitron.a(core-d049573bc16596f9.core.5587a85061e7188a-cgu.0.rcgu.o)
 *fill*         0x0000000000138c56        0x2 
 .rodata..Lanon.a0506fc3c6b36e5783e71ab63da9841e.440
                0x0000000000138c58       0x18 ./gen/../rust_opt/target/armv7a-none-eabi/release/libitron.a(core-d049573bc16596f9.core.5587a85061e7188a-cgu.0.rcgu.o)
 .rodata..Lanon.a0506fc3c6b36e5783e71ab63da9841e.441
                0x0000000000138c70       0x48 ./gen/../rust_opt/target/armv7a-none-eabi/release/libitron.a(core-d049573bc16596f9.core.5587a85061e7188a-cgu.0.rcgu.o)
 .rodata..Lanon.a0506fc3c6b36e5783e71ab63da9841e.442
                0x0000000000138cb8       0x13 ./gen/../rust_opt/target/armv7a-none-eabi/release/libitron.a(core-d049573bc16596f9.core.5587a85061e7188a-cgu.0.rcgu.o)
 *fill*         0x0000000000138ccb        0x1 
 .rodata..Lanon.a0506fc3c6b36e5783e71ab63da9841e.443
                0x0000000000138ccc       0x18 ./gen/../rust_opt/target/armv7a-none-eabi/release/libitron.a(core-d049573bc16596f9.core.5587a85061e7188a-cgu.0.rcgu.o)
 .rodata..Lanon.a0506fc3c6b36e5783e71ab63da9841e.444
                0x0000000000138ce4       0x19 ./gen/../rust_opt/target/armv7a-none-eabi/release/libitron.a(core-d049573bc16596f9.core.5587a85061e7188a-cgu.0.rcgu.o)
 *fill*         0x0000000000138cfd        0x3 
 .rodata..Lanon.a0506fc3c6b36e5783e71ab63da9841e.445
                0x0000000000138d00        0x8 ./gen/../rust_opt/target/armv7a-none-eabi/release/libitron.a(core-d049573bc16596f9.core.5587a85061e7188a-cgu.0.rcgu.o)
 .rodata..Lanon.a0506fc3c6b36e5783e71ab63da9841e.446
                0x0000000000138d08       0x39 ./gen/../rust_opt/target/armv7a-none-eabi/release/libitron.a(core-d049573bc16596f9.core.5587a85061e7188a-cgu.0.rcgu.o)
 *fill*         0x0000000000138d41        0x3 
 .rodata..Lanon.a0506fc3c6b36e5783e71ab63da9841e.447
                0x0000000000138d44        0x8 ./gen/../rust_opt/target/armv7a-none-eabi/release/libitron.a(core-d049573bc16596f9.core.5587a85061e7188a-cgu.0.rcgu.o)
 .rodata..Lanon.a0506fc3c6b36e5783e71ab63da9841e.448
                0x0000000000138d4c       0x22 ./gen/../rust_opt/target/armv7a-none-eabi/release/libitron.a(core-d049573bc16596f9.core.5587a85061e7188a-cgu.0.rcgu.o)
 *fill*         0x0000000000138d6e        0x2 
 .rodata..Lanon.a0506fc3c6b36e5783e71ab63da9841e.449
                0x0000000000138d70        0x8 ./gen/../rust_opt/target/armv7a-none-eabi/release/libitron.a(core-d049573bc16596f9.core.5587a85061e7188a-cgu.0.rcgu.o)
 .rodata..Lanon.a0506fc3c6b36e5783e71ab63da9841e.450
                0x0000000000138d78       0x23 ./gen/../rust_opt/target/armv7a-none-eabi/release/libitron.a(core-d049573bc16596f9.core.5587a85061e7188a-cgu.0.rcgu.o)
 *fill*         0x0000000000138d9b        0x1 
 .rodata..Lanon.a0506fc3c6b36e5783e71ab63da9841e.451
                0x0000000000138d9c        0x8 ./gen/../rust_opt/target/armv7a-none-eabi/release/libitron.a(core-d049573bc16596f9.core.5587a85061e7188a-cgu.0.rcgu.o)
 .rodata..Lanon.a0506fc3c6b36e5783e71ab63da9841e.452
                0x0000000000138da4       0x27 ./gen/../rust_opt/target/armv7a-none-eabi/release/libitron.a(core-d049573bc16596f9.core.5587a85061e7188a-cgu.0.rcgu.o)
 *fill*         0x0000000000138dcb        0x1 
 .rodata..Lanon.a0506fc3c6b36e5783e71ab63da9841e.453
                0x0000000000138dcc        0x8 ./gen/../rust_opt/target/armv7a-none-eabi/release/libitron.a(core-d049573bc16596f9.core.5587a85061e7188a-cgu.0.rcgu.o)
 .rodata..Lanon.a0506fc3c6b36e5783e71ab63da9841e.454
                0x0000000000138dd4       0x3b ./gen/../rust_opt/target/armv7a-none-eabi/release/libitron.a(core-d049573bc16596f9.core.5587a85061e7188a-cgu.0.rcgu.o)
 *fill*         0x0000000000138e0f        0x1 
 .rodata..Lanon.a0506fc3c6b36e5783e71ab63da9841e.455
                0x0000000000138e10        0x8 ./gen/../rust_opt/target/armv7a-none-eabi/release/libitron.a(core-d049573bc16596f9.core.5587a85061e7188a-cgu.0.rcgu.o)
 .rodata..Lanon.a0506fc3c6b36e5783e71ab63da9841e.456
                0x0000000000138e18       0x21 ./gen/../rust_opt/target/armv7a-none-eabi/release/libitron.a(core-d049573bc16596f9.core.5587a85061e7188a-cgu.0.rcgu.o)
 *fill*         0x0000000000138e39        0x3 
 .rodata..Lanon.a0506fc3c6b36e5783e71ab63da9841e.457
                0x0000000000138e3c        0x8 ./gen/../rust_opt/target/armv7a-none-eabi/release/libitron.a(core-d049573bc16596f9.core.5587a85061e7188a-cgu.0.rcgu.o)
 .rodata..Lanon.a0506fc3c6b36e5783e71ab63da9841e.458
                0x0000000000138e44       0x22 ./gen/../rust_opt/target/armv7a-none-eabi/release/libitron.a(core-d049573bc16596f9.core.5587a85061e7188a-cgu.0.rcgu.o)
 *fill*         0x0000000000138e66        0x2 
 .rodata..Lanon.a0506fc3c6b36e5783e71ab63da9841e.459
                0x0000000000138e68        0x8 ./gen/../rust_opt/target/armv7a-none-eabi/release/libitron.a(core-d049573bc16596f9.core.5587a85061e7188a-cgu.0.rcgu.o)
 .rodata..Lanon.a0506fc3c6b36e5783e71ab63da9841e.460
                0x0000000000138e70       0x26 ./gen/../rust_opt/target/armv7a-none-eabi/release/libitron.a(core-d049573bc16596f9.core.5587a85061e7188a-cgu.0.rcgu.o)
 *fill*         0x0000000000138e96        0x2 
 .rodata..Lanon.a0506fc3c6b36e5783e71ab63da9841e.461
                0x0000000000138e98        0x8 ./gen/../rust_opt/target/armv7a-none-eabi/release/libitron.a(core-d049573bc16596f9.core.5587a85061e7188a-cgu.0.rcgu.o)
 .rodata..Lanon.a0506fc3c6b36e5783e71ab63da9841e.462
                0x0000000000138ea0       0x3a ./gen/../rust_opt/target/armv7a-none-eabi/release/libitron.a(core-d049573bc16596f9.core.5587a85061e7188a-cgu.0.rcgu.o)
 *fill*         0x0000000000138eda        0x2 
 .rodata..Lanon.a0506fc3c6b36e5783e71ab63da9841e.463
                0x0000000000138edc        0x8 ./gen/../rust_opt/target/armv7a-none-eabi/release/libitron.a(core-d049573bc16596f9.core.5587a85061e7188a-cgu.0.rcgu.o)
 .rodata..Lanon.a0506fc3c6b36e5783e71ab63da9841e.464
                0x0000000000138ee4       0x22 ./gen/../rust_opt/target/armv7a-none-eabi/release/libitron.a(core-d049573bc16596f9.core.5587a85061e7188a-cgu.0.rcgu.o)
 *fill*         0x0000000000138f06        0x2 
 .rodata..Lanon.a0506fc3c6b36e5783e71ab63da9841e.465
                0x0000000000138f08        0x8 ./gen/../rust_opt/target/armv7a-none-eabi/release/libitron.a(core-d049573bc16596f9.core.5587a85061e7188a-cgu.0.rcgu.o)
 .rodata..Lanon.a0506fc3c6b36e5783e71ab63da9841e.466
                0x0000000000138f10       0x23 ./gen/../rust_opt/target/armv7a-none-eabi/release/libitron.a(core-d049573bc16596f9.core.5587a85061e7188a-cgu.0.rcgu.o)
 *fill*         0x0000000000138f33        0x1 
 .rodata..Lanon.a0506fc3c6b36e5783e71ab63da9841e.467
                0x0000000000138f34        0x8 ./gen/../rust_opt/target/armv7a-none-eabi/release/libitron.a(core-d049573bc16596f9.core.5587a85061e7188a-cgu.0.rcgu.o)
 .rodata..Lanon.a0506fc3c6b36e5783e71ab63da9841e.468
                0x0000000000138f3c       0x27 ./gen/../rust_opt/target/armv7a-none-eabi/release/libitron.a(core-d049573bc16596f9.core.5587a85061e7188a-cgu.0.rcgu.o)
 *fill*         0x0000000000138f63        0x1 
 .rodata..Lanon.a0506fc3c6b36e5783e71ab63da9841e.469
                0x0000000000138f64        0x8 ./gen/../rust_opt/target/armv7a-none-eabi/release/libitron.a(core-d049573bc16596f9.core.5587a85061e7188a-cgu.0.rcgu.o)
 .rodata..Lanon.a0506fc3c6b36e5783e71ab63da9841e.470
                0x0000000000138f6c       0x21 ./gen/../rust_opt/target/armv7a-none-eabi/release/libitron.a(core-d049573bc16596f9.core.5587a85061e7188a-cgu.0.rcgu.o)
 *fill*         0x0000000000138f8d        0x3 
 .rodata..Lanon.a0506fc3c6b36e5783e71ab63da9841e.471
                0x0000000000138f90        0x8 ./gen/../rust_opt/target/armv7a-none-eabi/release/libitron.a(core-d049573bc16596f9.core.5587a85061e7188a-cgu.0.rcgu.o)
 .rodata..Lanon.a0506fc3c6b36e5783e71ab63da9841e.472
                0x0000000000138f98       0x2c ./gen/../rust_opt/target/armv7a-none-eabi/release/libitron.a(core-d049573bc16596f9.core.5587a85061e7188a-cgu.0.rcgu.o)
 .rodata..Lanon.a0506fc3c6b36e5783e71ab63da9841e.473
                0x0000000000138fc4        0x8 ./gen/../rust_opt/target/armv7a-none-eabi/release/libitron.a(core-d049573bc16596f9.core.5587a85061e7188a-cgu.0.rcgu.o)
 .rodata..Lanon.a0506fc3c6b36e5783e71ab63da9841e.474
                0x0000000000138fcc        0x1 ./gen/../rust_opt/target/armv7a-none-eabi/release/libitron.a(core-d049573bc16596f9.core.5587a85061e7188a-cgu.0.rcgu.o)
 .rodata..Lanon.a0506fc3c6b36e5783e71ab63da9841e.475
                0x0000000000138fcd       0x1c ./gen/../rust_opt/target/armv7a-none-eabi/release/libitron.a(core-d049573bc16596f9.core.5587a85061e7188a-cgu.0.rcgu.o)
 *fill*         0x0000000000138fe9        0x3 
 .rodata..Lanon.a0506fc3c6b36e5783e71ab63da9841e.476
                0x0000000000138fec       0x10 ./gen/../rust_opt/target/armv7a-none-eabi/release/libitron.a(core-d049573bc16596f9.core.5587a85061e7188a-cgu.0.rcgu.o)
 .rodata..Lanon.a0506fc3c6b36e5783e71ab63da9841e.477
                0x0000000000138ffc       0x10 ./gen/../rust_opt/target/armv7a-none-eabi/release/libitron.a(core-d049573bc16596f9.core.5587a85061e7188a-cgu.0.rcgu.o)
 .rodata..Lanon.a0506fc3c6b36e5783e71ab63da9841e.478
                0x000000000013900c        0x1 ./gen/../rust_opt/target/armv7a-none-eabi/release/libitron.a(core-d049573bc16596f9.core.5587a85061e7188a-cgu.0.rcgu.o)
 *fill*         0x000000000013900d        0x3 
 .rodata..Lanon.a0506fc3c6b36e5783e71ab63da9841e.479
                0x0000000000139010       0x10 ./gen/../rust_opt/target/armv7a-none-eabi/release/libitron.a(core-d049573bc16596f9.core.5587a85061e7188a-cgu.0.rcgu.o)
 .rodata..Lanon.a0506fc3c6b36e5783e71ab63da9841e.480
                0x0000000000139020        0x1 ./gen/../rust_opt/target/armv7a-none-eabi/release/libitron.a(core-d049573bc16596f9.core.5587a85061e7188a-cgu.0.rcgu.o)
 *fill*         0x0000000000139021        0x3 
 .rodata..Lanon.a0506fc3c6b36e5783e71ab63da9841e.481
                0x0000000000139024       0x10 ./gen/../rust_opt/target/armv7a-none-eabi/release/libitron.a(core-d049573bc16596f9.core.5587a85061e7188a-cgu.0.rcgu.o)
 .rodata..Lanon.a0506fc3c6b36e5783e71ab63da9841e.482
                0x0000000000139034       0x10 ./gen/../rust_opt/target/armv7a-none-eabi/release/libitron.a(core-d049573bc16596f9.core.5587a85061e7188a-cgu.0.rcgu.o)
 .rodata..Lanon.a0506fc3c6b36e5783e71ab63da9841e.483
                0x0000000000139044       0x10 ./gen/../rust_opt/target/armv7a-none-eabi/release/libitron.a(core-d049573bc16596f9.core.5587a85061e7188a-cgu.0.rcgu.o)
 .rodata..Lanon.a0506fc3c6b36e5783e71ab63da9841e.484
                0x0000000000139054       0x10 ./gen/../rust_opt/target/armv7a-none-eabi/release/libitron.a(core-d049573bc16596f9.core.5587a85061e7188a-cgu.0.rcgu.o)
 .rodata..Lanon.a0506fc3c6b36e5783e71ab63da9841e.485
                0x0000000000139064       0x10 ./gen/../rust_opt/target/armv7a-none-eabi/release/libitron.a(core-d049573bc16596f9.core.5587a85061e7188a-cgu.0.rcgu.o)
 .rodata..Lanon.a0506fc3c6b36e5783e71ab63da9841e.486
                0x0000000000139074        0x5 ./gen/../rust_opt/target/armv7a-none-eabi/release/libitron.a(core-d049573bc16596f9.core.5587a85061e7188a-cgu.0.rcgu.o)
 .rodata..Lanon.a0506fc3c6b36e5783e71ab63da9841e.487
                0x0000000000139079       0x12 ./gen/../rust_opt/target/armv7a-none-eabi/release/libitron.a(core-d049573bc16596f9.core.5587a85061e7188a-cgu.0.rcgu.o)
 .rodata..Lanon.a0506fc3c6b36e5783e71ab63da9841e.488
                0x000000000013908b       0x22 ./gen/../rust_opt/target/armv7a-none-eabi/release/libitron.a(core-d049573bc16596f9.core.5587a85061e7188a-cgu.0.rcgu.o)
 *fill*         0x00000000001390ad        0x3 
 .rodata..Lanon.a0506fc3c6b36e5783e71ab63da9841e.489
                0x00000000001390b0       0x10 ./gen/../rust_opt/target/armv7a-none-eabi/release/libitron.a(core-d049573bc16596f9.core.5587a85061e7188a-cgu.0.rcgu.o)
 .rodata..Lanon.a0506fc3c6b36e5783e71ab63da9841e.491
                0x00000000001390c0       0x10 ./gen/../rust_opt/target/armv7a-none-eabi/release/libitron.a(core-d049573bc16596f9.core.5587a85061e7188a-cgu.0.rcgu.o)
 .rodata..Lanon.a0506fc3c6b36e5783e71ab63da9841e.492
                0x00000000001390d0       0x16 ./gen/../rust_opt/target/armv7a-none-eabi/release/libitron.a(core-d049573bc16596f9.core.5587a85061e7188a-cgu.0.rcgu.o)
 .rodata..Lanon.a0506fc3c6b36e5783e71ab63da9841e.493
                0x00000000001390e6        0xd ./gen/../rust_opt/target/armv7a-none-eabi/release/libitron.a(core-d049573bc16596f9.core.5587a85061e7188a-cgu.0.rcgu.o)
 *fill*         0x00000000001390f3        0x1 
 .rodata..Lanon.a0506fc3c6b36e5783e71ab63da9841e.494
                0x00000000001390f4       0x10 ./gen/../rust_opt/target/armv7a-none-eabi/release/libitron.a(core-d049573bc16596f9.core.5587a85061e7188a-cgu.0.rcgu.o)
 .rodata..Lanon.a0506fc3c6b36e5783e71ab63da9841e.495
                0x0000000000139104       0x26 ./gen/../rust_opt/target/armv7a-none-eabi/release/libitron.a(core-d049573bc16596f9.core.5587a85061e7188a-cgu.0.rcgu.o)
 .rodata..Lanon.a0506fc3c6b36e5783e71ab63da9841e.496
                0x000000000013912a       0x2b ./gen/../rust_opt/target/armv7a-none-eabi/release/libitron.a(core-d049573bc16596f9.core.5587a85061e7188a-cgu.0.rcgu.o)
 *fill*         0x0000000000139155        0x3 
 .rodata..Lanon.a0506fc3c6b36e5783e71ab63da9841e.497
                0x0000000000139158       0x18 ./gen/../rust_opt/target/armv7a-none-eabi/release/libitron.a(core-d049573bc16596f9.core.5587a85061e7188a-cgu.0.rcgu.o)
 .rodata._ZN4core7unicode12unicode_data10alphabetic17SHORT_OFFSET_RUNS17he6009c709dd16101E
                0x0000000000139170       0xd4 ./gen/../rust_opt/target/armv7a-none-eabi/release/libitron.a(core-d049573bc16596f9.core.5587a85061e7188a-cgu.0.rcgu.o)
 .rodata._ZN4core7unicode12unicode_data14case_ignorable17SHORT_OFFSET_RUNS17h4fbf63569f64a625E
                0x0000000000139244       0x94 ./gen/../rust_opt/target/armv7a-none-eabi/release/libitron.a(core-d049573bc16596f9.core.5587a85061e7188a-cgu.0.rcgu.o)
 .rodata._ZN4core7unicode12unicode_data5cased17SHORT_OFFSET_RUNS17h7a479c119684b2a6E
                0x00000000001392d8       0x58 ./gen/../rust_opt/target/armv7a-none-eabi/release/libitron.a(core-d049573bc16596f9.core.5587a85061e7188a-cgu.0.rcgu.o)
 .rodata._ZN4core7unicode12unicode_data15grapheme_extend17SHORT_OFFSET_RUNS17hee57a88206e414ebE
                0x0000000000139330       0x88 ./gen/../rust_opt/target/armv7a-none-eabi/release/libitron.a(core-d049573bc16596f9.core.5587a85061e7188a-cgu.0.rcgu.o)
 .rodata._ZN4core7unicode12unicode_data9lowercase19BITSET_INDEX_CHUNKS17h4f138acca8fa2dc8E
                0x00000000001393b8      0x140 ./gen/../rust_opt/target/armv7a-none-eabi/release/libitron.a(core-d049573bc16596f9.core.5587a85061e7188a-cgu.0.rcgu.o)
                0x00000000001393b8                core::unicode::unicode_data::lowercase::BITSET_INDEX_CHUNKS
 .rodata._ZN4core7unicode12unicode_data9lowercase16BITSET_CANONICAL17h84c1f118f954263cE
                0x00000000001394f8      0x1c0 ./gen/../rust_opt/target/armv7a-none-eabi/release/libitron.a(core-d049573bc16596f9.core.5587a85061e7188a-cgu.0.rcgu.o)
                0x00000000001394f8                core::unicode::unicode_data::lowercase::BITSET_CANONICAL
 .rodata._ZN4core7unicode12unicode_data9lowercase14BITSET_MAPPING17h458e7a7802856e65E
                0x00000000001396b8       0x2c ./gen/../rust_opt/target/armv7a-none-eabi/release/libitron.a(core-d049573bc16596f9.core.5587a85061e7188a-cgu.0.rcgu.o)
                0x00000000001396b8                core::unicode::unicode_data::lowercase::BITSET_MAPPING
 .rodata._ZN4core7unicode12unicode_data1n17SHORT_OFFSET_RUNS17hbac430b5adf8ef6aE
                0x00000000001396e4       0xa8 ./gen/../rust_opt/target/armv7a-none-eabi/release/libitron.a(core-d049573bc16596f9.core.5587a85061e7188a-cgu.0.rcgu.o)
 .rodata._ZN4core7unicode12unicode_data9uppercase19BITSET_INDEX_CHUNKS17h5ca318c69d422039E
                0x000000000013978c      0x110 ./gen/../rust_opt/target/armv7a-none-eabi/release/libitron.a(core-d049573bc16596f9.core.5587a85061e7188a-cgu.0.rcgu.o)
                0x000000000013978c                core::unicode::unicode_data::uppercase::BITSET_INDEX_CHUNKS
 *fill*         0x000000000013989c        0x4 
 .rodata._ZN4core7unicode12unicode_data9uppercase16BITSET_CANONICAL17hb8eb186001405e7eE
                0x00000000001398a0      0x160 ./gen/../rust_opt/target/armv7a-none-eabi/release/libitron.a(core-d049573bc16596f9.core.5587a85061e7188a-cgu.0.rcgu.o)
                0x00000000001398a0                core::unicode::unicode_data::uppercase::BITSET_CANONICAL
 .rodata._ZN4core7unicode12unicode_data9uppercase14BITSET_MAPPING17h940f90362d1b786fE
                0x0000000000139a00       0x32 ./gen/../rust_opt/target/armv7a-none-eabi/release/libitron.a(core-d049573bc16596f9.core.5587a85061e7188a-cgu.0.rcgu.o)
                0x0000000000139a00                core::unicode::unicode_data::uppercase::BITSET_MAPPING
 *fill*         0x0000000000139a32        0x2 
 .rodata..Lanon.a0506fc3c6b36e5783e71ab63da9841e.498
                0x0000000000139a34       0x10 ./gen/../rust_opt/target/armv7a-none-eabi/release/libitron.a(core-d049573bc16596f9.core.5587a85061e7188a-cgu.0.rcgu.o)
 .rodata..Lanon.a0506fc3c6b36e5783e71ab63da9841e.499
                0x0000000000139a44       0x10 ./gen/../rust_opt/target/armv7a-none-eabi/release/libitron.a(core-d049573bc16596f9.core.5587a85061e7188a-cgu.0.rcgu.o)
 .rodata..Lanon.a0506fc3c6b36e5783e71ab63da9841e.500
                0x0000000000139a54     0x2cd0 ./gen/../rust_opt/target/armv7a-none-eabi/release/libitron.a(core-d049573bc16596f9.core.5587a85061e7188a-cgu.0.rcgu.o)
 .rodata..Lanon.a0506fc3c6b36e5783e71ab63da9841e.501
                0x000000000013c724     0x2fb0 ./gen/../rust_opt/target/armv7a-none-eabi/release/libitron.a(core-d049573bc16596f9.core.5587a85061e7188a-cgu.0.rcgu.o)
 .rodata..Lanon.a0506fc3c6b36e5783e71ab63da9841e.502
                0x000000000013f6d4      0x4c8 ./gen/../rust_opt/target/armv7a-none-eabi/release/libitron.a(core-d049573bc16596f9.core.5587a85061e7188a-cgu.0.rcgu.o)
 .rodata..Lanon.a0506fc3c6b36e5783e71ab63da9841e.503
                0x000000000013fb9c       0x14 ./gen/../rust_opt/target/armv7a-none-eabi/release/libitron.a(core-d049573bc16596f9.core.5587a85061e7188a-cgu.0.rcgu.o)
 .rodata..Lswitch.table._ZN70_$LT$core..num..error..ParseIntError$u20$as$u20$core..fmt..Display$GT$3fmt17hbaea7be47c23092bE
                0x000000000013fbb0       0x14 ./gen/../rust_opt/target/armv7a-none-eabi/release/libitron.a(core-d049573bc16596f9.core.5587a85061e7188a-cgu.0.rcgu.o)
 .rodata..Lswitch.table._ZN70_$LT$core..num..error..ParseIntError$u20$as$u20$core..fmt..Display$GT$3fmt17hbaea7be47c23092bE.269
                0x000000000013fbc4       0x14 ./gen/../rust_opt/target/armv7a-none-eabi/release/libitron.a(core-d049573bc16596f9.core.5587a85061e7188a-cgu.0.rcgu.o)
 .rodata..Lswitch.table._ZN72_$LT$core..net..parser..AddrParseError$u20$as$u20$core..fmt..Display$GT$3fmt17hd7f7df04664d2864E
                0x000000000013fbd8       0x18 ./gen/../rust_opt/target/armv7a-none-eabi/release/libitron.a(core-d049573bc16596f9.core.5587a85061e7188a-cgu.0.rcgu.o)
 .rodata..Lswitch.table._ZN72_$LT$core..net..parser..AddrParseError$u20$as$u20$core..fmt..Display$GT$3fmt17hd7f7df04664d2864E.270
                0x000000000013fbf0       0x18 ./gen/../rust_opt/target/armv7a-none-eabi/release/libitron.a(core-d049573bc16596f9.core.5587a85061e7188a-cgu.0.rcgu.o)
 .rodata..Lswitch.table._ZN4core9panicking19assert_failed_inner17h1f0479933a2bc628E
                0x000000000013fc08        0xc ./gen/../rust_opt/target/armv7a-none-eabi/release/libitron.a(core-d049573bc16596f9.core.5587a85061e7188a-cgu.0.rcgu.o)
 .rodata..Lswitch.table._ZN4core9panicking19assert_failed_inner17h1f0479933a2bc628E.271
                0x000000000013fc14        0xc ./gen/../rust_opt/target/armv7a-none-eabi/release/libitron.a(core-d049573bc16596f9.core.5587a85061e7188a-cgu.0.rcgu.o)
 .rodata.str1.4
                0x000000000013fc20       0x83 ./libkernel.a(gic_kernel_impl.o)
 *fill*         0x000000000013fca3        0x1 
 .rodata.str1.4
                0x000000000013fca4      0x305 ./libkernel.a(core_kernel_impl.o)
 *fill*         0x000000000013ffa9        0x3 
 .rodata.str1.4
                0x000000000013ffac       0x42 ./libkernel.a(startup.o)
 *fill*         0x000000000013ffee        0x2 
 .rodata.str1.4
                0x000000000013fff0       0x37 ./libkernel.a(task.o)
 *fill*         0x0000000000140027        0x1 
 .rodata.str1.4
                0x0000000000140028       0x75 ./libkernel.a(wait.o)
                                         0xaf (size before relaxing)
 *fill*         0x000000000014009d        0x3 
 .rodata.str1.4
                0x00000000001400a0       0x56 ./libkernel.a(time_event.o)
                                         0x7e (size before relaxing)
 .rodata.str1.4
                0x00000000001400f6       0x34 ./libkernel.a(task_sync.o)
 .rodata.str1.4
                0x00000000001400f6       0x37 ./libkernel.a(semaphore.o)
                0x0000000000140130                . = ALIGN (0x4)
 *fill*         0x00000000001400f6        0x2 
                0x00000000001400f8                _ctor_list = .
 *(SORT_BY_NAME(.init_array.*))
 *(.init_array)
                0x00000000001400f8        0x4 LONG 0x0
                0x00000000001400fc                _dtor_list = .
 *(.fini_array)
 *(SORT_BY_NAME(.fini_array.*))
                0x00000000001400fc        0x4 LONG 0x0
                0x0000000000140100                __end_rodata = .

.preinit_array  0x0000000000140100        0x0
                [!provide]                        PROVIDE (__preinit_array_start = .)
 *(.preinit_array)
                [!provide]                        PROVIDE (__preinit_array_end = .)

.init_array     0x0000000000140100        0x0
                [!provide]                        PROVIDE (__init_array_start = .)
 *(SORT_BY_NAME(.init_array.*))
 *(.init_array)
                [!provide]                        PROVIDE (__init_array_end = .)

.fini_array     0x0000000000140100        0x0
                [!provide]                        PROVIDE (__fini_array_start = .)
 *(SORT_BY_NAME(.fini_array.*))
 *(.fini_array)
                [!provide]                        PROVIDE (__fini_array_end = .)

.ARM.exidx      0x0000000000140100        0x8
                0x0000000000140100                __exidx_start = .
 *(.ARM.exidx* .gnu.linkonce.armexidx.*)
 .ARM.exidx.text._ZN68_$LT$itron..error..Error$LT$Kind$GT$$u20$as$u20$core..fmt..Debug$GT$3fmt17h998211f8ac5ba06cE
                0x0000000000140100        0x8 ./gen/../rust_opt/target/armv7a-none-eabi/release/libitron.a(itron-280b1142b498aad8.itron.fbcde098eeebdde0-cgu.0.rcgu.o)
 .ARM.exidx.text._RNvCsgYTF1aGAkck_7___rustc17rust_begin_unwind
                0x0000000000140108        0x0 ./gen/../rust_opt/target/armv7a-none-eabi/release/libitron.a(itron-280b1142b498aad8.itron.fbcde098eeebdde0-cgu.0.rcgu.o)
                                          0x8 (size before relaxing)
 .ARM.exidx.text.start1
                0x0000000000140108        0x0 ./gen/../rust_opt/target/armv7a-none-eabi/release/libitron.a(itron-280b1142b498aad8.itron.fbcde098eeebdde0-cgu.0.rcgu.o)
                                          0x8 (size before relaxing)
 .ARM.exidx.text.start2
                0x0000000000140108        0x0 ./gen/../rust_opt/target/armv7a-none-eabi/release/libitron.a(itron-280b1142b498aad8.itron.fbcde098eeebdde0-cgu.0.rcgu.o)
                                          0x8 (size before relaxing)
 .ARM.exidx.text.start3
                0x0000000000140108        0x0 ./gen/../rust_opt/target/armv7a-none-eabi/release/libitron.a(itron-280b1142b498aad8.itron.fbcde098eeebdde0-cgu.0.rcgu.o)
                                          0x8 (size before relaxing)
 .ARM.exidx.text.start4
                0x0000000000140108        0x0 ./gen/../rust_opt/target/armv7a-none-eabi/release/libitron.a(itron-280b1142b498aad8.itron.fbcde098eeebdde0-cgu.0.rcgu.o)
                                          0x8 (size before relaxing)
 .ARM.exidx.text.start5
                0x0000000000140108        0x0 ./gen/../rust_opt/target/armv7a-none-eabi/release/libitron.a(itron-280b1142b498aad8.itron.fbcde098eeebdde0-cgu.0.rcgu.o)
                                          0x8 (size before relaxing)
 .ARM.exidx.text.start6
                0x0000000000140108        0x0 ./gen/../rust_opt/target/armv7a-none-eabi/release/libitron.a(itron-280b1142b498aad8.itron.fbcde098eeebdde0-cgu.0.rcgu.o)
                                          0x8 (size before relaxing)
 .ARM.exidx.text._ZN4core3fmt3num50_$LT$impl$u20$core..fmt..Debug$u20$for$u20$i32$GT$3fmt17h7a0e08473eadbc5bE
                0x0000000000140108        0x0 ./gen/../rust_opt/target/armv7a-none-eabi/release/libitron.a(itron-fbcb73bf0b635dd5.itron.68e737fdf62a80e5-cgu.0.rcgu.o)
                                          0x8 (size before relaxing)
 .ARM.exidx.text._ZN75_$LT$core..num..nonzero..NonZero$LT$T$GT$$u20$as$u20$core..fmt..Display$GT$3fmt17h850f84802fa3eaddE
                0x0000000000140108        0x0 ./gen/../rust_opt/target/armv7a-none-eabi/release/libitron.a(itron-fbcb73bf0b635dd5.itron.68e737fdf62a80e5-cgu.0.rcgu.o)
                                          0x8 (size before relaxing)
 .ARM.exidx.text._ZN60_$LT$itron..error..ErrorCode$u20$as$u20$core..fmt..Debug$GT$3fmt17hf3b2cd5bb64ff3e9E
                0x0000000000140108        0x0 ./gen/../rust_opt/target/armv7a-none-eabi/release/libitron.a(itron-fbcb73bf0b635dd5.itron.68e737fdf62a80e5-cgu.0.rcgu.o)
                                          0x8 (size before relaxing)
 .ARM.exidx.text._ZN67_$LT$itron..dataqueue..DataqueueRef$u20$as$u20$core..fmt..Debug$GT$3fmt17h5b31219d7835aa6dE
                0x0000000000140108        0x0 ./gen/../rust_opt/target/armv7a-none-eabi/release/libitron.a(itron-fbcb73bf0b635dd5.itron.68e737fdf62a80e5-cgu.0.rcgu.o)
                                          0x8 (size before relaxing)
 .ARM.exidx.text._ZN69_$LT$itron..memorypool..MemoryPoolRef$u20$as$u20$core..fmt..Debug$GT$3fmt17h802347f6fdaf37b2E
                0x0000000000140108        0x0 ./gen/../rust_opt/target/armv7a-none-eabi/release/libitron.a(itron-fbcb73bf0b635dd5.itron.68e737fdf62a80e5-cgu.0.rcgu.o)
                                          0x8 (size before relaxing)
 .ARM.exidx.text._ZN59_$LT$itron..mutex..MutexRef$u20$as$u20$core..fmt..Debug$GT$3fmt17h6a8d309fd5365a8bE
                0x0000000000140108        0x0 ./gen/../rust_opt/target/armv7a-none-eabi/release/libitron.a(itron-fbcb73bf0b635dd5.itron.68e737fdf62a80e5-cgu.0.rcgu.o)
                                          0x8 (size before relaxing)
 .ARM.exidx.text._ZN64_$LT$itron..processor..Processor$u20$as$u20$core..fmt..Debug$GT$3fmt17hc75d9d03a1c196fbE
                0x0000000000140108        0x0 ./gen/../rust_opt/target/armv7a-none-eabi/release/libitron.a(itron-fbcb73bf0b635dd5.itron.68e737fdf62a80e5-cgu.0.rcgu.o)
                                          0x8 (size before relaxing)
 .ARM.exidx.text._ZN67_$LT$itron..semaphore..SemaphoreRef$u20$as$u20$core..fmt..Debug$GT$3fmt17haf2e3079afc34cfaE
                0x0000000000140108        0x0 ./gen/../rust_opt/target/armv7a-none-eabi/release/libitron.a(itron-fbcb73bf0b635dd5.itron.68e737fdf62a80e5-cgu.0.rcgu.o)
                                          0x8 (size before relaxing)
 .ARM.exidx.text._ZN57_$LT$itron..task..TaskRef$u20$as$u20$core..fmt..Debug$GT$3fmt17h29082a565a1f7a0fE
                0x0000000000140108        0x0 ./gen/../rust_opt/target/armv7a-none-eabi/release/libitron.a(itron-fbcb73bf0b635dd5.itron.68e737fdf62a80e5-cgu.0.rcgu.o)
                                          0x8 (size before relaxing)
 .ARM.exidx.text._ZN5itron4task7current17he5bb96fe6f36c460E
                0x0000000000140108        0x0 ./gen/../rust_opt/target/armv7a-none-eabi/release/libitron.a(itron-fbcb73bf0b635dd5.itron.68e737fdf62a80e5-cgu.0.rcgu.o)
                                          0x8 (size before relaxing)
 .ARM.exidx.text._ZN4core3num7dec2flt11decimal_seq10DecimalSeq4trim17h5efee5ea5ccf409eE
                0x0000000000140108        0x0 ./gen/../rust_opt/target/armv7a-none-eabi/release/libitron.a(core-d049573bc16596f9.core.5587a85061e7188a-cgu.0.rcgu.o)
                                          0x8 (size before relaxing)
 .ARM.exidx.text._ZN4core3num7dec2flt11decimal_seq10DecimalSeq5round17h25fcaa510171f10cE
                0x0000000000140108        0x0 ./gen/../rust_opt/target/armv7a-none-eabi/release/libitron.a(core-d049573bc16596f9.core.5587a85061e7188a-cgu.0.rcgu.o)
                                          0x8 (size before relaxing)
 .ARM.exidx.text._ZN4core3num7dec2flt11decimal_seq10DecimalSeq10left_shift17hc6cf7434fa18fb28E
                0x0000000000140108        0x0 ./gen/../rust_opt/target/armv7a-none-eabi/release/libitron.a(core-d049573bc16596f9.core.5587a85061e7188a-cgu.0.rcgu.o)
                                          0x8 (size before relaxing)
 .ARM.exidx.text._ZN4core3num7dec2flt11decimal_seq10DecimalSeq11right_shift17hb4403252d794ad85E
                0x0000000000140108        0x0 ./gen/../rust_opt/target/armv7a-none-eabi/release/libitron.a(core-d049573bc16596f9.core.5587a85061e7188a-cgu.0.rcgu.o)
                                          0x8 (size before relaxing)
 .ARM.exidx.text._ZN4core3num7dec2flt11decimal_seq17parse_decimal_seq17h720ae35c33f1ca0cE
                0x0000000000140108        0x0 ./gen/../rust_opt/target/armv7a-none-eabi/release/libitron.a(core-d049573bc16596f9.core.5587a85061e7188a-cgu.0.rcgu.o)
                                          0x8 (size before relaxing)
 .ARM.exidx.text._ZN59_$LT$f32$u20$as$u20$core..num..dec2flt..float..RawFloat$GT$15pow10_fast_path17h6e48b725f9e4ea17E
                0x0000000000140108        0x0 ./gen/../rust_opt/target/armv7a-none-eabi/release/libitron.a(core-d049573bc16596f9.core.5587a85061e7188a-cgu.0.rcgu.o)
                                          0x8 (size before relaxing)
 .ARM.exidx.text._ZN59_$LT$f64$u20$as$u20$core..num..dec2flt..float..RawFloat$GT$15pow10_fast_path17h11f46422e910817bE
                0x0000000000140108        0x0 ./gen/../rust_opt/target/armv7a-none-eabi/release/libitron.a(core-d049573bc16596f9.core.5587a85061e7188a-cgu.0.rcgu.o)
                                          0x8 (size before relaxing)
 .ARM.exidx.text._ZN4core3num7dec2flt6lemire13compute_float17h16a9ae03feeaa31dE
                0x0000000000140108        0x0 ./gen/../rust_opt/target/armv7a-none-eabi/release/libitron.a(core-d049573bc16596f9.core.5587a85061e7188a-cgu.0.rcgu.o)
                                          0x8 (size before relaxing)
 .ARM.exidx.text._ZN4core3num7dec2flt6lemire13compute_float17h6afe090d7f4e8ea6E
                0x0000000000140108        0x0 ./gen/../rust_opt/target/armv7a-none-eabi/release/libitron.a(core-d049573bc16596f9.core.5587a85061e7188a-cgu.0.rcgu.o)
                                          0x8 (size before relaxing)
 .ARM.exidx.text._ZN4core3num7dec2flt6lemire13compute_float17ha99c48ca86bcebfaE
                0x0000000000140108        0x0 ./gen/../rust_opt/target/armv7a-none-eabi/release/libitron.a(core-d049573bc16596f9.core.5587a85061e7188a-cgu.0.rcgu.o)
                                          0x8 (size before relaxing)
 .ARM.exidx.text._ZN4core3num7dec2flt6lemire22compute_product_approx17h46540bfe977aa735E
                0x0000000000140108        0x0 ./gen/../rust_opt/target/armv7a-none-eabi/release/libitron.a(core-d049573bc16596f9.core.5587a85061e7188a-cgu.0.rcgu.o)
                                          0x8 (size before relaxing)
 .ARM.exidx.text._ZN4core3num7dec2flt5parse12parse_number17hac599539be123f0aE
                0x0000000000140108        0x0 ./gen/../rust_opt/target/armv7a-none-eabi/release/libitron.a(core-d049573bc16596f9.core.5587a85061e7188a-cgu.0.rcgu.o)
                                          0x8 (size before relaxing)
 .ARM.exidx.text._ZN74_$LT$core..num..dec2flt..ParseFloatError$u20$as$u20$core..fmt..Display$GT$3fmt17he75ae9ab1989a457E
                0x0000000000140108        0x0 ./gen/../rust_opt/target/armv7a-none-eabi/release/libitron.a(core-d049573bc16596f9.core.5587a85061e7188a-cgu.0.rcgu.o)
                                          0x8 (size before relaxing)
 .ARM.exidx.text._ZN4core3num9diy_float2Fp3mul17h224020beff8dcf6eE
                0x0000000000140108        0x0 ./gen/../rust_opt/target/armv7a-none-eabi/release/libitron.a(core-d049573bc16596f9.core.5587a85061e7188a-cgu.0.rcgu.o)
                                          0x8 (size before relaxing)
 .ARM.exidx.text._ZN4core3num9diy_float2Fp9normalize17h769495316c3164f0E
                0x0000000000140108        0x0 ./gen/../rust_opt/target/armv7a-none-eabi/release/libitron.a(core-d049573bc16596f9.core.5587a85061e7188a-cgu.0.rcgu.o)
                                          0x8 (size before relaxing)
 .ARM.exidx.text._ZN4core3num9diy_float2Fp12normalize_to17h65a8e137fe2a9b34E
                0x0000000000140108        0x0 ./gen/../rust_opt/target/armv7a-none-eabi/release/libitron.a(core-d049573bc16596f9.core.5587a85061e7188a-cgu.0.rcgu.o)
                                          0x8 (size before relaxing)
 .ARM.exidx.text._ZN4core3num7flt2dec9estimator23estimate_scaling_factor17h5aed770e3586ed17E
                0x0000000000140108        0x0 ./gen/../rust_opt/target/armv7a-none-eabi/release/libitron.a(core-d049573bc16596f9.core.5587a85061e7188a-cgu.0.rcgu.o)
                                          0x8 (size before relaxing)
 .ARM.exidx.text._ZN4core3num7flt2dec8strategy6dragon9mul_pow1017h8de41a198f06ceffE
                0x0000000000140108        0x0 ./gen/../rust_opt/target/armv7a-none-eabi/release/libitron.a(core-d049573bc16596f9.core.5587a85061e7188a-cgu.0.rcgu.o)
                                          0x8 (size before relaxing)
 .ARM.exidx.text._ZN4core3num7flt2dec8strategy6dragon15format_shortest17hb5e0ae7b6971114eE
                0x0000000000140108        0x0 ./gen/../rust_opt/target/armv7a-none-eabi/release/libitron.a(core-d049573bc16596f9.core.5587a85061e7188a-cgu.0.rcgu.o)
                                          0x8 (size before relaxing)
 .ARM.exidx.text._ZN4core3num7flt2dec8strategy6dragon12format_exact17h413b0182ae77793eE
                0x0000000000140108        0x0 ./gen/../rust_opt/target/armv7a-none-eabi/release/libitron.a(core-d049573bc16596f9.core.5587a85061e7188a-cgu.0.rcgu.o)
                                          0x8 (size before relaxing)
 .ARM.exidx.text._ZN4core3num7flt2dec8strategy5grisu12cached_power17h40510fc142d30e5bE
                0x0000000000140108        0x0 ./gen/../rust_opt/target/armv7a-none-eabi/release/libitron.a(core-d049573bc16596f9.core.5587a85061e7188a-cgu.0.rcgu.o)
                                          0x8 (size before relaxing)
 .ARM.exidx.text._ZN4core3num7flt2dec8strategy5grisu19format_shortest_opt17ha7dc55675409a111E
                0x0000000000140108        0x0 ./gen/../rust_opt/target/armv7a-none-eabi/release/libitron.a(core-d049573bc16596f9.core.5587a85061e7188a-cgu.0.rcgu.o)
                                          0x8 (size before relaxing)
 .ARM.exidx.text._ZN4core3num7flt2dec8strategy5grisu15format_shortest17hcc7bcdc55f306e7cE
                0x0000000000140108        0x0 ./gen/../rust_opt/target/armv7a-none-eabi/release/libitron.a(core-d049573bc16596f9.core.5587a85061e7188a-cgu.0.rcgu.o)
                                          0x8 (size before relaxing)
 .ARM.exidx.text._ZN4core3num7flt2dec8strategy5grisu16format_exact_opt17h10c7733a2f424f87E
                0x0000000000140108        0x0 ./gen/../rust_opt/target/armv7a-none-eabi/release/libitron.a(core-d049573bc16596f9.core.5587a85061e7188a-cgu.0.rcgu.o)
                                          0x8 (size before relaxing)
 .ARM.exidx.text._ZN4core3num7flt2dec8strategy5grisu16format_exact_opt14possibly_round17h324fa6da31e0b7a0E
                0x0000000000140108        0x0 ./gen/../rust_opt/target/armv7a-none-eabi/release/libitron.a(core-d049573bc16596f9.core.5587a85061e7188a-cgu.0.rcgu.o)
                                          0x8 (size before relaxing)
 .ARM.exidx.text._ZN4core3num7flt2dec8strategy5grisu12format_exact17h78d277690b9100bfE
                0x0000000000140108        0x0 ./gen/../rust_opt/target/armv7a-none-eabi/release/libitron.a(core-d049573bc16596f9.core.5587a85061e7188a-cgu.0.rcgu.o)
                                          0x8 (size before relaxing)
 .ARM.exidx.text._ZN4core3num7flt2dec8round_up17hdfef968791b3b8f1E
                0x0000000000140108        0x0 ./gen/../rust_opt/target/armv7a-none-eabi/release/libitron.a(core-d049573bc16596f9.core.5587a85061e7188a-cgu.0.rcgu.o)
                                          0x8 (size before relaxing)
 .ARM.exidx.text._ZN4core3num7flt2dec17digits_to_dec_str17h4ef03e8f4c666413E
                0x0000000000140108        0x0 ./gen/../rust_opt/target/armv7a-none-eabi/release/libitron.a(core-d049573bc16596f9.core.5587a85061e7188a-cgu.0.rcgu.o)
                                          0x8 (size before relaxing)
 .ARM.exidx.text._ZN4core3num7flt2dec17digits_to_exp_str17hc40222548b9d8bc0E
                0x0000000000140108        0x0 ./gen/../rust_opt/target/armv7a-none-eabi/release/libitron.a(core-d049573bc16596f9.core.5587a85061e7188a-cgu.0.rcgu.o)
                                          0x8 (size before relaxing)
 .ARM.exidx.text._ZN4core3num3fmt4Part5write17h5157de02cd0761b1E
                0x0000000000140108        0x0 ./gen/../rust_opt/target/armv7a-none-eabi/release/libitron.a(core-d049573bc16596f9.core.5587a85061e7188a-cgu.0.rcgu.o)
                                          0x8 (size before relaxing)
 .ARM.exidx.text._ZN4core3num3fmt9Formatted3len17ha07e1e9353604e1bE
                0x0000000000140108        0x0 ./gen/../rust_opt/target/armv7a-none-eabi/release/libitron.a(core-d049573bc16596f9.core.5587a85061e7188a-cgu.0.rcgu.o)
                                          0x8 (size before relaxing)
 .ARM.exidx.text._ZN4core3num3fmt9Formatted5write17h99ed3f4f2997298bE
                0x0000000000140108        0x0 ./gen/../rust_opt/target/armv7a-none-eabi/release/libitron.a(core-d049573bc16596f9.core.5587a85061e7188a-cgu.0.rcgu.o)
                                          0x8 (size before relaxing)
 .ARM.exidx.text._ZN72_$LT$core..num..error..TryFromIntError$u20$as$u20$core..fmt..Display$GT$3fmt17hce3ba6a6f2a6094bE
                0x0000000000140108        0x0 ./gen/../rust_opt/target/armv7a-none-eabi/release/libitron.a(core-d049573bc16596f9.core.5587a85061e7188a-cgu.0.rcgu.o)
                                          0x8 (size before relaxing)
 .ARM.exidx.text._ZN70_$LT$core..num..error..ParseIntError$u20$as$u20$core..fmt..Display$GT$3fmt17hbaea7be47c23092bE
                0x0000000000140108        0x0 ./gen/../rust_opt/target/armv7a-none-eabi/release/libitron.a(core-d049573bc16596f9.core.5587a85061e7188a-cgu.0.rcgu.o)
                                          0x8 (size before relaxing)
 .ARM.exidx.text.unlikely._ZN4core3num9int_log1030panic_for_nonpositive_argument17h1277070ab48dc16bE
                0x0000000000140108        0x0 ./gen/../rust_opt/target/armv7a-none-eabi/release/libitron.a(core-d049573bc16596f9.core.5587a85061e7188a-cgu.0.rcgu.o)
                                          0x8 (size before relaxing)
 .ARM.exidx.text.unlikely._ZN4core3num8int_sqrt27panic_for_negative_argument17h646ece1cae3b97dbE
                0x0000000000140108        0x0 ./gen/../rust_opt/target/armv7a-none-eabi/release/libitron.a(core-d049573bc16596f9.core.5587a85061e7188a-cgu.0.rcgu.o)
                                          0x8 (size before relaxing)
 .ARM.exidx.text.unlikely._ZN4core3num14overflow_panic3add17hf194787efb41c60bE
                0x0000000000140108        0x0 ./gen/../rust_opt/target/armv7a-none-eabi/release/libitron.a(core-d049573bc16596f9.core.5587a85061e7188a-cgu.0.rcgu.o)
                                          0x8 (size before relaxing)
 .ARM.exidx.text.unlikely._ZN4core3num14overflow_panic3sub17he2e76c1521f0700fE
                0x0000000000140108        0x0 ./gen/../rust_opt/target/armv7a-none-eabi/release/libitron.a(core-d049573bc16596f9.core.5587a85061e7188a-cgu.0.rcgu.o)
                                          0x8 (size before relaxing)
 .ARM.exidx.text.unlikely._ZN4core3num14overflow_panic3mul17h60bfb5e03c5b71e3E
                0x0000000000140108        0x0 ./gen/../rust_opt/target/armv7a-none-eabi/release/libitron.a(core-d049573bc16596f9.core.5587a85061e7188a-cgu.0.rcgu.o)
                                          0x8 (size before relaxing)
 .ARM.exidx.text.unlikely._ZN4core3num14overflow_panic3div17h31ae6e9c5fc383d9E
                0x0000000000140108        0x0 ./gen/../rust_opt/target/armv7a-none-eabi/release/libitron.a(core-d049573bc16596f9.core.5587a85061e7188a-cgu.0.rcgu.o)
                                          0x8 (size before relaxing)
 .ARM.exidx.text.unlikely._ZN4core3num14overflow_panic3rem17h60333cfee06b13cdE
                0x0000000000140108        0x0 ./gen/../rust_opt/target/armv7a-none-eabi/release/libitron.a(core-d049573bc16596f9.core.5587a85061e7188a-cgu.0.rcgu.o)
                                          0x8 (size before relaxing)
 .ARM.exidx.text.unlikely._ZN4core3num14overflow_panic3neg17h94a197b7d7b20279E
                0x0000000000140108        0x0 ./gen/../rust_opt/target/armv7a-none-eabi/release/libitron.a(core-d049573bc16596f9.core.5587a85061e7188a-cgu.0.rcgu.o)
                                          0x8 (size before relaxing)
 .ARM.exidx.text.unlikely._ZN4core3num14overflow_panic3shr17h1944cb74e27c390cE
                0x0000000000140108        0x0 ./gen/../rust_opt/target/armv7a-none-eabi/release/libitron.a(core-d049573bc16596f9.core.5587a85061e7188a-cgu.0.rcgu.o)
                                          0x8 (size before relaxing)
 .ARM.exidx.text.unlikely._ZN4core3num14overflow_panic3shl17hc7ecc243b6763a66E
                0x0000000000140108        0x0 ./gen/../rust_opt/target/armv7a-none-eabi/release/libitron.a(core-d049573bc16596f9.core.5587a85061e7188a-cgu.0.rcgu.o)
                                          0x8 (size before relaxing)
 .ARM.exidx.text.unlikely._ZN4core3num22from_ascii_radix_panic17h345174f03d72ebe3E
                0x0000000000140108        0x0 ./gen/../rust_opt/target/armv7a-none-eabi/release/libitron.a(core-d049573bc16596f9.core.5587a85061e7188a-cgu.0.rcgu.o)
                                          0x8 (size before relaxing)
 .ARM.exidx.text._ZN76_$LT$core..mem..transmutability..Assume$u20$as$u20$core..ops..arith..Sub$GT$3sub17h21ed15b6645713d8E
                0x0000000000140108        0x0 ./gen/../rust_opt/target/armv7a-none-eabi/release/libitron.a(core-d049573bc16596f9.core.5587a85061e7188a-cgu.0.rcgu.o)
                                          0x8 (size before relaxing)
 .ARM.exidx.text._ZN68_$LT$core..ptr..alignment..Alignment$u20$as$u20$core..fmt..Debug$GT$3fmt17hd2f4df9dbd6e2f86E
                0x0000000000140108        0x0 ./gen/../rust_opt/target/armv7a-none-eabi/release/libitron.a(core-d049573bc16596f9.core.5587a85061e7188a-cgu.0.rcgu.o)
                                          0x8 (size before relaxing)
 .ARM.exidx.text._ZN69_$LT$core..ffi..c_str..CStr$u20$as$u20$core..clone..CloneToUninit$GT$15clone_to_uninit17h80a4ef3d92070d94E
                0x0000000000140108        0x0 ./gen/../rust_opt/target/armv7a-none-eabi/release/libitron.a(core-d049573bc16596f9.core.5587a85061e7188a-cgu.0.rcgu.o)
                                          0x8 (size before relaxing)
 .ARM.exidx.text._ZN57_$LT$core..error..Request$u20$as$u20$core..fmt..Debug$GT$3fmt17h5f561f753496d82cE
                0x0000000000140108        0x0 ./gen/../rust_opt/target/armv7a-none-eabi/release/libitron.a(core-d049573bc16596f9.core.5587a85061e7188a-cgu.0.rcgu.o)
                                          0x8 (size before relaxing)
 .ARM.exidx.text._ZN78_$LT$core..error..Source$u20$as$u20$core..iter..traits..iterator..Iterator$GT$4next17h4a1fc4a2554e7eceE
                0x0000000000140108        0x0 ./gen/../rust_opt/target/armv7a-none-eabi/release/libitron.a(core-d049573bc16596f9.core.5587a85061e7188a-cgu.0.rcgu.o)
                                          0x8 (size before relaxing)
 .ARM.exidx.text._ZN64_$LT$core..ops..range..RangeFull$u20$as$u20$core..fmt..Debug$GT$3fmt17h424403ffd1288619E
                0x0000000000140108        0x0 ./gen/../rust_opt/target/armv7a-none-eabi/release/libitron.a(core-d049573bc16596f9.core.5587a85061e7188a-cgu.0.rcgu.o)
                                          0x8 (size before relaxing)
 .ARM.exidx.text._ZN71_$LT$core..ops..range..Range$LT$Idx$GT$$u20$as$u20$core..fmt..Debug$GT$3fmt17ha953e6102122b0f8E
                0x0000000000140108        0x0 ./gen/../rust_opt/target/armv7a-none-eabi/release/libitron.a(core-d049573bc16596f9.core.5587a85061e7188a-cgu.0.rcgu.o)
                                          0x8 (size before relaxing)
 .ARM.exidx.text._ZN105_$LT$dyn$u20$core..any..Any$u2b$core..marker..Sync$u2b$core..marker..Send$u20$as$u20$core..fmt..Debug$GT$3fmt17habd8592b3ad60da5E
                0x0000000000140108        0x0 ./gen/../rust_opt/target/armv7a-none-eabi/release/libitron.a(core-d049573bc16596f9.core.5587a85061e7188a-cgu.0.rcgu.o)
                                          0x8 (size before relaxing)
 .ARM.exidx.text._ZN54_$LT$core..any..TypeId$u20$as$u20$core..fmt..Debug$GT$3fmt17h85ceed27d8f181fdE
                0x0000000000140108        0x0 ./gen/../rust_opt/target/armv7a-none-eabi/release/libitron.a(core-d049573bc16596f9.core.5587a85061e7188a-cgu.0.rcgu.o)
                                          0x8 (size before relaxing)
 .ARM.exidx.text._ZN73_$LT$core..ascii..ascii_char..AsciiChar$u20$as$u20$core..fmt..Display$GT$3fmt17h8431bf4e4f9d1f68E
                0x0000000000140108        0x0 ./gen/../rust_opt/target/armv7a-none-eabi/release/libitron.a(core-d049573bc16596f9.core.5587a85061e7188a-cgu.0.rcgu.o)
                                          0x8 (size before relaxing)
 .ARM.exidx.text._ZN71_$LT$core..ascii..ascii_char..AsciiChar$u20$as$u20$core..fmt..Debug$GT$3fmt17h177c64a4e196f32cE
                0x0000000000140108        0x0 ./gen/../rust_opt/target/armv7a-none-eabi/release/libitron.a(core-d049573bc16596f9.core.5587a85061e7188a-cgu.0.rcgu.o)
                                          0x8 (size before relaxing)
 .ARM.exidx.text._ZN4core5ascii14escape_default17h981d8e307eaaa916E
                0x0000000000140108        0x0 ./gen/../rust_opt/target/armv7a-none-eabi/release/libitron.a(core-d049573bc16596f9.core.5587a85061e7188a-cgu.0.rcgu.o)
                                          0x8 (size before relaxing)
 .ARM.exidx.text._ZN65_$LT$core..ascii..EscapeDefault$u20$as$u20$core..fmt..Display$GT$3fmt17he735515427ec3f2cE
                0x0000000000140108        0x0 ./gen/../rust_opt/target/armv7a-none-eabi/release/libitron.a(core-d049573bc16596f9.core.5587a85061e7188a-cgu.0.rcgu.o)
                                          0x8 (size before relaxing)
 .ARM.exidx.text._ZN63_$LT$core..ascii..EscapeDefault$u20$as$u20$core..fmt..Debug$GT$3fmt17h46f02f61de5321cbE
                0x0000000000140108        0x0 ./gen/../rust_opt/target/armv7a-none-eabi/release/libitron.a(core-d049573bc16596f9.core.5587a85061e7188a-cgu.0.rcgu.o)
                                          0x8 (size before relaxing)
 .ARM.exidx.text._ZN56_$LT$core..bstr..ByteStr$u20$as$u20$core..fmt..Debug$GT$3fmt17h8b572b2661a1de36E
                0x0000000000140108        0x0 ./gen/../rust_opt/target/armv7a-none-eabi/release/libitron.a(core-d049573bc16596f9.core.5587a85061e7188a-cgu.0.rcgu.o)
                                          0x8 (size before relaxing)
 .ARM.exidx.text._ZN58_$LT$core..bstr..ByteStr$u20$as$u20$core..fmt..Display$GT$3fmt17he4ae28f23ce65a58E
                0x0000000000140108        0x0 ./gen/../rust_opt/target/armv7a-none-eabi/release/libitron.a(core-d049573bc16596f9.core.5587a85061e7188a-cgu.0.rcgu.o)
                                          0x8 (size before relaxing)
 .ARM.exidx.text.unlikely._ZN4core4cell4lazy14panic_poisoned17h8eb5d443042c4736E
                0x0000000000140108        0x0 ./gen/../rust_opt/target/armv7a-none-eabi/release/libitron.a(core-d049573bc16596f9.core.5587a85061e7188a-cgu.0.rcgu.o)
                                          0x8 (size before relaxing)
 .ARM.exidx.text._ZN60_$LT$core..cell..BorrowError$u20$as$u20$core..fmt..Debug$GT$3fmt17h56da770da5e11014E
                0x0000000000140108        0x0 ./gen/../rust_opt/target/armv7a-none-eabi/release/libitron.a(core-d049573bc16596f9.core.5587a85061e7188a-cgu.0.rcgu.o)
                                          0x8 (size before relaxing)
 .ARM.exidx.text._ZN62_$LT$core..cell..BorrowError$u20$as$u20$core..fmt..Display$GT$3fmt17h649aaf4112417b69E
                0x0000000000140108        0x0 ./gen/../rust_opt/target/armv7a-none-eabi/release/libitron.a(core-d049573bc16596f9.core.5587a85061e7188a-cgu.0.rcgu.o)
                                          0x8 (size before relaxing)
 .ARM.exidx.text._ZN63_$LT$core..cell..BorrowMutError$u20$as$u20$core..fmt..Debug$GT$3fmt17h5dd54cc4ab093714E
                0x0000000000140108        0x0 ./gen/../rust_opt/target/armv7a-none-eabi/release/libitron.a(core-d049573bc16596f9.core.5587a85061e7188a-cgu.0.rcgu.o)
                                          0x8 (size before relaxing)
 .ARM.exidx.text._ZN65_$LT$core..cell..BorrowMutError$u20$as$u20$core..fmt..Display$GT$3fmt17h2f7647931a1ef38bE
                0x0000000000140108        0x0 ./gen/../rust_opt/target/armv7a-none-eabi/release/libitron.a(core-d049573bc16596f9.core.5587a85061e7188a-cgu.0.rcgu.o)
                                          0x8 (size before relaxing)
 .ARM.exidx.text.unlikely._ZN4core4cell22panic_already_borrowed17h058b49ead05ac00bE
                0x0000000000140108        0x0 ./gen/../rust_opt/target/armv7a-none-eabi/release/libitron.a(core-d049573bc16596f9.core.5587a85061e7188a-cgu.0.rcgu.o)
                                          0x8 (size before relaxing)
 .ARM.exidx.text.unlikely._ZN4core4cell30panic_already_mutably_borrowed17h9c448cf1bc13461aE
                0x0000000000140108        0x0 ./gen/../rust_opt/target/armv7a-none-eabi/release/libitron.a(core-d049573bc16596f9.core.5587a85061e7188a-cgu.0.rcgu.o)
                                          0x8 (size before relaxing)
 .ARM.exidx.text._ZN74_$LT$core..char..convert..ParseCharError$u20$as$u20$core..fmt..Display$GT$3fmt17hcaa7912ed162bf56E
                0x0000000000140108        0x0 ./gen/../rust_opt/target/armv7a-none-eabi/release/libitron.a(core-d049573bc16596f9.core.5587a85061e7188a-cgu.0.rcgu.o)
                                          0x8 (size before relaxing)
 .ARM.exidx.text._ZN76_$LT$core..char..convert..CharTryFromError$u20$as$u20$core..fmt..Display$GT$3fmt17h19f1ba4eab42fadcE
                0x0000000000140108        0x0 ./gen/../rust_opt/target/armv7a-none-eabi/release/libitron.a(core-d049573bc16596f9.core.5587a85061e7188a-cgu.0.rcgu.o)
                                          0x8 (size before relaxing)
 .ARM.exidx.text._ZN75_$LT$core..char..decode..DecodeUtf16Error$u20$as$u20$core..fmt..Display$GT$3fmt17hdcf3babdf2cfe76aE
                0x0000000000140108        0x0 ./gen/../rust_opt/target/armv7a-none-eabi/release/libitron.a(core-d049573bc16596f9.core.5587a85061e7188a-cgu.0.rcgu.o)
                                          0x8 (size before relaxing)
 .ARM.exidx.text._ZN4core4char7methods22_$LT$impl$u20$char$GT$16escape_debug_ext17hd46ad63d40b7f951E
                0x0000000000140108        0x0 ./gen/../rust_opt/target/armv7a-none-eabi/release/libitron.a(core-d049573bc16596f9.core.5587a85061e7188a-cgu.0.rcgu.o)
                                          0x8 (size before relaxing)
 .ARM.exidx.text._ZN64_$LT$core..char..EscapeDefault$u20$as$u20$core..fmt..Display$GT$3fmt17h38aec28b84124e92E
                0x0000000000140108        0x0 ./gen/../rust_opt/target/armv7a-none-eabi/release/libitron.a(core-d049573bc16596f9.core.5587a85061e7188a-cgu.0.rcgu.o)
                                          0x8 (size before relaxing)
 .ARM.exidx.text._ZN62_$LT$core..char..EscapeDebug$u20$as$u20$core..fmt..Display$GT$3fmt17hafc69afb2cba63d2E
                0x0000000000140108        0x0 ./gen/../rust_opt/target/armv7a-none-eabi/release/libitron.a(core-d049573bc16596f9.core.5587a85061e7188a-cgu.0.rcgu.o)
                                          0x8 (size before relaxing)
 .ARM.exidx.text._ZN86_$LT$core..char..CaseMappingIter$u20$as$u20$core..iter..traits..iterator..Iterator$GT$4next17h387613f301dd4fd8E
                0x0000000000140108        0x0 ./gen/../rust_opt/target/armv7a-none-eabi/release/libitron.a(core-d049573bc16596f9.core.5587a85061e7188a-cgu.0.rcgu.o)
                                          0x8 (size before relaxing)
 .ARM.exidx.text._ZN86_$LT$core..char..CaseMappingIter$u20$as$u20$core..iter..traits..iterator..Iterator$GT$5count17h9c99394d14e09439E
                0x0000000000140108        0x0 ./gen/../rust_opt/target/armv7a-none-eabi/release/libitron.a(core-d049573bc16596f9.core.5587a85061e7188a-cgu.0.rcgu.o)
                                          0x8 (size before relaxing)
 .ARM.exidx.text._ZN86_$LT$core..char..CaseMappingIter$u20$as$u20$core..iter..traits..iterator..Iterator$GT$4last17h4812d7f7192ee524E
                0x0000000000140108        0x0 ./gen/../rust_opt/target/armv7a-none-eabi/release/libitron.a(core-d049573bc16596f9.core.5587a85061e7188a-cgu.0.rcgu.o)
                                          0x8 (size before relaxing)
 .ARM.exidx.text._ZN86_$LT$core..char..CaseMappingIter$u20$as$u20$core..iter..traits..iterator..Iterator$GT$10advance_by17h0f8a06432075b566E
                0x0000000000140108        0x0 ./gen/../rust_opt/target/armv7a-none-eabi/release/libitron.a(core-d049573bc16596f9.core.5587a85061e7188a-cgu.0.rcgu.o)
                                          0x8 (size before relaxing)
 .ARM.exidx.text._ZN86_$LT$core..char..CaseMappingIter$u20$as$u20$core..iter..traits..iterator..Iterator$GT$24__iterator_get_unchecked17hee300516a572f4b8E
                0x0000000000140108        0x0 ./gen/../rust_opt/target/armv7a-none-eabi/release/libitron.a(core-d049573bc16596f9.core.5587a85061e7188a-cgu.0.rcgu.o)
                                          0x8 (size before relaxing)
 .ARM.exidx.text._ZN101_$LT$core..char..CaseMappingIter$u20$as$u20$core..iter..traits..double_ended..DoubleEndedIterator$GT$9next_back17h0013dfa0a23bb5c3E
                0x0000000000140108        0x0 ./gen/../rust_opt/target/armv7a-none-eabi/release/libitron.a(core-d049573bc16596f9.core.5587a85061e7188a-cgu.0.rcgu.o)
                                          0x8 (size before relaxing)
 .ARM.exidx.text._ZN101_$LT$core..char..CaseMappingIter$u20$as$u20$core..iter..traits..double_ended..DoubleEndedIterator$GT$15advance_back_by17h0e7ec4b92a9eb744E
                0x0000000000140108        0x0 ./gen/../rust_opt/target/armv7a-none-eabi/release/libitron.a(core-d049573bc16596f9.core.5587a85061e7188a-cgu.0.rcgu.o)
                                          0x8 (size before relaxing)
 .ARM.exidx.text._ZN67_$LT$core..char..TryFromCharError$u20$as$u20$core..fmt..Display$GT$3fmt17hbf1b0a686f8a1a69E
                0x0000000000140108        0x0 ./gen/../rust_opt/target/armv7a-none-eabi/release/libitron.a(core-d049573bc16596f9.core.5587a85061e7188a-cgu.0.rcgu.o)
                                          0x8 (size before relaxing)
 .ARM.exidx.text._ZN79_$LT$core..ffi..c_str..FromBytesUntilNulError$u20$as$u20$core..fmt..Display$GT$3fmt17h71f2c90ca2a80addE
                0x0000000000140108        0x0 ./gen/../rust_opt/target/armv7a-none-eabi/release/libitron.a(core-d049573bc16596f9.core.5587a85061e7188a-cgu.0.rcgu.o)
                                          0x8 (size before relaxing)
 .ARM.exidx.text._ZN59_$LT$core..ffi..c_str..CStr$u20$as$u20$core..fmt..Debug$GT$3fmt17h36ba4289086816d4E
                0x0000000000140108        0x0 ./gen/../rust_opt/target/armv7a-none-eabi/release/libitron.a(core-d049573bc16596f9.core.5587a85061e7188a-cgu.0.rcgu.o)
                                          0x8 (size before relaxing)
 .ARM.exidx.text._ZN78_$LT$core..ffi..c_str..FromBytesWithNulError$u20$as$u20$core..fmt..Display$GT$3fmt17hd6785df6bd44c25dE
                0x0000000000140108        0x0 ./gen/../rust_opt/target/armv7a-none-eabi/release/libitron.a(core-d049573bc16596f9.core.5587a85061e7188a-cgu.0.rcgu.o)
                                          0x8 (size before relaxing)
 .ARM.exidx.text._ZN4core3ffi5c_str4CStr20from_bytes_until_nul17h223b6a3545723cc2E
                0x0000000000140108        0x0 ./gen/../rust_opt/target/armv7a-none-eabi/release/libitron.a(core-d049573bc16596f9.core.5587a85061e7188a-cgu.0.rcgu.o)
                                          0x8 (size before relaxing)
 .ARM.exidx.text._ZN4core3ffi5c_str4CStr19from_bytes_with_nul17h924bc5b5323bf05eE
                0x0000000000140108        0x0 ./gen/../rust_opt/target/armv7a-none-eabi/release/libitron.a(core-d049573bc16596f9.core.5587a85061e7188a-cgu.0.rcgu.o)
                                          0x8 (size before relaxing)
 .ARM.exidx.text._ZN4core3ffi5c_str4CStr6to_str17hc1faa40fb638a30eE
                0x0000000000140108        0x0 ./gen/../rust_opt/target/armv7a-none-eabi/release/libitron.a(core-d049573bc16596f9.core.5587a85061e7188a-cgu.0.rcgu.o)
                                          0x8 (size before relaxing)
 .ARM.exidx.text._ZN67_$LT$core..ffi..va_list..VaListImpl$u20$as$u20$core..fmt..Debug$GT$3fmt17hd26f911d47b97956E
                0x0000000000140108        0x0 ./gen/../rust_opt/target/armv7a-none-eabi/release/libitron.a(core-d049573bc16596f9.core.5587a85061e7188a-cgu.0.rcgu.o)
                                          0x8 (size before relaxing)
 .ARM.exidx.text._ZN54_$LT$core..ffi..c_void$u20$as$u20$core..fmt..Debug$GT$3fmt17h3b27b77d454a7b00E
                0x0000000000140108        0x0 ./gen/../rust_opt/target/armv7a-none-eabi/release/libitron.a(core-d049573bc16596f9.core.5587a85061e7188a-cgu.0.rcgu.o)
                                          0x8 (size before relaxing)
 .ARM.exidx.text._ZN72_$LT$core..io..borrowed_buf..BorrowedBuf$u20$as$u20$core..fmt..Debug$GT$3fmt17h8c5373e369933a1eE
                0x0000000000140108        0x0 ./gen/../rust_opt/target/armv7a-none-eabi/release/libitron.a(core-d049573bc16596f9.core.5587a85061e7188a-cgu.0.rcgu.o)
                                          0x8 (size before relaxing)
 .ARM.exidx.text._ZN86_$LT$core..net..display_buffer..DisplayBuffer$LT$_$GT$$u20$as$u20$core..fmt..Write$GT$9write_str17h297baed95332eae7E
                0x0000000000140108        0x0 ./gen/../rust_opt/target/armv7a-none-eabi/release/libitron.a(core-d049573bc16596f9.core.5587a85061e7188a-cgu.0.rcgu.o)
                                          0x8 (size before relaxing)
 .ARM.exidx.text._ZN86_$LT$core..net..display_buffer..DisplayBuffer$LT$_$GT$$u20$as$u20$core..fmt..Write$GT$9write_str17h839f220912462241E
                0x0000000000140108        0x0 ./gen/../rust_opt/target/armv7a-none-eabi/release/libitron.a(core-d049573bc16596f9.core.5587a85061e7188a-cgu.0.rcgu.o)
                                          0x8 (size before relaxing)
 .ARM.exidx.text._ZN86_$LT$core..net..display_buffer..DisplayBuffer$LT$_$GT$$u20$as$u20$core..fmt..Write$GT$9write_str17h8badf8473d9a4002E
                0x0000000000140108        0x0 ./gen/../rust_opt/target/armv7a-none-eabi/release/libitron.a(core-d049573bc16596f9.core.5587a85061e7188a-cgu.0.rcgu.o)
                                          0x8 (size before relaxing)
 .ARM.exidx.text._ZN86_$LT$core..net..display_buffer..DisplayBuffer$LT$_$GT$$u20$as$u20$core..fmt..Write$GT$9write_str17hd35c8bb425293b8bE
                0x0000000000140108        0x0 ./gen/../rust_opt/target/armv7a-none-eabi/release/libitron.a(core-d049573bc16596f9.core.5587a85061e7188a-cgu.0.rcgu.o)
                                          0x8 (size before relaxing)
 .ARM.exidx.text._ZN65_$LT$core..net..ip_addr..IpAddr$u20$as$u20$core..fmt..Display$GT$3fmt17h3168c33a3915df90E
                0x0000000000140108        0x0 ./gen/../rust_opt/target/armv7a-none-eabi/release/libitron.a(core-d049573bc16596f9.core.5587a85061e7188a-cgu.0.rcgu.o)
                                          0x8 (size before relaxing)
 .ARM.exidx.text._ZN63_$LT$core..net..ip_addr..IpAddr$u20$as$u20$core..fmt..Debug$GT$3fmt17hfda05f36d5a749a6E
                0x0000000000140108        0x0 ./gen/../rust_opt/target/armv7a-none-eabi/release/libitron.a(core-d049573bc16596f9.core.5587a85061e7188a-cgu.0.rcgu.o)
                                          0x8 (size before relaxing)
 .ARM.exidx.text._ZN67_$LT$core..net..ip_addr..Ipv4Addr$u20$as$u20$core..fmt..Display$GT$3fmt17h8a7f4864e9af7f6bE
                0x0000000000140108        0x0 ./gen/../rust_opt/target/armv7a-none-eabi/release/libitron.a(core-d049573bc16596f9.core.5587a85061e7188a-cgu.0.rcgu.o)
                                          0x8 (size before relaxing)
 .ARM.exidx.text._ZN65_$LT$core..net..ip_addr..Ipv4Addr$u20$as$u20$core..fmt..Debug$GT$3fmt17h6a51679a1ff6e7e2E
                0x0000000000140108        0x0 ./gen/../rust_opt/target/armv7a-none-eabi/release/libitron.a(core-d049573bc16596f9.core.5587a85061e7188a-cgu.0.rcgu.o)
                                          0x8 (size before relaxing)
 .ARM.exidx.text._ZN67_$LT$core..net..ip_addr..Ipv6Addr$u20$as$u20$core..fmt..Display$GT$3fmt17ha09719cd9f4aecf6E
                0x0000000000140108        0x0 ./gen/../rust_opt/target/armv7a-none-eabi/release/libitron.a(core-d049573bc16596f9.core.5587a85061e7188a-cgu.0.rcgu.o)
                                          0x8 (size before relaxing)
 .ARM.exidx.text._ZN67_$LT$core..net..ip_addr..Ipv6Addr$u20$as$u20$core..fmt..Display$GT$3fmt12fmt_subslice17hba89c8432023046dE
                0x0000000000140108        0x0 ./gen/../rust_opt/target/armv7a-none-eabi/release/libitron.a(core-d049573bc16596f9.core.5587a85061e7188a-cgu.0.rcgu.o)
                                          0x8 (size before relaxing)
 .ARM.exidx.text._ZN65_$LT$core..net..ip_addr..Ipv6Addr$u20$as$u20$core..fmt..Debug$GT$3fmt17hd7b6c05483d437dbE
                0x0000000000140108        0x0 ./gen/../rust_opt/target/armv7a-none-eabi/release/libitron.a(core-d049573bc16596f9.core.5587a85061e7188a-cgu.0.rcgu.o)
                                          0x8 (size before relaxing)
 .ARM.exidx.text._ZN4core3net6parser6Parser11read_number28_$u7b$$u7b$closure$u7d$$u7d$17hcfdf77b7d41ca56bE
                0x0000000000140108        0x0 ./gen/../rust_opt/target/armv7a-none-eabi/release/libitron.a(core-d049573bc16596f9.core.5587a85061e7188a-cgu.0.rcgu.o)
                                          0x8 (size before relaxing)
 .ARM.exidx.text._ZN4core3net6parser6Parser14read_ipv4_addr17h3efba67ec1312042E
                0x0000000000140108        0x0 ./gen/../rust_opt/target/armv7a-none-eabi/release/libitron.a(core-d049573bc16596f9.core.5587a85061e7188a-cgu.0.rcgu.o)
                                          0x8 (size before relaxing)
 .ARM.exidx.text._ZN4core3net6parser6Parser14read_ipv6_addr17h54c8b5ef622aafb8E
                0x0000000000140108        0x0 ./gen/../rust_opt/target/armv7a-none-eabi/release/libitron.a(core-d049573bc16596f9.core.5587a85061e7188a-cgu.0.rcgu.o)
                                          0x8 (size before relaxing)
 .ARM.exidx.text._ZN4core3net6parser6Parser14read_ipv6_addr11read_groups17h16f736446e4eaddeE
                0x0000000000140108        0x0 ./gen/../rust_opt/target/armv7a-none-eabi/release/libitron.a(core-d049573bc16596f9.core.5587a85061e7188a-cgu.0.rcgu.o)
                                          0x8 (size before relaxing)
 .ARM.exidx.text._ZN4core3net6parser6Parser19read_socket_addr_v617hb4d45e4b5ba1a4d4E
                0x0000000000140108        0x0 ./gen/../rust_opt/target/armv7a-none-eabi/release/libitron.a(core-d049573bc16596f9.core.5587a85061e7188a-cgu.0.rcgu.o)
                                          0x8 (size before relaxing)
 .ARM.exidx.text._ZN4core3net6parser44_$LT$impl$u20$core..net..ip_addr..IpAddr$GT$11parse_ascii17hd7ed4f332f3caa79E
                0x0000000000140108        0x0 ./gen/../rust_opt/target/armv7a-none-eabi/release/libitron.a(core-d049573bc16596f9.core.5587a85061e7188a-cgu.0.rcgu.o)
                                          0x8 (size before relaxing)
 .ARM.exidx.text._ZN4core3net6parser83_$LT$impl$u20$core..str..traits..FromStr$u20$for$u20$core..net..ip_addr..IpAddr$GT$8from_str17h49e46cb50b46901eE
                0x0000000000140108        0x0 ./gen/../rust_opt/target/armv7a-none-eabi/release/libitron.a(core-d049573bc16596f9.core.5587a85061e7188a-cgu.0.rcgu.o)
                                          0x8 (size before relaxing)
 .ARM.exidx.text._ZN4core3net6parser46_$LT$impl$u20$core..net..ip_addr..Ipv4Addr$GT$11parse_ascii17h8028e1785cb7be5fE
                0x0000000000140108        0x0 ./gen/../rust_opt/target/armv7a-none-eabi/release/libitron.a(core-d049573bc16596f9.core.5587a85061e7188a-cgu.0.rcgu.o)
                                          0x8 (size before relaxing)
 .ARM.exidx.text._ZN4core3net6parser85_$LT$impl$u20$core..str..traits..FromStr$u20$for$u20$core..net..ip_addr..Ipv4Addr$GT$8from_str17hc3217d4e0e33b7d5E
                0x0000000000140108        0x0 ./gen/../rust_opt/target/armv7a-none-eabi/release/libitron.a(core-d049573bc16596f9.core.5587a85061e7188a-cgu.0.rcgu.o)
                                          0x8 (size before relaxing)
 .ARM.exidx.text._ZN4core3net6parser46_$LT$impl$u20$core..net..ip_addr..Ipv6Addr$GT$11parse_ascii17h767d275eb73823beE
                0x0000000000140108        0x0 ./gen/../rust_opt/target/armv7a-none-eabi/release/libitron.a(core-d049573bc16596f9.core.5587a85061e7188a-cgu.0.rcgu.o)
                                          0x8 (size before relaxing)
 .ARM.exidx.text._ZN4core3net6parser85_$LT$impl$u20$core..str..traits..FromStr$u20$for$u20$core..net..ip_addr..Ipv6Addr$GT$8from_str17h685b7483d3d506d7E
                0x0000000000140108        0x0 ./gen/../rust_opt/target/armv7a-none-eabi/release/libitron.a(core-d049573bc16596f9.core.5587a85061e7188a-cgu.0.rcgu.o)
                                          0x8 (size before relaxing)
 .ARM.exidx.text._ZN4core3net6parser54_$LT$impl$u20$core..net..socket_addr..SocketAddrV4$GT$11parse_ascii17hc07de5cf09e25fb1E
                0x0000000000140108        0x0 ./gen/../rust_opt/target/armv7a-none-eabi/release/libitron.a(core-d049573bc16596f9.core.5587a85061e7188a-cgu.0.rcgu.o)
                                          0x8 (size before relaxing)
 .ARM.exidx.text._ZN4core3net6parser93_$LT$impl$u20$core..str..traits..FromStr$u20$for$u20$core..net..socket_addr..SocketAddrV4$GT$8from_str17h5883a36bbe26488dE
                0x0000000000140108        0x0 ./gen/../rust_opt/target/armv7a-none-eabi/release/libitron.a(core-d049573bc16596f9.core.5587a85061e7188a-cgu.0.rcgu.o)
                                          0x8 (size before relaxing)
 .ARM.exidx.text._ZN4core3net6parser54_$LT$impl$u20$core..net..socket_addr..SocketAddrV6$GT$11parse_ascii17hbe6498756ef255a7E
                0x0000000000140108        0x0 ./gen/../rust_opt/target/armv7a-none-eabi/release/libitron.a(core-d049573bc16596f9.core.5587a85061e7188a-cgu.0.rcgu.o)
                                          0x8 (size before relaxing)
 .ARM.exidx.text._ZN4core3net6parser93_$LT$impl$u20$core..str..traits..FromStr$u20$for$u20$core..net..socket_addr..SocketAddrV6$GT$8from_str17hf8a18b6a5bf3759eE
                0x0000000000140108        0x0 ./gen/../rust_opt/target/armv7a-none-eabi/release/libitron.a(core-d049573bc16596f9.core.5587a85061e7188a-cgu.0.rcgu.o)
                                          0x8 (size before relaxing)
 .ARM.exidx.text._ZN4core3net6parser52_$LT$impl$u20$core..net..socket_addr..SocketAddr$GT$11parse_ascii17h32c0686e61a62a97E
                0x0000000000140108        0x0 ./gen/../rust_opt/target/armv7a-none-eabi/release/libitron.a(core-d049573bc16596f9.core.5587a85061e7188a-cgu.0.rcgu.o)
                                          0x8 (size before relaxing)
 .ARM.exidx.text._ZN4core3net6parser91_$LT$impl$u20$core..str..traits..FromStr$u20$for$u20$core..net..socket_addr..SocketAddr$GT$8from_str17he89fdbe831fc4256E
                0x0000000000140108        0x0 ./gen/../rust_opt/target/armv7a-none-eabi/release/libitron.a(core-d049573bc16596f9.core.5587a85061e7188a-cgu.0.rcgu.o)
                                          0x8 (size before relaxing)
 .ARM.exidx.text._ZN72_$LT$core..net..parser..AddrParseError$u20$as$u20$core..fmt..Display$GT$3fmt17hd7f7df04664d2864E
                0x0000000000140108        0x0 ./gen/../rust_opt/target/armv7a-none-eabi/release/libitron.a(core-d049573bc16596f9.core.5587a85061e7188a-cgu.0.rcgu.o)
                                          0x8 (size before relaxing)
 .ARM.exidx.text._ZN73_$LT$core..net..socket_addr..SocketAddr$u20$as$u20$core..fmt..Display$GT$3fmt17hd0e981e04411525aE
                0x0000000000140108        0x0 ./gen/../rust_opt/target/armv7a-none-eabi/release/libitron.a(core-d049573bc16596f9.core.5587a85061e7188a-cgu.0.rcgu.o)
                                          0x8 (size before relaxing)
 .ARM.exidx.text._ZN71_$LT$core..net..socket_addr..SocketAddr$u20$as$u20$core..fmt..Debug$GT$3fmt17hd95cf7ae4353c951E
                0x0000000000140108        0x0 ./gen/../rust_opt/target/armv7a-none-eabi/release/libitron.a(core-d049573bc16596f9.core.5587a85061e7188a-cgu.0.rcgu.o)
                                          0x8 (size before relaxing)
 .ARM.exidx.text._ZN75_$LT$core..net..socket_addr..SocketAddrV4$u20$as$u20$core..fmt..Display$GT$3fmt17hb358e369cb8dcc74E
                0x0000000000140108        0x0 ./gen/../rust_opt/target/armv7a-none-eabi/release/libitron.a(core-d049573bc16596f9.core.5587a85061e7188a-cgu.0.rcgu.o)
                                          0x8 (size before relaxing)
 .ARM.exidx.text._ZN73_$LT$core..net..socket_addr..SocketAddrV4$u20$as$u20$core..fmt..Debug$GT$3fmt17h47d2c03dbc6abbf5E
                0x0000000000140108        0x0 ./gen/../rust_opt/target/armv7a-none-eabi/release/libitron.a(core-d049573bc16596f9.core.5587a85061e7188a-cgu.0.rcgu.o)
                                          0x8 (size before relaxing)
 .ARM.exidx.text._ZN75_$LT$core..net..socket_addr..SocketAddrV6$u20$as$u20$core..fmt..Display$GT$3fmt17hb242d5ced67c2003E
                0x0000000000140108        0x0 ./gen/../rust_opt/target/armv7a-none-eabi/release/libitron.a(core-d049573bc16596f9.core.5587a85061e7188a-cgu.0.rcgu.o)
                                          0x8 (size before relaxing)
 .ARM.exidx.text._ZN73_$LT$core..net..socket_addr..SocketAddrV6$u20$as$u20$core..fmt..Debug$GT$3fmt17h008793ff64f0e572E
                0x0000000000140108        0x0 ./gen/../rust_opt/target/armv7a-none-eabi/release/libitron.a(core-d049573bc16596f9.core.5587a85061e7188a-cgu.0.rcgu.o)
                                          0x8 (size before relaxing)
 .ARM.exidx.text.unlikely._ZN4core6option13unwrap_failed17h39a76a4d9e444e97E
                0x0000000000140108        0x0 ./gen/../rust_opt/target/armv7a-none-eabi/release/libitron.a(core-d049573bc16596f9.core.5587a85061e7188a-cgu.0.rcgu.o)
                                          0x8 (size before relaxing)
 .ARM.exidx.text.unlikely._ZN4core6option13expect_failed17hf032828b69e8f9cdE
                0x0000000000140108        0x0 ./gen/../rust_opt/target/armv7a-none-eabi/release/libitron.a(core-d049573bc16596f9.core.5587a85061e7188a-cgu.0.rcgu.o)
                                          0x8 (size before relaxing)
 .ARM.exidx.text._ZN73_$LT$core..panic..panic_info..PanicInfo$u20$as$u20$core..fmt..Display$GT$3fmt17he8ae0930573845dbE
                0x0000000000140108        0x0 ./gen/../rust_opt/target/armv7a-none-eabi/release/libitron.a(core-d049573bc16596f9.core.5587a85061e7188a-cgu.0.rcgu.o)
                                          0x8 (size before relaxing)
 .ARM.exidx.text.unlikely._ZN4core9panicking9panic_fmt17h5145975cf535bc42E
                0x0000000000140108        0x0 ./gen/../rust_opt/target/armv7a-none-eabi/release/libitron.a(core-d049573bc16596f9.core.5587a85061e7188a-cgu.0.rcgu.o)
                                          0x8 (size before relaxing)
 .ARM.exidx.text.unlikely._ZN4core9panicking18panic_nounwind_fmt17h7e174a309b689b0fE
                0x0000000000140108        0x0 ./gen/../rust_opt/target/armv7a-none-eabi/release/libitron.a(core-d049573bc16596f9.core.5587a85061e7188a-cgu.0.rcgu.o)
                                          0x8 (size before relaxing)
 .ARM.exidx.text.unlikely._ZN4core9panicking5panic17h04eb6169f90051c3E
                0x0000000000140108        0x0 ./gen/../rust_opt/target/armv7a-none-eabi/release/libitron.a(core-d049573bc16596f9.core.5587a85061e7188a-cgu.0.rcgu.o)
                                          0x8 (size before relaxing)
 .ARM.exidx.text.unlikely._ZN4core9panicking14panic_nounwind17hb8efc6a66a7c1fb5E
                0x0000000000140108        0x0 ./gen/../rust_opt/target/armv7a-none-eabi/release/libitron.a(core-d049573bc16596f9.core.5587a85061e7188a-cgu.0.rcgu.o)
                                          0x8 (size before relaxing)
 .ARM.exidx.text.unlikely._ZN4core9panicking26panic_nounwind_nobacktrace17hcf6b6f7ce89f1dabE
                0x0000000000140108        0x0 ./gen/../rust_opt/target/armv7a-none-eabi/release/libitron.a(core-d049573bc16596f9.core.5587a85061e7188a-cgu.0.rcgu.o)
                                          0x8 (size before relaxing)
 .ARM.exidx.text.unlikely._ZN4core9panicking14panic_explicit17he7bebe483a3bfe34E
                0x0000000000140108        0x0 ./gen/../rust_opt/target/armv7a-none-eabi/release/libitron.a(core-d049573bc16596f9.core.5587a85061e7188a-cgu.0.rcgu.o)
                                          0x8 (size before relaxing)
 .ARM.exidx.text.unlikely._ZN4core9panicking18panic_bounds_check17he2f51b500041724aE
                0x0000000000140108        0x0 ./gen/../rust_opt/target/armv7a-none-eabi/release/libitron.a(core-d049573bc16596f9.core.5587a85061e7188a-cgu.0.rcgu.o)
                                          0x8 (size before relaxing)
 .ARM.exidx.text.unlikely._ZN4core9panicking36panic_misaligned_pointer_dereference17hca8f56f08697e9a1E
                0x0000000000140108        0x0 ./gen/../rust_opt/target/armv7a-none-eabi/release/libitron.a(core-d049573bc16596f9.core.5587a85061e7188a-cgu.0.rcgu.o)
                                          0x8 (size before relaxing)
 .ARM.exidx.text.unlikely._ZN4core9panicking30panic_null_pointer_dereference17hd07e38dada2babd1E
                0x0000000000140108        0x0 ./gen/../rust_opt/target/armv7a-none-eabi/release/libitron.a(core-d049573bc16596f9.core.5587a85061e7188a-cgu.0.rcgu.o)
                                          0x8 (size before relaxing)
 .ARM.exidx.text.unlikely._ZN4core9panicking19panic_cannot_unwind17h88003aad7d959a86E
                0x0000000000140108        0x0 ./gen/../rust_opt/target/armv7a-none-eabi/release/libitron.a(core-d049573bc16596f9.core.5587a85061e7188a-cgu.0.rcgu.o)
                                          0x8 (size before relaxing)
 .ARM.exidx.text.unlikely._ZN4core9panicking16panic_in_cleanup17he6ef00938a5a6327E
                0x0000000000140108        0x0 ./gen/../rust_opt/target/armv7a-none-eabi/release/libitron.a(core-d049573bc16596f9.core.5587a85061e7188a-cgu.0.rcgu.o)
                                          0x8 (size before relaxing)
 .ARM.exidx.text.unlikely._ZN4core9panicking15const_panic_fmt17h6a5d3cae6d10461cE
                0x0000000000140108        0x0 ./gen/../rust_opt/target/armv7a-none-eabi/release/libitron.a(core-d049573bc16596f9.core.5587a85061e7188a-cgu.0.rcgu.o)
                                          0x8 (size before relaxing)
 .ARM.exidx.text.unlikely._ZN4core9panicking13assert_failed17h2f1d8849fc674a9bE
                0x0000000000140108        0x0 ./gen/../rust_opt/target/armv7a-none-eabi/release/libitron.a(core-d049573bc16596f9.core.5587a85061e7188a-cgu.0.rcgu.o)
                                          0x8 (size before relaxing)
 .ARM.exidx.text.unlikely._ZN4core9panicking13assert_failed17h8a42116d81ae2397E
                0x0000000000140108        0x0 ./gen/../rust_opt/target/armv7a-none-eabi/release/libitron.a(core-d049573bc16596f9.core.5587a85061e7188a-cgu.0.rcgu.o)
                                          0x8 (size before relaxing)
 .ARM.exidx.text._ZN84_$LT$core..panicking..assert_matches_failed..Pattern$u20$as$u20$core..fmt..Debug$GT$3fmt17h3bf79b8a4bc8fc51E
                0x0000000000140108        0x0 ./gen/../rust_opt/target/armv7a-none-eabi/release/libitron.a(core-d049573bc16596f9.core.5587a85061e7188a-cgu.0.rcgu.o)
                                          0x8 (size before relaxing)
 .ARM.exidx.text.unlikely._ZN4core9panicking19assert_failed_inner17h1f0479933a2bc628E
                0x0000000000140108        0x0 ./gen/../rust_opt/target/armv7a-none-eabi/release/libitron.a(core-d049573bc16596f9.core.5587a85061e7188a-cgu.0.rcgu.o)
                                          0x8 (size before relaxing)
 .ARM.exidx.text._ZN48_$LT$char$u20$as$u20$core..pat..RangePattern$GT$7sub_one17hc1333cb071cfc1b6E
                0x0000000000140108        0x0 ./gen/../rust_opt/target/armv7a-none-eabi/release/libitron.a(core-d049573bc16596f9.core.5587a85061e7188a-cgu.0.rcgu.o)
                                          0x8 (size before relaxing)
 .ARM.exidx.text.unlikely._ZN4core6result13unwrap_failed17h238a41f9432ebe61E
                0x0000000000140108        0x0 ./gen/../rust_opt/target/armv7a-none-eabi/release/libitron.a(core-d049573bc16596f9.core.5587a85061e7188a-cgu.0.rcgu.o)
                                          0x8 (size before relaxing)
 .ARM.exidx.text._ZN67_$LT$core..sync..atomic..AtomicBool$u20$as$u20$core..fmt..Debug$GT$3fmt17h36e87f0defe65ad8E
                0x0000000000140108        0x0 ./gen/../rust_opt/target/armv7a-none-eabi/release/libitron.a(core-d049573bc16596f9.core.5587a85061e7188a-cgu.0.rcgu.o)
                                          0x8 (size before relaxing)
 .ARM.exidx.text._ZN4core3fmt8builders10PadAdapter4wrap17h8cec362b75ec2f49E
                0x0000000000140108        0x0 ./gen/../rust_opt/target/armv7a-none-eabi/release/libitron.a(core-d049573bc16596f9.core.5587a85061e7188a-cgu.0.rcgu.o)
                                          0x8 (size before relaxing)
 .ARM.exidx.text._ZN68_$LT$core..fmt..builders..PadAdapter$u20$as$u20$core..fmt..Write$GT$9write_str17hc81ad4e78c0c990cE
                0x0000000000140108        0x0 ./gen/../rust_opt/target/armv7a-none-eabi/release/libitron.a(core-d049573bc16596f9.core.5587a85061e7188a-cgu.0.rcgu.o)
                                          0x8 (size before relaxing)
 .ARM.exidx.text._ZN68_$LT$core..fmt..builders..PadAdapter$u20$as$u20$core..fmt..Write$GT$10write_char17h121f3a024053ccfbE
                0x0000000000140108        0x0 ./gen/../rust_opt/target/armv7a-none-eabi/release/libitron.a(core-d049573bc16596f9.core.5587a85061e7188a-cgu.0.rcgu.o)
                                          0x8 (size before relaxing)
 .ARM.exidx.text._ZN4core3fmt8builders11DebugStruct5field17h118827344b19fbe7E
                0x0000000000140108        0x0 ./gen/../rust_opt/target/armv7a-none-eabi/release/libitron.a(core-d049573bc16596f9.core.5587a85061e7188a-cgu.0.rcgu.o)
                                          0x8 (size before relaxing)
 .ARM.exidx.text._ZN4core3fmt8builders11DebugStruct21finish_non_exhaustive17ha59f74934d70120cE
                0x0000000000140108        0x0 ./gen/../rust_opt/target/armv7a-none-eabi/release/libitron.a(core-d049573bc16596f9.core.5587a85061e7188a-cgu.0.rcgu.o)
                                          0x8 (size before relaxing)
 .ARM.exidx.text._ZN4core3fmt8builders11DebugStruct6finish17h62dcffc385683e70E
                0x0000000000140108        0x0 ./gen/../rust_opt/target/armv7a-none-eabi/release/libitron.a(core-d049573bc16596f9.core.5587a85061e7188a-cgu.0.rcgu.o)
                                          0x8 (size before relaxing)
 .ARM.exidx.text._ZN4core3fmt8builders10DebugTuple5field17hd25f2ea26ee9220fE
                0x0000000000140108        0x0 ./gen/../rust_opt/target/armv7a-none-eabi/release/libitron.a(core-d049573bc16596f9.core.5587a85061e7188a-cgu.0.rcgu.o)
                                          0x8 (size before relaxing)
 .ARM.exidx.text._ZN4core3fmt8builders10DebugTuple21finish_non_exhaustive17hbea2c5cc6d18b83cE
                0x0000000000140108        0x0 ./gen/../rust_opt/target/armv7a-none-eabi/release/libitron.a(core-d049573bc16596f9.core.5587a85061e7188a-cgu.0.rcgu.o)
                                          0x8 (size before relaxing)
 .ARM.exidx.text._ZN4core3fmt8builders10DebugTuple6finish17h75fa298d273b9537E
                0x0000000000140108        0x0 ./gen/../rust_opt/target/armv7a-none-eabi/release/libitron.a(core-d049573bc16596f9.core.5587a85061e7188a-cgu.0.rcgu.o)
                                          0x8 (size before relaxing)
 .ARM.exidx.text._ZN4core3fmt8builders8DebugSet5entry17h6f9f49712cdf1c8aE
                0x0000000000140108        0x0 ./gen/../rust_opt/target/armv7a-none-eabi/release/libitron.a(core-d049573bc16596f9.core.5587a85061e7188a-cgu.0.rcgu.o)
                                          0x8 (size before relaxing)
 .ARM.exidx.text._ZN4core3fmt8builders8DebugSet21finish_non_exhaustive17h056b5628e91579d3E
                0x0000000000140108        0x0 ./gen/../rust_opt/target/armv7a-none-eabi/release/libitron.a(core-d049573bc16596f9.core.5587a85061e7188a-cgu.0.rcgu.o)
                                          0x8 (size before relaxing)
 .ARM.exidx.text._ZN4core3fmt8builders8DebugSet6finish17hb775269289642050E
                0x0000000000140108        0x0 ./gen/../rust_opt/target/armv7a-none-eabi/release/libitron.a(core-d049573bc16596f9.core.5587a85061e7188a-cgu.0.rcgu.o)
                                          0x8 (size before relaxing)
 .ARM.exidx.text._ZN4core3fmt8builders9DebugList21finish_non_exhaustive17h0964252c95243519E
                0x0000000000140108        0x0 ./gen/../rust_opt/target/armv7a-none-eabi/release/libitron.a(core-d049573bc16596f9.core.5587a85061e7188a-cgu.0.rcgu.o)
                                          0x8 (size before relaxing)
 .ARM.exidx.text._ZN4core3fmt8builders9DebugList6finish17h95901bb8c72ebeaaE
                0x0000000000140108        0x0 ./gen/../rust_opt/target/armv7a-none-eabi/release/libitron.a(core-d049573bc16596f9.core.5587a85061e7188a-cgu.0.rcgu.o)
                                          0x8 (size before relaxing)
 .ARM.exidx.text._ZN4core3fmt8builders8DebugMap5entry17hb5fe3985090a797eE
                0x0000000000140108        0x0 ./gen/../rust_opt/target/armv7a-none-eabi/release/libitron.a(core-d049573bc16596f9.core.5587a85061e7188a-cgu.0.rcgu.o)
                                          0x8 (size before relaxing)
 .ARM.exidx.text._ZN4core3fmt8builders8DebugMap3key17he972b5db7c272a06E
                0x0000000000140108        0x0 ./gen/../rust_opt/target/armv7a-none-eabi/release/libitron.a(core-d049573bc16596f9.core.5587a85061e7188a-cgu.0.rcgu.o)
                                          0x8 (size before relaxing)
 .ARM.exidx.text._ZN4core3fmt8builders8DebugMap5value17hc3fc83e3ff16426eE
                0x0000000000140108        0x0 ./gen/../rust_opt/target/armv7a-none-eabi/release/libitron.a(core-d049573bc16596f9.core.5587a85061e7188a-cgu.0.rcgu.o)
                                          0x8 (size before relaxing)
 .ARM.exidx.text._ZN4core3fmt8builders8DebugMap21finish_non_exhaustive17h1d063c8fc17c4fa1E
                0x0000000000140108        0x0 ./gen/../rust_opt/target/armv7a-none-eabi/release/libitron.a(core-d049573bc16596f9.core.5587a85061e7188a-cgu.0.rcgu.o)
                                          0x8 (size before relaxing)
 .ARM.exidx.text._ZN4core3fmt8builders8DebugMap6finish17h87c976a15d36c1beE
                0x0000000000140108        0x0 ./gen/../rust_opt/target/armv7a-none-eabi/release/libitron.a(core-d049573bc16596f9.core.5587a85061e7188a-cgu.0.rcgu.o)
                                          0x8 (size before relaxing)
 .ARM.exidx.text._ZN4core3fmt5float29float_to_decimal_common_exact17h7d85dbe2887defb2E
                0x0000000000140108        0x0 ./gen/../rust_opt/target/armv7a-none-eabi/release/libitron.a(core-d049573bc16596f9.core.5587a85061e7188a-cgu.0.rcgu.o)
                                          0x8 (size before relaxing)
 .ARM.exidx.text._ZN4core3fmt5float29float_to_decimal_common_exact17hb8ecc3a298064d1fE
                0x0000000000140108        0x0 ./gen/../rust_opt/target/armv7a-none-eabi/release/libitron.a(core-d049573bc16596f9.core.5587a85061e7188a-cgu.0.rcgu.o)
                                          0x8 (size before relaxing)
 .ARM.exidx.text._ZN4core3fmt5float29float_to_decimal_common_exact17hc4ee8b5197ebb838E
                0x0000000000140108        0x0 ./gen/../rust_opt/target/armv7a-none-eabi/release/libitron.a(core-d049573bc16596f9.core.5587a85061e7188a-cgu.0.rcgu.o)
                                          0x8 (size before relaxing)
 .ARM.exidx.text._ZN4core3fmt5float32float_to_decimal_common_shortest17h57f1a97492206944E
                0x0000000000140108        0x0 ./gen/../rust_opt/target/armv7a-none-eabi/release/libitron.a(core-d049573bc16596f9.core.5587a85061e7188a-cgu.0.rcgu.o)
                                          0x8 (size before relaxing)
 .ARM.exidx.text._ZN4core3fmt5float32float_to_decimal_common_shortest17hd1530ac16dbab458E
                0x0000000000140108        0x0 ./gen/../rust_opt/target/armv7a-none-eabi/release/libitron.a(core-d049573bc16596f9.core.5587a85061e7188a-cgu.0.rcgu.o)
                                          0x8 (size before relaxing)
 .ARM.exidx.text._ZN4core3fmt5float32float_to_decimal_common_shortest17hf774af481b6739e1E
                0x0000000000140108        0x0 ./gen/../rust_opt/target/armv7a-none-eabi/release/libitron.a(core-d049573bc16596f9.core.5587a85061e7188a-cgu.0.rcgu.o)
                                          0x8 (size before relaxing)
 .ARM.exidx.text._ZN4core3fmt5float33float_to_exponential_common_exact17h475946fbe25c96b4E
                0x0000000000140108        0x0 ./gen/../rust_opt/target/armv7a-none-eabi/release/libitron.a(core-d049573bc16596f9.core.5587a85061e7188a-cgu.0.rcgu.o)
                                          0x8 (size before relaxing)
 .ARM.exidx.text._ZN4core3fmt5float33float_to_exponential_common_exact17h58c854a839c522b9E
                0x0000000000140108        0x0 ./gen/../rust_opt/target/armv7a-none-eabi/release/libitron.a(core-d049573bc16596f9.core.5587a85061e7188a-cgu.0.rcgu.o)
                                          0x8 (size before relaxing)
 .ARM.exidx.text._ZN4core3fmt5float33float_to_exponential_common_exact17hf8c347a31f005498E
                0x0000000000140108        0x0 ./gen/../rust_opt/target/armv7a-none-eabi/release/libitron.a(core-d049573bc16596f9.core.5587a85061e7188a-cgu.0.rcgu.o)
                                          0x8 (size before relaxing)
 .ARM.exidx.text._ZN4core3fmt5float36float_to_exponential_common_shortest17h110c73098256b07dE
                0x0000000000140108        0x0 ./gen/../rust_opt/target/armv7a-none-eabi/release/libitron.a(core-d049573bc16596f9.core.5587a85061e7188a-cgu.0.rcgu.o)
                                          0x8 (size before relaxing)
 .ARM.exidx.text._ZN4core3fmt5float36float_to_exponential_common_shortest17hc2048c8ca710d24cE
                0x0000000000140108        0x0 ./gen/../rust_opt/target/armv7a-none-eabi/release/libitron.a(core-d049573bc16596f9.core.5587a85061e7188a-cgu.0.rcgu.o)
                                          0x8 (size before relaxing)
 .ARM.exidx.text._ZN4core3fmt5float36float_to_exponential_common_shortest17hded788cc3690643fE
                0x0000000000140108        0x0 ./gen/../rust_opt/target/armv7a-none-eabi/release/libitron.a(core-d049573bc16596f9.core.5587a85061e7188a-cgu.0.rcgu.o)
                                          0x8 (size before relaxing)
 .ARM.exidx.text._ZN4core3fmt3num14parse_u64_into17hdae6f27d721cd177E
                0x0000000000140108        0x0 ./gen/../rust_opt/target/armv7a-none-eabi/release/libitron.a(core-d049573bc16596f9.core.5587a85061e7188a-cgu.0.rcgu.o)
                                          0x8 (size before relaxing)
 .ARM.exidx.text._ZN4core3fmt3num53_$LT$impl$u20$core..fmt..Display$u20$for$u20$u128$GT$3fmt17he162d142fdfbe23dE
                0x0000000000140108        0x0 ./gen/../rust_opt/target/armv7a-none-eabi/release/libitron.a(core-d049573bc16596f9.core.5587a85061e7188a-cgu.0.rcgu.o)
                                          0x8 (size before relaxing)
 .ARM.exidx.text._ZN4core3fmt3num53_$LT$impl$u20$core..fmt..Display$u20$for$u20$i128$GT$3fmt17h41041c0cb7d944acE
                0x0000000000140108        0x0 ./gen/../rust_opt/target/armv7a-none-eabi/release/libitron.a(core-d049573bc16596f9.core.5587a85061e7188a-cgu.0.rcgu.o)
                                          0x8 (size before relaxing)
 .ARM.exidx.text._ZN4core3fmt3num8fmt_u12817h3ce49e52aad09f7aE
                0x0000000000140108        0x0 ./gen/../rust_opt/target/armv7a-none-eabi/release/libitron.a(core-d049573bc16596f9.core.5587a85061e7188a-cgu.0.rcgu.o)
                                          0x8 (size before relaxing)
 .ARM.exidx.text._ZN4core3fmt5Write10write_char17h0deb656a130510dcE
                0x0000000000140108        0x0 ./gen/../rust_opt/target/armv7a-none-eabi/release/libitron.a(core-d049573bc16596f9.core.5587a85061e7188a-cgu.0.rcgu.o)
                                          0x8 (size before relaxing)
 .ARM.exidx.text._ZN4core3fmt5Write10write_char17h121006013e2c64bdE
                0x0000000000140108        0x0 ./gen/../rust_opt/target/armv7a-none-eabi/release/libitron.a(core-d049573bc16596f9.core.5587a85061e7188a-cgu.0.rcgu.o)
                                          0x8 (size before relaxing)
 .ARM.exidx.text._ZN4core3fmt5Write10write_char17h20c6982f67c5a14cE
                0x0000000000140108        0x0 ./gen/../rust_opt/target/armv7a-none-eabi/release/libitron.a(core-d049573bc16596f9.core.5587a85061e7188a-cgu.0.rcgu.o)
                                          0x8 (size before relaxing)
 .ARM.exidx.text._ZN4core3fmt5Write10write_char17h884d76389de57237E
                0x0000000000140108        0x0 ./gen/../rust_opt/target/armv7a-none-eabi/release/libitron.a(core-d049573bc16596f9.core.5587a85061e7188a-cgu.0.rcgu.o)
                                          0x8 (size before relaxing)
 .ARM.exidx.text._ZN4core3fmt5Write9write_fmt17h07c1169efed3c695E
                0x0000000000140108        0x0 ./gen/../rust_opt/target/armv7a-none-eabi/release/libitron.a(core-d049573bc16596f9.core.5587a85061e7188a-cgu.0.rcgu.o)
                                          0x8 (size before relaxing)
 .ARM.exidx.text._ZN4core3fmt5Write9write_fmt17h32196b9e35a8bbc2E
                0x0000000000140108        0x0 ./gen/../rust_opt/target/armv7a-none-eabi/release/libitron.a(core-d049573bc16596f9.core.5587a85061e7188a-cgu.0.rcgu.o)
                                          0x8 (size before relaxing)
 .ARM.exidx.text._ZN4core3fmt5Write9write_fmt17h8420373094f7f4f3E
                0x0000000000140108        0x0 ./gen/../rust_opt/target/armv7a-none-eabi/release/libitron.a(core-d049573bc16596f9.core.5587a85061e7188a-cgu.0.rcgu.o)
                                          0x8 (size before relaxing)
 .ARM.exidx.text._ZN4core3fmt5Write9write_fmt17ha93132b80607745fE
                0x0000000000140108        0x0 ./gen/../rust_opt/target/armv7a-none-eabi/release/libitron.a(core-d049573bc16596f9.core.5587a85061e7188a-cgu.0.rcgu.o)
                                          0x8 (size before relaxing)
 .ARM.exidx.text._ZN4core3fmt5Write9write_fmt17he315d962ad1b87f3E
                0x0000000000140108        0x0 ./gen/../rust_opt/target/armv7a-none-eabi/release/libitron.a(core-d049573bc16596f9.core.5587a85061e7188a-cgu.0.rcgu.o)
                                          0x8 (size before relaxing)
 .ARM.exidx.text._ZN4core3fmt17FormattingOptions8get_fill17ha364eba16e39e9f9E
                0x0000000000140108        0x0 ./gen/../rust_opt/target/armv7a-none-eabi/release/libitron.a(core-d049573bc16596f9.core.5587a85061e7188a-cgu.0.rcgu.o)
                                          0x8 (size before relaxing)
 .ARM.exidx.text._ZN57_$LT$core..fmt..Arguments$u20$as$u20$core..fmt..Debug$GT$3fmt17hecd0089d3e424aecE
                0x0000000000140108        0x0 ./gen/../rust_opt/target/armv7a-none-eabi/release/libitron.a(core-d049573bc16596f9.core.5587a85061e7188a-cgu.0.rcgu.o)
                                          0x8 (size before relaxing)
 .ARM.exidx.text._ZN59_$LT$core..fmt..Arguments$u20$as$u20$core..fmt..Display$GT$3fmt17hcd13995007f793f4E
                0x0000000000140108        0x0 ./gen/../rust_opt/target/armv7a-none-eabi/release/libitron.a(core-d049573bc16596f9.core.5587a85061e7188a-cgu.0.rcgu.o)
                                          0x8 (size before relaxing)
 .ARM.exidx.text._ZN4core3fmt5write17hb714253c1b9e952cE
                0x0000000000140108        0x0 ./gen/../rust_opt/target/armv7a-none-eabi/release/libitron.a(core-d049573bc16596f9.core.5587a85061e7188a-cgu.0.rcgu.o)
                                          0x8 (size before relaxing)
 .ARM.exidx.text._ZN4core3fmt9Formatter12pad_integral17hec47f37da301c049E
                0x0000000000140108        0x0 ./gen/../rust_opt/target/armv7a-none-eabi/release/libitron.a(core-d049573bc16596f9.core.5587a85061e7188a-cgu.0.rcgu.o)
                                          0x8 (size before relaxing)
 .ARM.exidx.text._ZN4core3fmt9Formatter12pad_integral12write_prefix17hc4c0a7a0c94985adE
                0x0000000000140108        0x0 ./gen/../rust_opt/target/armv7a-none-eabi/release/libitron.a(core-d049573bc16596f9.core.5587a85061e7188a-cgu.0.rcgu.o)
                                          0x8 (size before relaxing)
 .ARM.exidx.text._ZN4core3fmt9Formatter3pad17h8e247c0c6f258b85E
                0x0000000000140108        0x0 ./gen/../rust_opt/target/armv7a-none-eabi/release/libitron.a(core-d049573bc16596f9.core.5587a85061e7188a-cgu.0.rcgu.o)
                                          0x8 (size before relaxing)
 .ARM.exidx.text._ZN4core3fmt9Formatter19pad_formatted_parts17ha476f236f4259153E
                0x0000000000140108        0x0 ./gen/../rust_opt/target/armv7a-none-eabi/release/libitron.a(core-d049573bc16596f9.core.5587a85061e7188a-cgu.0.rcgu.o)
                                          0x8 (size before relaxing)
 .ARM.exidx.text._ZN4core3fmt9Formatter21write_formatted_parts17h76662c6af77af83aE
                0x0000000000140108        0x0 ./gen/../rust_opt/target/armv7a-none-eabi/release/libitron.a(core-d049573bc16596f9.core.5587a85061e7188a-cgu.0.rcgu.o)
                                          0x8 (size before relaxing)
 .ARM.exidx.text._ZN4core3fmt9Formatter9write_str17hdfb7ca2c4bb7964eE
                0x0000000000140108        0x0 ./gen/../rust_opt/target/armv7a-none-eabi/release/libitron.a(core-d049573bc16596f9.core.5587a85061e7188a-cgu.0.rcgu.o)
                                          0x8 (size before relaxing)
 .ARM.exidx.text._ZN4core3fmt9Formatter4fill17hffaa17a0e6fadb77E
                0x0000000000140108        0x0 ./gen/../rust_opt/target/armv7a-none-eabi/release/libitron.a(core-d049573bc16596f9.core.5587a85061e7188a-cgu.0.rcgu.o)
                                          0x8 (size before relaxing)
 .ARM.exidx.text._ZN4core3fmt9Formatter12debug_struct17he204134461ecf684E
                0x0000000000140108        0x0 ./gen/../rust_opt/target/armv7a-none-eabi/release/libitron.a(core-d049573bc16596f9.core.5587a85061e7188a-cgu.0.rcgu.o)
                                          0x8 (size before relaxing)
 .ARM.exidx.text._ZN4core3fmt9Formatter26debug_struct_field1_finish17hfc5577f397af5417E
                0x0000000000140108        0x0 ./gen/../rust_opt/target/armv7a-none-eabi/release/libitron.a(core-d049573bc16596f9.core.5587a85061e7188a-cgu.0.rcgu.o)
                                          0x8 (size before relaxing)
 .ARM.exidx.text._ZN4core3fmt9Formatter26debug_struct_field2_finish17h250937b50b7d91dbE
                0x0000000000140108        0x0 ./gen/../rust_opt/target/armv7a-none-eabi/release/libitron.a(core-d049573bc16596f9.core.5587a85061e7188a-cgu.0.rcgu.o)
                                          0x8 (size before relaxing)
 .ARM.exidx.text._ZN4core3fmt9Formatter26debug_struct_field3_finish17h2e39e36ff7dea516E
                0x0000000000140108        0x0 ./gen/../rust_opt/target/armv7a-none-eabi/release/libitron.a(core-d049573bc16596f9.core.5587a85061e7188a-cgu.0.rcgu.o)
                                          0x8 (size before relaxing)
 .ARM.exidx.text._ZN4core3fmt9Formatter26debug_struct_field4_finish17hd85fc51ea53a6480E
                0x0000000000140108        0x0 ./gen/../rust_opt/target/armv7a-none-eabi/release/libitron.a(core-d049573bc16596f9.core.5587a85061e7188a-cgu.0.rcgu.o)
                                          0x8 (size before relaxing)
 .ARM.exidx.text._ZN4core3fmt9Formatter26debug_struct_field5_finish17haacbff9cf3eec5ccE
                0x0000000000140108        0x0 ./gen/../rust_opt/target/armv7a-none-eabi/release/libitron.a(core-d049573bc16596f9.core.5587a85061e7188a-cgu.0.rcgu.o)
                                          0x8 (size before relaxing)
 .ARM.exidx.text._ZN4core3fmt9Formatter26debug_struct_fields_finish17hbc4a9600e0d1f479E
                0x0000000000140108        0x0 ./gen/../rust_opt/target/armv7a-none-eabi/release/libitron.a(core-d049573bc16596f9.core.5587a85061e7188a-cgu.0.rcgu.o)
                                          0x8 (size before relaxing)
 .ARM.exidx.text._ZN4core3fmt9Formatter11debug_tuple17h940ad0dd22d147c8E
                0x0000000000140108        0x0 ./gen/../rust_opt/target/armv7a-none-eabi/release/libitron.a(core-d049573bc16596f9.core.5587a85061e7188a-cgu.0.rcgu.o)
                                          0x8 (size before relaxing)
 .ARM.exidx.text._ZN4core3fmt9Formatter25debug_tuple_field1_finish17h3462a89b33c73d6eE
                0x0000000000140108        0x0 ./gen/../rust_opt/target/armv7a-none-eabi/release/libitron.a(core-d049573bc16596f9.core.5587a85061e7188a-cgu.0.rcgu.o)
                                          0x8 (size before relaxing)
 .ARM.exidx.text._ZN4core3fmt9Formatter25debug_tuple_field2_finish17hc4dc9b596154de93E
                0x0000000000140108        0x0 ./gen/../rust_opt/target/armv7a-none-eabi/release/libitron.a(core-d049573bc16596f9.core.5587a85061e7188a-cgu.0.rcgu.o)
                                          0x8 (size before relaxing)
 .ARM.exidx.text._ZN4core3fmt9Formatter25debug_tuple_field3_finish17h164749d4d77ab572E
                0x0000000000140108        0x0 ./gen/../rust_opt/target/armv7a-none-eabi/release/libitron.a(core-d049573bc16596f9.core.5587a85061e7188a-cgu.0.rcgu.o)
                                          0x8 (size before relaxing)
 .ARM.exidx.text._ZN4core3fmt9Formatter25debug_tuple_field4_finish17h87085ebfbf56e53eE
                0x0000000000140108        0x0 ./gen/../rust_opt/target/armv7a-none-eabi/release/libitron.a(core-d049573bc16596f9.core.5587a85061e7188a-cgu.0.rcgu.o)
                                          0x8 (size before relaxing)
 .ARM.exidx.text._ZN4core3fmt9Formatter25debug_tuple_field5_finish17he4dec699aac9d2a9E
                0x0000000000140108        0x0 ./gen/../rust_opt/target/armv7a-none-eabi/release/libitron.a(core-d049573bc16596f9.core.5587a85061e7188a-cgu.0.rcgu.o)
                                          0x8 (size before relaxing)
 .ARM.exidx.text._ZN4core3fmt9Formatter25debug_tuple_fields_finish17hb3065dfeca0f69b2E
                0x0000000000140108        0x0 ./gen/../rust_opt/target/armv7a-none-eabi/release/libitron.a(core-d049573bc16596f9.core.5587a85061e7188a-cgu.0.rcgu.o)
                                          0x8 (size before relaxing)
 .ARM.exidx.text._ZN4core3fmt9Formatter10debug_list17h324a4227e38e4e1cE
                0x0000000000140108        0x0 ./gen/../rust_opt/target/armv7a-none-eabi/release/libitron.a(core-d049573bc16596f9.core.5587a85061e7188a-cgu.0.rcgu.o)
                                          0x8 (size before relaxing)
 .ARM.exidx.text._ZN4core3fmt9Formatter9debug_set17h8342974783863c44E
                0x0000000000140108        0x0 ./gen/../rust_opt/target/armv7a-none-eabi/release/libitron.a(core-d049573bc16596f9.core.5587a85061e7188a-cgu.0.rcgu.o)
                                          0x8 (size before relaxing)
 .ARM.exidx.text._ZN4core3fmt9Formatter9debug_map17hd46370b77cf960edE
                0x0000000000140108        0x0 ./gen/../rust_opt/target/armv7a-none-eabi/release/libitron.a(core-d049573bc16596f9.core.5587a85061e7188a-cgu.0.rcgu.o)
                                          0x8 (size before relaxing)
 .ARM.exidx.text._ZN57_$LT$core..fmt..Formatter$u20$as$u20$core..fmt..Write$GT$10write_char17ha022f916fb525171E
                0x0000000000140108        0x0 ./gen/../rust_opt/target/armv7a-none-eabi/release/libitron.a(core-d049573bc16596f9.core.5587a85061e7188a-cgu.0.rcgu.o)
                                          0x8 (size before relaxing)
 .ARM.exidx.text._ZN55_$LT$core..fmt..Error$u20$as$u20$core..fmt..Display$GT$3fmt17h603b7f267edd160dE
                0x0000000000140108        0x0 ./gen/../rust_opt/target/armv7a-none-eabi/release/libitron.a(core-d049573bc16596f9.core.5587a85061e7188a-cgu.0.rcgu.o)
                                          0x8 (size before relaxing)
 .ARM.exidx.text._ZN43_$LT$bool$u20$as$u20$core..fmt..Display$GT$3fmt17h37b2e11049775da3E
                0x0000000000140108        0x0 ./gen/../rust_opt/target/armv7a-none-eabi/release/libitron.a(core-d049573bc16596f9.core.5587a85061e7188a-cgu.0.rcgu.o)
                                          0x8 (size before relaxing)
 .ARM.exidx.text._ZN40_$LT$str$u20$as$u20$core..fmt..Debug$GT$3fmt17hbfa9400b4ed4d146E
                0x0000000000140108        0x0 ./gen/../rust_opt/target/armv7a-none-eabi/release/libitron.a(core-d049573bc16596f9.core.5587a85061e7188a-cgu.0.rcgu.o)
                                          0x8 (size before relaxing)
 .ARM.exidx.text._ZN42_$LT$str$u20$as$u20$core..fmt..Display$GT$3fmt17h1a2739d2b1badf3eE
                0x0000000000140108        0x0 ./gen/../rust_opt/target/armv7a-none-eabi/release/libitron.a(core-d049573bc16596f9.core.5587a85061e7188a-cgu.0.rcgu.o)
                                          0x8 (size before relaxing)
 .ARM.exidx.text._ZN41_$LT$char$u20$as$u20$core..fmt..Debug$GT$3fmt17hf8537c7d284af8e9E
                0x0000000000140108        0x0 ./gen/../rust_opt/target/armv7a-none-eabi/release/libitron.a(core-d049573bc16596f9.core.5587a85061e7188a-cgu.0.rcgu.o)
                                          0x8 (size before relaxing)
 .ARM.exidx.text._ZN43_$LT$char$u20$as$u20$core..fmt..Display$GT$3fmt17h759ac83f19cee971E
                0x0000000000140108        0x0 ./gen/../rust_opt/target/armv7a-none-eabi/release/libitron.a(core-d049573bc16596f9.core.5587a85061e7188a-cgu.0.rcgu.o)
                                          0x8 (size before relaxing)
 .ARM.exidx.text._ZN4core3fmt17pointer_fmt_inner17h83d31351164c23f2E
                0x0000000000140108        0x0 ./gen/../rust_opt/target/armv7a-none-eabi/release/libitron.a(core-d049573bc16596f9.core.5587a85061e7188a-cgu.0.rcgu.o)
                                          0x8 (size before relaxing)
 .ARM.exidx.text._ZN52_$LT$$BP$const$u20$T$u20$as$u20$core..fmt..Debug$GT$3fmt17h52f0d6dcd4868dc8E
                0x0000000000140108        0x0 ./gen/../rust_opt/target/armv7a-none-eabi/release/libitron.a(core-d049573bc16596f9.core.5587a85061e7188a-cgu.0.rcgu.o)
                                          0x8 (size before relaxing)
 .ARM.exidx.text._ZN4core5slice6memchr14memchr_aligned17hf608187b782eb764E
                0x0000000000140108        0x0 ./gen/../rust_opt/target/armv7a-none-eabi/release/libitron.a(core-d049573bc16596f9.core.5587a85061e7188a-cgu.0.rcgu.o)
                                          0x8 (size before relaxing)
 .ARM.exidx.text._ZN4core5slice6memchr7memrchr17h1b5e6bee0cdc7e3cE
                0x0000000000140108        0x0 ./gen/../rust_opt/target/armv7a-none-eabi/release/libitron.a(core-d049573bc16596f9.core.5587a85061e7188a-cgu.0.rcgu.o)
                                          0x8 (size before relaxing)
 .ARM.exidx.text._ZN4core5slice4sort6stable5drift11sqrt_approx17heb7d8e344c813c3bE
                0x0000000000140108        0x0 ./gen/../rust_opt/target/armv7a-none-eabi/release/libitron.a(core-d049573bc16596f9.core.5587a85061e7188a-cgu.0.rcgu.o)
                                          0x8 (size before relaxing)
 .ARM.exidx.text.unlikely._ZN4core5slice4sort6shared9smallsort22panic_on_ord_violation17h26f42ac12335c738E
                0x0000000000140108        0x0 ./gen/../rust_opt/target/armv7a-none-eabi/release/libitron.a(core-d049573bc16596f9.core.5587a85061e7188a-cgu.0.rcgu.o)
                                          0x8 (size before relaxing)
 .ARM.exidx.text._ZN105_$LT$core..slice..ascii..EscapeAscii$u20$as$u20$core..iter..traits..double_ended..DoubleEndedIterator$GT$9next_back17h58b0f7ecc71c56abE
                0x0000000000140108        0x0 ./gen/../rust_opt/target/armv7a-none-eabi/release/libitron.a(core-d049573bc16596f9.core.5587a85061e7188a-cgu.0.rcgu.o)
                                          0x8 (size before relaxing)
 .ARM.exidx.text._ZN70_$LT$core..slice..ascii..EscapeAscii$u20$as$u20$core..fmt..Display$GT$3fmt17h29e51c0221cfc6f4E
                0x0000000000140108        0x0 ./gen/../rust_opt/target/armv7a-none-eabi/release/libitron.a(core-d049573bc16596f9.core.5587a85061e7188a-cgu.0.rcgu.o)
                                          0x8 (size before relaxing)
 .ARM.exidx.text._ZN68_$LT$core..slice..ascii..EscapeAscii$u20$as$u20$core..fmt..Debug$GT$3fmt17hbb33b900076cece0E
                0x0000000000140108        0x0 ./gen/../rust_opt/target/armv7a-none-eabi/release/libitron.a(core-d049573bc16596f9.core.5587a85061e7188a-cgu.0.rcgu.o)
                                          0x8 (size before relaxing)
 .ARM.exidx.text.unlikely._ZN4core5slice5index26slice_start_index_len_fail17h38c824b450734dfcE
                0x0000000000140108        0x0 ./gen/../rust_opt/target/armv7a-none-eabi/release/libitron.a(core-d049573bc16596f9.core.5587a85061e7188a-cgu.0.rcgu.o)
                                          0x8 (size before relaxing)
 .ARM.exidx.text.unlikely._ZN4core5slice5index24slice_end_index_len_fail17hf4eb2611058c09afE
                0x0000000000140108        0x0 ./gen/../rust_opt/target/armv7a-none-eabi/release/libitron.a(core-d049573bc16596f9.core.5587a85061e7188a-cgu.0.rcgu.o)
                                          0x8 (size before relaxing)
 .ARM.exidx.text.unlikely._ZN4core5slice5index22slice_index_order_fail17hb31f14bd82bfcb5bE
                0x0000000000140108        0x0 ./gen/../rust_opt/target/armv7a-none-eabi/release/libitron.a(core-d049573bc16596f9.core.5587a85061e7188a-cgu.0.rcgu.o)
                                          0x8 (size before relaxing)
 .ARM.exidx.text.unlikely._ZN4core5slice5index31slice_start_index_overflow_fail17h682402ba819c482dE
                0x0000000000140108        0x0 ./gen/../rust_opt/target/armv7a-none-eabi/release/libitron.a(core-d049573bc16596f9.core.5587a85061e7188a-cgu.0.rcgu.o)
                                          0x8 (size before relaxing)
 .ARM.exidx.text.unlikely._ZN4core5slice5index29slice_end_index_overflow_fail17h6d8526257621818dE
                0x0000000000140108        0x0 ./gen/../rust_opt/target/armv7a-none-eabi/release/libitron.a(core-d049573bc16596f9.core.5587a85061e7188a-cgu.0.rcgu.o)
                                          0x8 (size before relaxing)
 .ARM.exidx.text._ZN4core5slice5index10into_range17h838d5809396762d6E
                0x0000000000140108        0x0 ./gen/../rust_opt/target/armv7a-none-eabi/release/libitron.a(core-d049573bc16596f9.core.5587a85061e7188a-cgu.0.rcgu.o)
                                          0x8 (size before relaxing)
 .ARM.exidx.text._ZN4core5slice5index16into_slice_range17h4e76af1b067ea36eE
                0x0000000000140108        0x0 ./gen/../rust_opt/target/armv7a-none-eabi/release/libitron.a(core-d049573bc16596f9.core.5587a85061e7188a-cgu.0.rcgu.o)
                                          0x8 (size before relaxing)
 .ARM.exidx.text.unlikely._ZN4core5slice29_$LT$impl$u20$$u5b$T$u5d$$GT$15copy_from_slice17len_mismatch_fail17hf3c6b69109ca94ceE
                0x0000000000140108        0x0 ./gen/../rust_opt/target/armv7a-none-eabi/release/libitron.a(core-d049573bc16596f9.core.5587a85061e7188a-cgu.0.rcgu.o)
                                          0x8 (size before relaxing)
 .ARM.exidx.text._ZN4core5slice29_$LT$impl$u20$$u5b$T$u5d$$GT$16align_to_offsets3gcd17h9ccf75cedf78b32bE
                0x0000000000140108        0x0 ./gen/../rust_opt/target/armv7a-none-eabi/release/libitron.a(core-d049573bc16596f9.core.5587a85061e7188a-cgu.0.rcgu.o)
                                          0x8 (size before relaxing)
 .ARM.exidx.text._ZN71_$LT$core..slice..GetDisjointMutError$u20$as$u20$core..fmt..Display$GT$3fmt17h67ba63dcac76d19cE
                0x0000000000140108        0x0 ./gen/../rust_opt/target/armv7a-none-eabi/release/libitron.a(core-d049573bc16596f9.core.5587a85061e7188a-cgu.0.rcgu.o)
                                          0x8 (size before relaxing)
 .ARM.exidx.text._ZN4core3str8converts9from_utf817h69ed1439eba52b92E
                0x0000000000140108        0x0 ./gen/../rust_opt/target/armv7a-none-eabi/release/libitron.a(core-d049573bc16596f9.core.5587a85061e7188a-cgu.0.rcgu.o)
                                          0x8 (size before relaxing)
 .ARM.exidx.text._ZN4core3str8converts13from_utf8_mut17h4e3a295159d63a91E
                0x0000000000140108        0x0 ./gen/../rust_opt/target/armv7a-none-eabi/release/libitron.a(core-d049573bc16596f9.core.5587a85061e7188a-cgu.0.rcgu.o)
                                          0x8 (size before relaxing)
 .ARM.exidx.text._ZN4core3str5count14do_count_chars17h9cffd9e3dec45553E
                0x0000000000140108        0x0 ./gen/../rust_opt/target/armv7a-none-eabi/release/libitron.a(core-d049573bc16596f9.core.5587a85061e7188a-cgu.0.rcgu.o)
                                          0x8 (size before relaxing)
 .ARM.exidx.text._ZN4core3str5count23char_count_general_case17h4d4c6ce16c4d1906E
                0x0000000000140108        0x0 ./gen/../rust_opt/target/armv7a-none-eabi/release/libitron.a(core-d049573bc16596f9.core.5587a85061e7188a-cgu.0.rcgu.o)
                                          0x8 (size before relaxing)
 .ARM.exidx.text._ZN66_$LT$core..str..error..Utf8Error$u20$as$u20$core..fmt..Display$GT$3fmt17h291d6cbe57b75336E
                0x0000000000140108        0x0 ./gen/../rust_opt/target/armv7a-none-eabi/release/libitron.a(core-d049573bc16596f9.core.5587a85061e7188a-cgu.0.rcgu.o)
                                          0x8 (size before relaxing)
 .ARM.exidx.text._ZN71_$LT$core..str..error..ParseBoolError$u20$as$u20$core..fmt..Display$GT$3fmt17h8ff3dff7cf95e9f3E
                0x0000000000140108        0x0 ./gen/../rust_opt/target/armv7a-none-eabi/release/libitron.a(core-d049573bc16596f9.core.5587a85061e7188a-cgu.0.rcgu.o)
                                          0x8 (size before relaxing)
 .ARM.exidx.text._ZN59_$LT$core..str..iter..Chars$u20$as$u20$core..fmt..Debug$GT$3fmt17hc296714f5aca8f63E
                0x0000000000140108        0x0 ./gen/../rust_opt/target/armv7a-none-eabi/release/libitron.a(core-d049573bc16596f9.core.5587a85061e7188a-cgu.0.rcgu.o)
                                          0x8 (size before relaxing)
 .ARM.exidx.text._ZN65_$LT$core..str..iter..EncodeUtf16$u20$as$u20$core..fmt..Debug$GT$3fmt17h470f6ac5da350b32E
                0x0000000000140108        0x0 ./gen/../rust_opt/target/armv7a-none-eabi/release/libitron.a(core-d049573bc16596f9.core.5587a85061e7188a-cgu.0.rcgu.o)
                                          0x8 (size before relaxing)
 .ARM.exidx.text.unlikely._ZN4core3str6traits23str_index_overflow_fail17h8bf11899d5e405f7E
                0x0000000000140108        0x0 ./gen/../rust_opt/target/armv7a-none-eabi/release/libitron.a(core-d049573bc16596f9.core.5587a85061e7188a-cgu.0.rcgu.o)
                                          0x8 (size before relaxing)
 .ARM.exidx.text._ZN4core3str7pattern11StrSearcher3new17h9540c37606476449E
                0x0000000000140108        0x0 ./gen/../rust_opt/target/armv7a-none-eabi/release/libitron.a(core-d049573bc16596f9.core.5587a85061e7188a-cgu.0.rcgu.o)
                                          0x8 (size before relaxing)
 .ARM.exidx.text._ZN60_$LT$core..str..lossy..Debug$u20$as$u20$core..fmt..Debug$GT$3fmt17h8e77771fab7a2f70E
                0x0000000000140108        0x0 ./gen/../rust_opt/target/armv7a-none-eabi/release/libitron.a(core-d049573bc16596f9.core.5587a85061e7188a-cgu.0.rcgu.o)
                                          0x8 (size before relaxing)
 .ARM.exidx.text._ZN87_$LT$core..str..lossy..Utf8Chunks$u20$as$u20$core..iter..traits..iterator..Iterator$GT$4next17he7d6cc4011e7786bE
                0x0000000000140108        0x0 ./gen/../rust_opt/target/armv7a-none-eabi/release/libitron.a(core-d049573bc16596f9.core.5587a85061e7188a-cgu.0.rcgu.o)
                                          0x8 (size before relaxing)
 .ARM.exidx.text._ZN65_$LT$core..str..lossy..Utf8Chunks$u20$as$u20$core..fmt..Debug$GT$3fmt17h9c45e8ae8211e985E
                0x0000000000140108        0x0 ./gen/../rust_opt/target/armv7a-none-eabi/release/libitron.a(core-d049573bc16596f9.core.5587a85061e7188a-cgu.0.rcgu.o)
                                          0x8 (size before relaxing)
 .ARM.exidx.text.unlikely._ZN4core3str16slice_error_fail17h4d59bc1e755bbe4fE
                0x0000000000140108        0x0 ./gen/../rust_opt/target/armv7a-none-eabi/release/libitron.a(core-d049573bc16596f9.core.5587a85061e7188a-cgu.0.rcgu.o)
                                          0x8 (size before relaxing)
 .ARM.exidx.text.unlikely._ZN4core3str19slice_error_fail_ct17hb73804428b3ba7caE
                0x0000000000140108        0x0 ./gen/../rust_opt/target/armv7a-none-eabi/release/libitron.a(core-d049573bc16596f9.core.5587a85061e7188a-cgu.0.rcgu.o)
                                          0x8 (size before relaxing)
 .ARM.exidx.text._ZN4core3str19slice_error_fail_rt17h7b2b73d8d28473e0E
                0x0000000000140108        0x0 ./gen/../rust_opt/target/armv7a-none-eabi/release/libitron.a(core-d049573bc16596f9.core.5587a85061e7188a-cgu.0.rcgu.o)
                                          0x8 (size before relaxing)
 .ARM.exidx.text._ZN4core3str21_$LT$impl$u20$str$GT$9from_utf817h9c50c6b49793a8caE
                0x0000000000140108        0x0 ./gen/../rust_opt/target/armv7a-none-eabi/release/libitron.a(core-d049573bc16596f9.core.5587a85061e7188a-cgu.0.rcgu.o)
                                          0x8 (size before relaxing)
 .ARM.exidx.text._ZN4core3str21_$LT$impl$u20$str$GT$13from_utf8_mut17hf789198352a0c0d6E
                0x0000000000140108        0x0 ./gen/../rust_opt/target/armv7a-none-eabi/release/libitron.a(core-d049573bc16596f9.core.5587a85061e7188a-cgu.0.rcgu.o)
                                          0x8 (size before relaxing)
 .ARM.exidx.text._ZN4core3str21_$LT$impl$u20$str$GT$18split_at_unchecked17h522070e8531a247cE
                0x0000000000140108        0x0 ./gen/../rust_opt/target/armv7a-none-eabi/release/libitron.a(core-d049573bc16596f9.core.5587a85061e7188a-cgu.0.rcgu.o)
                                          0x8 (size before relaxing)
 .ARM.exidx.text._ZN4core3str21_$LT$impl$u20$str$GT$22split_at_mut_unchecked17h188b8cf0a61e80b3E
                0x0000000000140108        0x0 ./gen/../rust_opt/target/armv7a-none-eabi/release/libitron.a(core-d049573bc16596f9.core.5587a85061e7188a-cgu.0.rcgu.o)
                                          0x8 (size before relaxing)
 .ARM.exidx.text._ZN4core3str21_$LT$impl$u20$str$GT$12escape_debug17h4c843b37cf90aab8E
                0x0000000000140108        0x0 ./gen/../rust_opt/target/armv7a-none-eabi/release/libitron.a(core-d049573bc16596f9.core.5587a85061e7188a-cgu.0.rcgu.o)
                                          0x8 (size before relaxing)
 .ARM.exidx.text._ZN4core3str21_$LT$impl$u20$str$GT$12substr_range17ha623b8a5a8d1bca1E
                0x0000000000140108        0x0 ./gen/../rust_opt/target/armv7a-none-eabi/release/libitron.a(core-d049573bc16596f9.core.5587a85061e7188a-cgu.0.rcgu.o)
                                          0x8 (size before relaxing)
 .ARM.exidx.text._ZN57_$LT$core..time..Duration$u20$as$u20$core..fmt..Debug$GT$3fmt17hcd9ec431bc2fce92E
                0x0000000000140108        0x0 ./gen/../rust_opt/target/armv7a-none-eabi/release/libitron.a(core-d049573bc16596f9.core.5587a85061e7188a-cgu.0.rcgu.o)
                                          0x8 (size before relaxing)
 .ARM.exidx.text._ZN57_$LT$core..time..Duration$u20$as$u20$core..fmt..Debug$GT$3fmt11fmt_decimal17h7fdaad1885d942cdE
                0x0000000000140108        0x0 ./gen/../rust_opt/target/armv7a-none-eabi/release/libitron.a(core-d049573bc16596f9.core.5587a85061e7188a-cgu.0.rcgu.o)
                                          0x8 (size before relaxing)
 .ARM.exidx.text._ZN57_$LT$core..time..Duration$u20$as$u20$core..fmt..Debug$GT$3fmt11fmt_decimal28_$u7b$$u7b$closure$u7d$$u7d$17hbee2c0b3604668e7E
                0x0000000000140108        0x0 ./gen/../rust_opt/target/armv7a-none-eabi/release/libitron.a(core-d049573bc16596f9.core.5587a85061e7188a-cgu.0.rcgu.o)
                                          0x8 (size before relaxing)
 .ARM.exidx.text._ZN72_$LT$core..time..TryFromFloatSecsError$u20$as$u20$core..fmt..Display$GT$3fmt17hbbacbc01f2a2ba20E
                0x0000000000140108        0x0 ./gen/../rust_opt/target/armv7a-none-eabi/release/libitron.a(core-d049573bc16596f9.core.5587a85061e7188a-cgu.0.rcgu.o)
                                          0x8 (size before relaxing)
 .ARM.exidx.text._ZN4core7unicode9printable5check17hc9e6c3ef98e586f8E
                0x0000000000140108        0x0 ./gen/../rust_opt/target/armv7a-none-eabi/release/libitron.a(core-d049573bc16596f9.core.5587a85061e7188a-cgu.0.rcgu.o)
                                          0x8 (size before relaxing)
 .ARM.exidx.text._ZN4core7unicode9printable12is_printable17he99174ef5bcc9597E
                0x0000000000140108        0x0 ./gen/../rust_opt/target/armv7a-none-eabi/release/libitron.a(core-d049573bc16596f9.core.5587a85061e7188a-cgu.0.rcgu.o)
                                          0x8 (size before relaxing)
 .ARM.exidx.text._ZN62_$LT$core..task..wake..Context$u20$as$u20$core..fmt..Debug$GT$3fmt17h2b9656f805ec1368E
                0x0000000000140108        0x0 ./gen/../rust_opt/target/armv7a-none-eabi/release/libitron.a(core-d049573bc16596f9.core.5587a85061e7188a-cgu.0.rcgu.o)
                                          0x8 (size before relaxing)
 .ARM.exidx.text._ZN60_$LT$core..task..wake..Waker$u20$as$u20$core..fmt..Debug$GT$3fmt17h961c0fb15e9f08e6E
                0x0000000000140108        0x0 ./gen/../rust_opt/target/armv7a-none-eabi/release/libitron.a(core-d049573bc16596f9.core.5587a85061e7188a-cgu.0.rcgu.o)
                                          0x8 (size before relaxing)
 .ARM.exidx.text._ZN65_$LT$core..task..wake..LocalWaker$u20$as$u20$core..fmt..Debug$GT$3fmt17h9f8823dc3c851087E
                0x0000000000140108        0x0 ./gen/../rust_opt/target/armv7a-none-eabi/release/libitron.a(core-d049573bc16596f9.core.5587a85061e7188a-cgu.0.rcgu.o)
                                          0x8 (size before relaxing)
 .ARM.exidx.text._ZN4core5alloc6layout6Layout19is_size_align_valid17hf9c352be39c461d0E
                0x0000000000140108        0x0 ./gen/../rust_opt/target/armv7a-none-eabi/release/libitron.a(core-d049573bc16596f9.core.5587a85061e7188a-cgu.0.rcgu.o)
                                          0x8 (size before relaxing)
 .ARM.exidx.text._ZN71_$LT$core..alloc..layout..LayoutError$u20$as$u20$core..fmt..Display$GT$3fmt17hdfc7ce4964ee7964E
                0x0000000000140108        0x0 ./gen/../rust_opt/target/armv7a-none-eabi/release/libitron.a(core-d049573bc16596f9.core.5587a85061e7188a-cgu.0.rcgu.o)
                                          0x8 (size before relaxing)
 .ARM.exidx.text._ZN62_$LT$core..alloc..AllocError$u20$as$u20$core..fmt..Display$GT$3fmt17h096a3621f7a659a9E
                0x0000000000140108        0x0 ./gen/../rust_opt/target/armv7a-none-eabi/release/libitron.a(core-d049573bc16596f9.core.5587a85061e7188a-cgu.0.rcgu.o)
                                          0x8 (size before relaxing)
 .ARM.exidx.text.unlikely._ZN4core3f3221_$LT$impl$u20$f32$GT$5clamp8do_panic7runtime17hd78a99da53448aa4E
                0x0000000000140108        0x0 ./gen/../rust_opt/target/armv7a-none-eabi/release/libitron.a(core-d049573bc16596f9.core.5587a85061e7188a-cgu.0.rcgu.o)
                                          0x8 (size before relaxing)
 .ARM.exidx.text.unlikely._ZN4core3f6421_$LT$impl$u20$f64$GT$5clamp8do_panic7runtime17h70e260bb90954182E
                0x0000000000140108        0x0 ./gen/../rust_opt/target/armv7a-none-eabi/release/libitron.a(core-d049573bc16596f9.core.5587a85061e7188a-cgu.0.rcgu.o)
                                          0x8 (size before relaxing)
 .ARM.exidx.text._ZN49_$LT$u8$u20$as$u20$core..num..bignum..FullOps$GT$12full_div_rem17h2cc384f2d3e77a4fE
                0x0000000000140108        0x0 ./gen/../rust_opt/target/armv7a-none-eabi/release/libitron.a(core-d049573bc16596f9.core.5587a85061e7188a-cgu.0.rcgu.o)
                                          0x8 (size before relaxing)
 .ARM.exidx.text._ZN50_$LT$u16$u20$as$u20$core..num..bignum..FullOps$GT$12full_div_rem17h895795127941bc5fE
                0x0000000000140108        0x0 ./gen/../rust_opt/target/armv7a-none-eabi/release/libitron.a(core-d049573bc16596f9.core.5587a85061e7188a-cgu.0.rcgu.o)
                                          0x8 (size before relaxing)
 .ARM.exidx.text._ZN50_$LT$u32$u20$as$u20$core..num..bignum..FullOps$GT$12full_div_rem17h28797f3a608675a0E
                0x0000000000140108        0x0 ./gen/../rust_opt/target/armv7a-none-eabi/release/libitron.a(core-d049573bc16596f9.core.5587a85061e7188a-cgu.0.rcgu.o)
                                          0x8 (size before relaxing)
 .ARM.exidx.text._ZN4core3num6bignum8Big32x408from_u6417hdb3b6b903cdc3a74E
                0x0000000000140108        0x0 ./gen/../rust_opt/target/armv7a-none-eabi/release/libitron.a(core-d049573bc16596f9.core.5587a85061e7188a-cgu.0.rcgu.o)
                                          0x8 (size before relaxing)
 .ARM.exidx.text._ZN4core3num6bignum8Big32x406digits17hc74a7300cf748785E
                0x0000000000140108        0x0 ./gen/../rust_opt/target/armv7a-none-eabi/release/libitron.a(core-d049573bc16596f9.core.5587a85061e7188a-cgu.0.rcgu.o)
                                          0x8 (size before relaxing)
 .ARM.exidx.text._ZN4core3num6bignum8Big32x407get_bit17hae59a386b0269424E
                0x0000000000140108        0x0 ./gen/../rust_opt/target/armv7a-none-eabi/release/libitron.a(core-d049573bc16596f9.core.5587a85061e7188a-cgu.0.rcgu.o)
                                          0x8 (size before relaxing)
 .ARM.exidx.text._ZN4core3num6bignum8Big32x407is_zero17h00d7531c94d29d9dE
                0x0000000000140108        0x0 ./gen/../rust_opt/target/armv7a-none-eabi/release/libitron.a(core-d049573bc16596f9.core.5587a85061e7188a-cgu.0.rcgu.o)
                                          0x8 (size before relaxing)
 .ARM.exidx.text._ZN4core3num6bignum8Big32x4010bit_length17h970dea92bc07a054E
                0x0000000000140108        0x0 ./gen/../rust_opt/target/armv7a-none-eabi/release/libitron.a(core-d049573bc16596f9.core.5587a85061e7188a-cgu.0.rcgu.o)
                                          0x8 (size before relaxing)
 .ARM.exidx.text._ZN4core3num6bignum8Big32x403add17hf98911729d873c67E
                0x0000000000140108        0x0 ./gen/../rust_opt/target/armv7a-none-eabi/release/libitron.a(core-d049573bc16596f9.core.5587a85061e7188a-cgu.0.rcgu.o)
                                          0x8 (size before relaxing)
 .ARM.exidx.text._ZN4core3num6bignum8Big32x409add_small17hae56cb6d24b5dd80E
                0x0000000000140108        0x0 ./gen/../rust_opt/target/armv7a-none-eabi/release/libitron.a(core-d049573bc16596f9.core.5587a85061e7188a-cgu.0.rcgu.o)
                                          0x8 (size before relaxing)
 .ARM.exidx.text._ZN4core3num6bignum8Big32x403sub17h8543d30192c621ccE
                0x0000000000140108        0x0 ./gen/../rust_opt/target/armv7a-none-eabi/release/libitron.a(core-d049573bc16596f9.core.5587a85061e7188a-cgu.0.rcgu.o)
                                          0x8 (size before relaxing)
 .ARM.exidx.text._ZN4core3num6bignum8Big32x409mul_small17h34ad2799e68baebeE
                0x0000000000140108        0x0 ./gen/../rust_opt/target/armv7a-none-eabi/release/libitron.a(core-d049573bc16596f9.core.5587a85061e7188a-cgu.0.rcgu.o)
                                          0x8 (size before relaxing)
 .ARM.exidx.text._ZN4core3num6bignum8Big32x408mul_pow217h15e29a86c60dd6baE
                0x0000000000140108        0x0 ./gen/../rust_opt/target/armv7a-none-eabi/release/libitron.a(core-d049573bc16596f9.core.5587a85061e7188a-cgu.0.rcgu.o)
                                          0x8 (size before relaxing)
 .ARM.exidx.text._ZN4core3num6bignum8Big32x408mul_pow517h4477c92c4a717ba9E
                0x0000000000140108        0x0 ./gen/../rust_opt/target/armv7a-none-eabi/release/libitron.a(core-d049573bc16596f9.core.5587a85061e7188a-cgu.0.rcgu.o)
                                          0x8 (size before relaxing)
 .ARM.exidx.text._ZN4core3num6bignum8Big32x4010mul_digits17hc6f1ffa637e3696eE
                0x0000000000140108        0x0 ./gen/../rust_opt/target/armv7a-none-eabi/release/libitron.a(core-d049573bc16596f9.core.5587a85061e7188a-cgu.0.rcgu.o)
                                          0x8 (size before relaxing)
 .ARM.exidx.text._ZN4core3num6bignum8Big32x4013div_rem_small17hddc1707b10a22fddE
                0x0000000000140108        0x0 ./gen/../rust_opt/target/armv7a-none-eabi/release/libitron.a(core-d049573bc16596f9.core.5587a85061e7188a-cgu.0.rcgu.o)
                                          0x8 (size before relaxing)
 .ARM.exidx.text._ZN4core3num6bignum8Big32x407div_rem17h0bf0c17f8e59470eE
                0x0000000000140108        0x0 ./gen/../rust_opt/target/armv7a-none-eabi/release/libitron.a(core-d049573bc16596f9.core.5587a85061e7188a-cgu.0.rcgu.o)
                                          0x8 (size before relaxing)
 .ARM.exidx.text._ZN68_$LT$core..num..bignum..Big32x40$u20$as$u20$core..cmp..PartialEq$GT$2eq17h2b3b2b69262323daE
                0x0000000000140108        0x0 ./gen/../rust_opt/target/armv7a-none-eabi/release/libitron.a(core-d049573bc16596f9.core.5587a85061e7188a-cgu.0.rcgu.o)
                                          0x8 (size before relaxing)
 .ARM.exidx.text._ZN69_$LT$core..num..bignum..Big32x40$u20$as$u20$core..cmp..PartialOrd$GT$11partial_cmp17hfaa047bbd7529c6dE
                0x0000000000140108        0x0 ./gen/../rust_opt/target/armv7a-none-eabi/release/libitron.a(core-d049573bc16596f9.core.5587a85061e7188a-cgu.0.rcgu.o)
                                          0x8 (size before relaxing)
 .ARM.exidx.text._ZN62_$LT$core..num..bignum..Big32x40$u20$as$u20$core..cmp..Ord$GT$3cmp17h3a927d79b9dd52acE
                0x0000000000140108        0x0 ./gen/../rust_opt/target/armv7a-none-eabi/release/libitron.a(core-d049573bc16596f9.core.5587a85061e7188a-cgu.0.rcgu.o)
                                          0x8 (size before relaxing)
 .ARM.exidx.text._ZN64_$LT$core..num..bignum..Big32x40$u20$as$u20$core..fmt..Debug$GT$3fmt17hc2049124d32db79eE
                0x0000000000140108        0x0 ./gen/../rust_opt/target/armv7a-none-eabi/release/libitron.a(core-d049573bc16596f9.core.5587a85061e7188a-cgu.0.rcgu.o)
                                          0x8 (size before relaxing)
 .ARM.exidx.text._ZN4core3num6bignum5tests6Big8x38from_u6417hd68b6d9a5152475dE
                0x0000000000140108        0x0 ./gen/../rust_opt/target/armv7a-none-eabi/release/libitron.a(core-d049573bc16596f9.core.5587a85061e7188a-cgu.0.rcgu.o)
                                          0x8 (size before relaxing)
 .ARM.exidx.text._ZN4core3num6bignum5tests6Big8x36digits17he3519563a60c1407E
                0x0000000000140108        0x0 ./gen/../rust_opt/target/armv7a-none-eabi/release/libitron.a(core-d049573bc16596f9.core.5587a85061e7188a-cgu.0.rcgu.o)
                                          0x8 (size before relaxing)
 .ARM.exidx.text._ZN4core3num6bignum5tests6Big8x37get_bit17h3c0e105d94bd5b13E
                0x0000000000140108        0x0 ./gen/../rust_opt/target/armv7a-none-eabi/release/libitron.a(core-d049573bc16596f9.core.5587a85061e7188a-cgu.0.rcgu.o)
                                          0x8 (size before relaxing)
 .ARM.exidx.text._ZN4core3num6bignum5tests6Big8x37is_zero17h32e72f5d7dbb5adbE
                0x0000000000140108        0x0 ./gen/../rust_opt/target/armv7a-none-eabi/release/libitron.a(core-d049573bc16596f9.core.5587a85061e7188a-cgu.0.rcgu.o)
                                          0x8 (size before relaxing)
 .ARM.exidx.text._ZN4core3num6bignum5tests6Big8x310bit_length17h83652b24f2592b66E
                0x0000000000140108        0x0 ./gen/../rust_opt/target/armv7a-none-eabi/release/libitron.a(core-d049573bc16596f9.core.5587a85061e7188a-cgu.0.rcgu.o)
                                          0x8 (size before relaxing)
 .ARM.exidx.text._ZN4core3num6bignum5tests6Big8x33add17h0ea9b7b009d144c0E
                0x0000000000140108        0x0 ./gen/../rust_opt/target/armv7a-none-eabi/release/libitron.a(core-d049573bc16596f9.core.5587a85061e7188a-cgu.0.rcgu.o)
                                          0x8 (size before relaxing)
 .ARM.exidx.text._ZN4core3num6bignum5tests6Big8x39add_small17hfb578bb3ef3121e5E
                0x0000000000140108        0x0 ./gen/../rust_opt/target/armv7a-none-eabi/release/libitron.a(core-d049573bc16596f9.core.5587a85061e7188a-cgu.0.rcgu.o)
                                          0x8 (size before relaxing)
 .ARM.exidx.text._ZN4core3num6bignum5tests6Big8x33sub17he7cc307db19dcf38E
                0x0000000000140108        0x0 ./gen/../rust_opt/target/armv7a-none-eabi/release/libitron.a(core-d049573bc16596f9.core.5587a85061e7188a-cgu.0.rcgu.o)
                                          0x8 (size before relaxing)
 .ARM.exidx.text._ZN4core3num6bignum5tests6Big8x39mul_small17h88500d5dffbe03a5E
                0x0000000000140108        0x0 ./gen/../rust_opt/target/armv7a-none-eabi/release/libitron.a(core-d049573bc16596f9.core.5587a85061e7188a-cgu.0.rcgu.o)
                                          0x8 (size before relaxing)
 .ARM.exidx.text._ZN4core3num6bignum5tests6Big8x38mul_pow217h7241f869c32bebc8E
                0x0000000000140108        0x0 ./gen/../rust_opt/target/armv7a-none-eabi/release/libitron.a(core-d049573bc16596f9.core.5587a85061e7188a-cgu.0.rcgu.o)
                                          0x8 (size before relaxing)
 .ARM.exidx.text._ZN4core3num6bignum5tests6Big8x38mul_pow517hbf8d1887a577d4b9E
                0x0000000000140108        0x0 ./gen/../rust_opt/target/armv7a-none-eabi/release/libitron.a(core-d049573bc16596f9.core.5587a85061e7188a-cgu.0.rcgu.o)
                                          0x8 (size before relaxing)
 .ARM.exidx.text._ZN4core3num6bignum5tests6Big8x310mul_digits17hc92e3128bf16df9bE
                0x0000000000140108        0x0 ./gen/../rust_opt/target/armv7a-none-eabi/release/libitron.a(core-d049573bc16596f9.core.5587a85061e7188a-cgu.0.rcgu.o)
                                          0x8 (size before relaxing)
 .ARM.exidx.text._ZN4core3num6bignum5tests6Big8x313div_rem_small17h3d76b4dc7e13bdf9E
                0x0000000000140108        0x0 ./gen/../rust_opt/target/armv7a-none-eabi/release/libitron.a(core-d049573bc16596f9.core.5587a85061e7188a-cgu.0.rcgu.o)
                                          0x8 (size before relaxing)
 .ARM.exidx.text._ZN4core3num6bignum5tests6Big8x37div_rem17hd07a45cafecfa95dE
                0x0000000000140108        0x0 ./gen/../rust_opt/target/armv7a-none-eabi/release/libitron.a(core-d049573bc16596f9.core.5587a85061e7188a-cgu.0.rcgu.o)
                                          0x8 (size before relaxing)
 .ARM.exidx.text._ZN73_$LT$core..num..bignum..tests..Big8x3$u20$as$u20$core..cmp..PartialEq$GT$2eq17h2a5bec94bf0063b9E
                0x0000000000140108        0x0 ./gen/../rust_opt/target/armv7a-none-eabi/release/libitron.a(core-d049573bc16596f9.core.5587a85061e7188a-cgu.0.rcgu.o)
                                          0x8 (size before relaxing)
 .ARM.exidx.text._ZN74_$LT$core..num..bignum..tests..Big8x3$u20$as$u20$core..cmp..PartialOrd$GT$11partial_cmp17h48d5846d2573a5e1E
                0x0000000000140108        0x0 ./gen/../rust_opt/target/armv7a-none-eabi/release/libitron.a(core-d049573bc16596f9.core.5587a85061e7188a-cgu.0.rcgu.o)
                                          0x8 (size before relaxing)
 .ARM.exidx.text._ZN67_$LT$core..num..bignum..tests..Big8x3$u20$as$u20$core..cmp..Ord$GT$3cmp17h8a7502baf7f3c9a5E
                0x0000000000140108        0x0 ./gen/../rust_opt/target/armv7a-none-eabi/release/libitron.a(core-d049573bc16596f9.core.5587a85061e7188a-cgu.0.rcgu.o)
                                          0x8 (size before relaxing)
 .ARM.exidx.text._ZN69_$LT$core..num..bignum..tests..Big8x3$u20$as$u20$core..fmt..Debug$GT$3fmt17hf9300f71b8428542E
                0x0000000000140108        0x0 ./gen/../rust_opt/target/armv7a-none-eabi/release/libitron.a(core-d049573bc16596f9.core.5587a85061e7188a-cgu.0.rcgu.o)
                                          0x8 (size before relaxing)
 .ARM.exidx.text._ZN4core3num7dec2flt60_$LT$impl$u20$core..str..traits..FromStr$u20$for$u20$f16$GT$8from_str17h0d34f16cb03d4084E
                0x0000000000140108        0x0 ./gen/../rust_opt/target/armv7a-none-eabi/release/libitron.a(core-d049573bc16596f9.core.5587a85061e7188a-cgu.0.rcgu.o)
                                          0x8 (size before relaxing)
 .ARM.exidx.text._ZN4core3num7dec2flt60_$LT$impl$u20$core..str..traits..FromStr$u20$for$u20$f32$GT$8from_str17haab41bb9ce3e1e69E
                0x0000000000140108        0x0 ./gen/../rust_opt/target/armv7a-none-eabi/release/libitron.a(core-d049573bc16596f9.core.5587a85061e7188a-cgu.0.rcgu.o)
                                          0x8 (size before relaxing)
 .ARM.exidx.text._ZN4core3num7dec2flt60_$LT$impl$u20$core..str..traits..FromStr$u20$for$u20$f64$GT$8from_str17h9934b968a57533b4E
                0x0000000000140108        0x0 ./gen/../rust_opt/target/armv7a-none-eabi/release/libitron.a(core-d049573bc16596f9.core.5587a85061e7188a-cgu.0.rcgu.o)
                                          0x8 (size before relaxing)
 .ARM.exidx.text._ZN73_$LT$core..num..nonzero..NonZero$LT$T$GT$$u20$as$u20$core..fmt..Debug$GT$3fmt17hfee7ea0a19225bacE
                0x0000000000140108        0x0 ./gen/../rust_opt/target/armv7a-none-eabi/release/libitron.a(core-d049573bc16596f9.core.5587a85061e7188a-cgu.0.rcgu.o)
                                          0x8 (size before relaxing)
 .ARM.exidx.text._ZN84_$LT$core..num..nonzero..NonZero$LT$u8$GT$$u20$as$u20$core..str..traits..FromStr$GT$8from_str17ha566d71859ee37bcE
                0x0000000000140108        0x0 ./gen/../rust_opt/target/armv7a-none-eabi/release/libitron.a(core-d049573bc16596f9.core.5587a85061e7188a-cgu.0.rcgu.o)
                                          0x8 (size before relaxing)
 .ARM.exidx.text._ZN85_$LT$core..num..nonzero..NonZero$LT$u16$GT$$u20$as$u20$core..str..traits..FromStr$GT$8from_str17h22aefbcb4cc26c68E
                0x0000000000140108        0x0 ./gen/../rust_opt/target/armv7a-none-eabi/release/libitron.a(core-d049573bc16596f9.core.5587a85061e7188a-cgu.0.rcgu.o)
                                          0x8 (size before relaxing)
 .ARM.exidx.text._ZN85_$LT$core..num..nonzero..NonZero$LT$u32$GT$$u20$as$u20$core..str..traits..FromStr$GT$8from_str17h957fe3dbd5a241bcE
                0x0000000000140108        0x0 ./gen/../rust_opt/target/armv7a-none-eabi/release/libitron.a(core-d049573bc16596f9.core.5587a85061e7188a-cgu.0.rcgu.o)
                                          0x8 (size before relaxing)
 .ARM.exidx.text._ZN85_$LT$core..num..nonzero..NonZero$LT$u64$GT$$u20$as$u20$core..str..traits..FromStr$GT$8from_str17hb05b038cb220d66cE
                0x0000000000140108        0x0 ./gen/../rust_opt/target/armv7a-none-eabi/release/libitron.a(core-d049573bc16596f9.core.5587a85061e7188a-cgu.0.rcgu.o)
                                          0x8 (size before relaxing)
 .ARM.exidx.text._ZN86_$LT$core..num..nonzero..NonZero$LT$u128$GT$$u20$as$u20$core..str..traits..FromStr$GT$8from_str17hce0b07860262ce09E
                0x0000000000140108        0x0 ./gen/../rust_opt/target/armv7a-none-eabi/release/libitron.a(core-d049573bc16596f9.core.5587a85061e7188a-cgu.0.rcgu.o)
                                          0x8 (size before relaxing)
 .ARM.exidx.text._ZN87_$LT$core..num..nonzero..NonZero$LT$usize$GT$$u20$as$u20$core..str..traits..FromStr$GT$8from_str17h1733288da9636848E
                0x0000000000140108        0x0 ./gen/../rust_opt/target/armv7a-none-eabi/release/libitron.a(core-d049573bc16596f9.core.5587a85061e7188a-cgu.0.rcgu.o)
                                          0x8 (size before relaxing)
 .ARM.exidx.text._ZN84_$LT$core..num..nonzero..NonZero$LT$i8$GT$$u20$as$u20$core..str..traits..FromStr$GT$8from_str17hebe21d8ddaff9330E
                0x0000000000140108        0x0 ./gen/../rust_opt/target/armv7a-none-eabi/release/libitron.a(core-d049573bc16596f9.core.5587a85061e7188a-cgu.0.rcgu.o)
                                          0x8 (size before relaxing)
 .ARM.exidx.text._ZN85_$LT$core..num..nonzero..NonZero$LT$i16$GT$$u20$as$u20$core..str..traits..FromStr$GT$8from_str17h5460cf01298f7943E
                0x0000000000140108        0x0 ./gen/../rust_opt/target/armv7a-none-eabi/release/libitron.a(core-d049573bc16596f9.core.5587a85061e7188a-cgu.0.rcgu.o)
                                          0x8 (size before relaxing)
 .ARM.exidx.text._ZN85_$LT$core..num..nonzero..NonZero$LT$i32$GT$$u20$as$u20$core..str..traits..FromStr$GT$8from_str17h82302f5d78c06a81E
                0x0000000000140108        0x0 ./gen/../rust_opt/target/armv7a-none-eabi/release/libitron.a(core-d049573bc16596f9.core.5587a85061e7188a-cgu.0.rcgu.o)
                                          0x8 (size before relaxing)
 .ARM.exidx.text._ZN85_$LT$core..num..nonzero..NonZero$LT$i64$GT$$u20$as$u20$core..str..traits..FromStr$GT$8from_str17hf63377f21a3fb6baE
                0x0000000000140108        0x0 ./gen/../rust_opt/target/armv7a-none-eabi/release/libitron.a(core-d049573bc16596f9.core.5587a85061e7188a-cgu.0.rcgu.o)
                                          0x8 (size before relaxing)
 .ARM.exidx.text._ZN86_$LT$core..num..nonzero..NonZero$LT$i128$GT$$u20$as$u20$core..str..traits..FromStr$GT$8from_str17h404bcfcc368805b5E
                0x0000000000140108        0x0 ./gen/../rust_opt/target/armv7a-none-eabi/release/libitron.a(core-d049573bc16596f9.core.5587a85061e7188a-cgu.0.rcgu.o)
                                          0x8 (size before relaxing)
 .ARM.exidx.text._ZN72_$LT$core..num..niche_types..Nanoseconds$u20$as$u20$core..fmt..Debug$GT$3fmt17h6df87c1b0e86c542E
                0x0000000000140108        0x0 ./gen/../rust_opt/target/armv7a-none-eabi/release/libitron.a(core-d049573bc16596f9.core.5587a85061e7188a-cgu.0.rcgu.o)
                                          0x8 (size before relaxing)
 .ARM.exidx.text._ZN75_$LT$core..num..niche_types..NonZeroU8Inner$u20$as$u20$core..fmt..Debug$GT$3fmt17h9934d86d94d3ba9dE
                0x0000000000140108        0x0 ./gen/../rust_opt/target/armv7a-none-eabi/release/libitron.a(core-d049573bc16596f9.core.5587a85061e7188a-cgu.0.rcgu.o)
                                          0x8 (size before relaxing)
 .ARM.exidx.text._ZN76_$LT$core..num..niche_types..NonZeroU16Inner$u20$as$u20$core..fmt..Debug$GT$3fmt17h1e0f277c7c9985fdE
                0x0000000000140108        0x0 ./gen/../rust_opt/target/armv7a-none-eabi/release/libitron.a(core-d049573bc16596f9.core.5587a85061e7188a-cgu.0.rcgu.o)
                                          0x8 (size before relaxing)
 .ARM.exidx.text._ZN76_$LT$core..num..niche_types..NonZeroU32Inner$u20$as$u20$core..fmt..Debug$GT$3fmt17h4208945a1918bf76E
                0x0000000000140108        0x0 ./gen/../rust_opt/target/armv7a-none-eabi/release/libitron.a(core-d049573bc16596f9.core.5587a85061e7188a-cgu.0.rcgu.o)
                                          0x8 (size before relaxing)
 .ARM.exidx.text._ZN76_$LT$core..num..niche_types..NonZeroU64Inner$u20$as$u20$core..fmt..Debug$GT$3fmt17hcec75d0956b73778E
                0x0000000000140108        0x0 ./gen/../rust_opt/target/armv7a-none-eabi/release/libitron.a(core-d049573bc16596f9.core.5587a85061e7188a-cgu.0.rcgu.o)
                                          0x8 (size before relaxing)
 .ARM.exidx.text._ZN77_$LT$core..num..niche_types..NonZeroU128Inner$u20$as$u20$core..fmt..Debug$GT$3fmt17h5bc8c49a87650843E
                0x0000000000140108        0x0 ./gen/../rust_opt/target/armv7a-none-eabi/release/libitron.a(core-d049573bc16596f9.core.5587a85061e7188a-cgu.0.rcgu.o)
                                          0x8 (size before relaxing)
 .ARM.exidx.text._ZN75_$LT$core..num..niche_types..NonZeroI8Inner$u20$as$u20$core..fmt..Debug$GT$3fmt17hc1ad68564dffd6e0E
                0x0000000000140108        0x0 ./gen/../rust_opt/target/armv7a-none-eabi/release/libitron.a(core-d049573bc16596f9.core.5587a85061e7188a-cgu.0.rcgu.o)
                                          0x8 (size before relaxing)
 .ARM.exidx.text._ZN76_$LT$core..num..niche_types..NonZeroI16Inner$u20$as$u20$core..fmt..Debug$GT$3fmt17h1bae456063d3b38aE
                0x0000000000140108        0x0 ./gen/../rust_opt/target/armv7a-none-eabi/release/libitron.a(core-d049573bc16596f9.core.5587a85061e7188a-cgu.0.rcgu.o)
                                          0x8 (size before relaxing)
 .ARM.exidx.text._ZN76_$LT$core..num..niche_types..NonZeroI32Inner$u20$as$u20$core..fmt..Debug$GT$3fmt17h22fbf48f72b85284E
                0x0000000000140108        0x0 ./gen/../rust_opt/target/armv7a-none-eabi/release/libitron.a(core-d049573bc16596f9.core.5587a85061e7188a-cgu.0.rcgu.o)
                                          0x8 (size before relaxing)
 .ARM.exidx.text._ZN76_$LT$core..num..niche_types..NonZeroI64Inner$u20$as$u20$core..fmt..Debug$GT$3fmt17h8bb2c468a465aac2E
                0x0000000000140108        0x0 ./gen/../rust_opt/target/armv7a-none-eabi/release/libitron.a(core-d049573bc16596f9.core.5587a85061e7188a-cgu.0.rcgu.o)
                                          0x8 (size before relaxing)
 .ARM.exidx.text._ZN77_$LT$core..num..niche_types..NonZeroI128Inner$u20$as$u20$core..fmt..Debug$GT$3fmt17h7658577fe72d6a93E
                0x0000000000140108        0x0 ./gen/../rust_opt/target/armv7a-none-eabi/release/libitron.a(core-d049573bc16596f9.core.5587a85061e7188a-cgu.0.rcgu.o)
                                          0x8 (size before relaxing)
 .ARM.exidx.text._ZN75_$LT$core..num..niche_types..UsizeNoHighBit$u20$as$u20$core..fmt..Debug$GT$3fmt17h77e5bca56126e0b7E
                0x0000000000140108        0x0 ./gen/../rust_opt/target/armv7a-none-eabi/release/libitron.a(core-d049573bc16596f9.core.5587a85061e7188a-cgu.0.rcgu.o)
                                          0x8 (size before relaxing)
 .ARM.exidx.text._ZN74_$LT$core..num..niche_types..U32NotAllOnes$u20$as$u20$core..fmt..Debug$GT$3fmt17hdae2b85bd7a76fa0E
                0x0000000000140108        0x0 ./gen/../rust_opt/target/armv7a-none-eabi/release/libitron.a(core-d049573bc16596f9.core.5587a85061e7188a-cgu.0.rcgu.o)
                                          0x8 (size before relaxing)
 .ARM.exidx.text._ZN74_$LT$core..num..niche_types..I32NotAllOnes$u20$as$u20$core..fmt..Debug$GT$3fmt17ha30c204f41712d0cE
                0x0000000000140108        0x0 ./gen/../rust_opt/target/armv7a-none-eabi/release/libitron.a(core-d049573bc16596f9.core.5587a85061e7188a-cgu.0.rcgu.o)
                                          0x8 (size before relaxing)
 .ARM.exidx.text._ZN74_$LT$core..num..niche_types..U64NotAllOnes$u20$as$u20$core..fmt..Debug$GT$3fmt17h9aae2314a6753889E
                0x0000000000140108        0x0 ./gen/../rust_opt/target/armv7a-none-eabi/release/libitron.a(core-d049573bc16596f9.core.5587a85061e7188a-cgu.0.rcgu.o)
                                          0x8 (size before relaxing)
 .ARM.exidx.text._ZN74_$LT$core..num..niche_types..I64NotAllOnes$u20$as$u20$core..fmt..Debug$GT$3fmt17hcd11c67aaecfa5cdE
                0x0000000000140108        0x0 ./gen/../rust_opt/target/armv7a-none-eabi/release/libitron.a(core-d049573bc16596f9.core.5587a85061e7188a-cgu.0.rcgu.o)
                                          0x8 (size before relaxing)
 .ARM.exidx.text.unlikely._ZN4core3num22from_ascii_radix_panic8do_panic7runtime17h20bf34c324abd015E
                0x0000000000140108        0x0 ./gen/../rust_opt/target/armv7a-none-eabi/release/libitron.a(core-d049573bc16596f9.core.5587a85061e7188a-cgu.0.rcgu.o)
                                          0x8 (size before relaxing)
 .ARM.exidx.text.unlikely._ZN4core10intrinsics3mir11PtrMetadata19panic_cold_explicit17h38f2b2d764b9fcc9E
                0x0000000000140108        0x0 ./gen/../rust_opt/target/armv7a-none-eabi/release/libitron.a(core-d049573bc16596f9.core.5587a85061e7188a-cgu.0.rcgu.o)
                                          0x8 (size before relaxing)
 .ARM.exidx.text._ZN85_$LT$core..marker..variance..PhantomCovariantLifetime$u20$as$u20$core..fmt..Debug$GT$3fmt17h092ab231f6840623E
                0x0000000000140108        0x0 ./gen/../rust_opt/target/armv7a-none-eabi/release/libitron.a(core-d049573bc16596f9.core.5587a85061e7188a-cgu.0.rcgu.o)
                                          0x8 (size before relaxing)
 .ARM.exidx.text._ZN89_$LT$core..marker..variance..PhantomContravariantLifetime$u20$as$u20$core..fmt..Debug$GT$3fmt17hc36f606a10431dddE
                0x0000000000140108        0x0 ./gen/../rust_opt/target/armv7a-none-eabi/release/libitron.a(core-d049573bc16596f9.core.5587a85061e7188a-cgu.0.rcgu.o)
                                          0x8 (size before relaxing)
 .ARM.exidx.text._ZN85_$LT$core..marker..variance..PhantomInvariantLifetime$u20$as$u20$core..fmt..Debug$GT$3fmt17h310726426d633410E
                0x0000000000140108        0x0 ./gen/../rust_opt/target/armv7a-none-eabi/release/libitron.a(core-d049573bc16596f9.core.5587a85061e7188a-cgu.0.rcgu.o)
                                          0x8 (size before relaxing)
 .ARM.exidx.text.unlikely._ZN4core4char7methods15encode_utf8_raw8do_panic7runtime17h8d77bbd109129b2bE
                0x0000000000140108        0x0 ./gen/../rust_opt/target/armv7a-none-eabi/release/libitron.a(core-d049573bc16596f9.core.5587a85061e7188a-cgu.0.rcgu.o)
                                          0x8 (size before relaxing)
 .ARM.exidx.text.unlikely._ZN4core4char7methods16encode_utf16_raw8do_panic7runtime17h780c16f034ec0cfdE
                0x0000000000140108        0x0 ./gen/../rust_opt/target/armv7a-none-eabi/release/libitron.a(core-d049573bc16596f9.core.5587a85061e7188a-cgu.0.rcgu.o)
                                          0x8 (size before relaxing)
 .ARM.exidx.text._ZN82_$LT$core..char..ToLowercase$u20$as$u20$core..iter..traits..iterator..Iterator$GT$4next17hb1b5d710b70686acE
                0x0000000000140108        0x0 ./gen/../rust_opt/target/armv7a-none-eabi/release/libitron.a(core-d049573bc16596f9.core.5587a85061e7188a-cgu.0.rcgu.o)
                                          0x8 (size before relaxing)
 .ARM.exidx.text._ZN82_$LT$core..char..ToLowercase$u20$as$u20$core..iter..traits..iterator..Iterator$GT$5count17h491b5e4cf6ec5bd0E
                0x0000000000140108        0x0 ./gen/../rust_opt/target/armv7a-none-eabi/release/libitron.a(core-d049573bc16596f9.core.5587a85061e7188a-cgu.0.rcgu.o)
                                          0x8 (size before relaxing)
 .ARM.exidx.text._ZN82_$LT$core..char..ToLowercase$u20$as$u20$core..iter..traits..iterator..Iterator$GT$4last17h2be1d7bd83ecbf83E
                0x0000000000140108        0x0 ./gen/../rust_opt/target/armv7a-none-eabi/release/libitron.a(core-d049573bc16596f9.core.5587a85061e7188a-cgu.0.rcgu.o)
                                          0x8 (size before relaxing)
 .ARM.exidx.text._ZN82_$LT$core..char..ToLowercase$u20$as$u20$core..iter..traits..iterator..Iterator$GT$10advance_by17h472a89f7f4a2644dE
                0x0000000000140108        0x0 ./gen/../rust_opt/target/armv7a-none-eabi/release/libitron.a(core-d049573bc16596f9.core.5587a85061e7188a-cgu.0.rcgu.o)
                                          0x8 (size before relaxing)
 .ARM.exidx.text._ZN82_$LT$core..char..ToLowercase$u20$as$u20$core..iter..traits..iterator..Iterator$GT$24__iterator_get_unchecked17h3837a4656c9589c7E
                0x0000000000140108        0x0 ./gen/../rust_opt/target/armv7a-none-eabi/release/libitron.a(core-d049573bc16596f9.core.5587a85061e7188a-cgu.0.rcgu.o)
                                          0x8 (size before relaxing)
 .ARM.exidx.text._ZN97_$LT$core..char..ToLowercase$u20$as$u20$core..iter..traits..double_ended..DoubleEndedIterator$GT$9next_back17h3de266f316e266adE
                0x0000000000140108        0x0 ./gen/../rust_opt/target/armv7a-none-eabi/release/libitron.a(core-d049573bc16596f9.core.5587a85061e7188a-cgu.0.rcgu.o)
                                          0x8 (size before relaxing)
 .ARM.exidx.text._ZN97_$LT$core..char..ToLowercase$u20$as$u20$core..iter..traits..double_ended..DoubleEndedIterator$GT$15advance_back_by17h5316befd367a240aE
                0x0000000000140108        0x0 ./gen/../rust_opt/target/armv7a-none-eabi/release/libitron.a(core-d049573bc16596f9.core.5587a85061e7188a-cgu.0.rcgu.o)
                                          0x8 (size before relaxing)
 .ARM.exidx.text._ZN62_$LT$core..char..ToLowercase$u20$as$u20$core..fmt..Display$GT$3fmt17hba63d2a00808b5c9E
                0x0000000000140108        0x0 ./gen/../rust_opt/target/armv7a-none-eabi/release/libitron.a(core-d049573bc16596f9.core.5587a85061e7188a-cgu.0.rcgu.o)
                                          0x8 (size before relaxing)
 .ARM.exidx.text._ZN77_$LT$core..net..ip_addr..Ipv4Addr$u20$as$u20$core..ops..bit..BitAndAssign$GT$13bitand_assign17h4b36b47131fa5cc4E
                0x0000000000140108        0x0 ./gen/../rust_opt/target/armv7a-none-eabi/release/libitron.a(core-d049573bc16596f9.core.5587a85061e7188a-cgu.0.rcgu.o)
                                          0x8 (size before relaxing)
 .ARM.exidx.text._ZN117_$LT$core..net..ip_addr..Ipv4Addr$u20$as$u20$core..ops..bit..BitAndAssign$LT$$RF$core..net..ip_addr..Ipv4Addr$GT$$GT$13bitand_assign17h0229d9be4c328c70E
                0x0000000000140108        0x0 ./gen/../rust_opt/target/armv7a-none-eabi/release/libitron.a(core-d049573bc16596f9.core.5587a85061e7188a-cgu.0.rcgu.o)
                                          0x8 (size before relaxing)
 .ARM.exidx.text._ZN76_$LT$core..net..ip_addr..Ipv4Addr$u20$as$u20$core..ops..bit..BitOrAssign$GT$12bitor_assign17h5dbcc27e1bc263c6E
                0x0000000000140108        0x0 ./gen/../rust_opt/target/armv7a-none-eabi/release/libitron.a(core-d049573bc16596f9.core.5587a85061e7188a-cgu.0.rcgu.o)
                                          0x8 (size before relaxing)
 .ARM.exidx.text._ZN116_$LT$core..net..ip_addr..Ipv4Addr$u20$as$u20$core..ops..bit..BitOrAssign$LT$$RF$core..net..ip_addr..Ipv4Addr$GT$$GT$12bitor_assign17h44764761fe65c596E
                0x0000000000140108        0x0 ./gen/../rust_opt/target/armv7a-none-eabi/release/libitron.a(core-d049573bc16596f9.core.5587a85061e7188a-cgu.0.rcgu.o)
                                          0x8 (size before relaxing)
 .ARM.exidx.text._ZN77_$LT$core..net..ip_addr..Ipv6Addr$u20$as$u20$core..ops..bit..BitAndAssign$GT$13bitand_assign17hdf1001071943e21cE
                0x0000000000140108        0x0 ./gen/../rust_opt/target/armv7a-none-eabi/release/libitron.a(core-d049573bc16596f9.core.5587a85061e7188a-cgu.0.rcgu.o)
                                          0x8 (size before relaxing)
 .ARM.exidx.text._ZN117_$LT$core..net..ip_addr..Ipv6Addr$u20$as$u20$core..ops..bit..BitAndAssign$LT$$RF$core..net..ip_addr..Ipv6Addr$GT$$GT$13bitand_assign17hecc377bff21d2c6fE
                0x0000000000140108        0x0 ./gen/../rust_opt/target/armv7a-none-eabi/release/libitron.a(core-d049573bc16596f9.core.5587a85061e7188a-cgu.0.rcgu.o)
                                          0x8 (size before relaxing)
 .ARM.exidx.text._ZN76_$LT$core..net..ip_addr..Ipv6Addr$u20$as$u20$core..ops..bit..BitOrAssign$GT$12bitor_assign17h8802b9526f9e1ec3E
                0x0000000000140108        0x0 ./gen/../rust_opt/target/armv7a-none-eabi/release/libitron.a(core-d049573bc16596f9.core.5587a85061e7188a-cgu.0.rcgu.o)
                                          0x8 (size before relaxing)
 .ARM.exidx.text._ZN116_$LT$core..net..ip_addr..Ipv6Addr$u20$as$u20$core..ops..bit..BitOrAssign$LT$$RF$core..net..ip_addr..Ipv6Addr$GT$$GT$12bitor_assign17h15c5b2f4ea6a9f87E
                0x0000000000140108        0x0 ./gen/../rust_opt/target/armv7a-none-eabi/release/libitron.a(core-d049573bc16596f9.core.5587a85061e7188a-cgu.0.rcgu.o)
                                          0x8 (size before relaxing)
 .ARM.exidx.text.unlikely._ZN4core9panicking11panic_const24panic_const_add_overflow17h518b917df10cd0eaE
                0x0000000000140108        0x0 ./gen/../rust_opt/target/armv7a-none-eabi/release/libitron.a(core-d049573bc16596f9.core.5587a85061e7188a-cgu.0.rcgu.o)
                                          0x8 (size before relaxing)
 .ARM.exidx.text.unlikely._ZN4core9panicking11panic_const24panic_const_sub_overflow17h60c8487e53d0d3c1E
                0x0000000000140108        0x0 ./gen/../rust_opt/target/armv7a-none-eabi/release/libitron.a(core-d049573bc16596f9.core.5587a85061e7188a-cgu.0.rcgu.o)
                                          0x8 (size before relaxing)
 .ARM.exidx.text.unlikely._ZN4core9panicking11panic_const24panic_const_mul_overflow17h1a47d5361b03bf6eE
                0x0000000000140108        0x0 ./gen/../rust_opt/target/armv7a-none-eabi/release/libitron.a(core-d049573bc16596f9.core.5587a85061e7188a-cgu.0.rcgu.o)
                                          0x8 (size before relaxing)
 .ARM.exidx.text.unlikely._ZN4core9panicking11panic_const24panic_const_div_overflow17heddbfb5e687a03bcE
                0x0000000000140108        0x0 ./gen/../rust_opt/target/armv7a-none-eabi/release/libitron.a(core-d049573bc16596f9.core.5587a85061e7188a-cgu.0.rcgu.o)
                                          0x8 (size before relaxing)
 .ARM.exidx.text.unlikely._ZN4core9panicking11panic_const24panic_const_rem_overflow17h3335d23af842c741E
                0x0000000000140108        0x0 ./gen/../rust_opt/target/armv7a-none-eabi/release/libitron.a(core-d049573bc16596f9.core.5587a85061e7188a-cgu.0.rcgu.o)
                                          0x8 (size before relaxing)
 .ARM.exidx.text.unlikely._ZN4core9panicking11panic_const24panic_const_neg_overflow17hd6798e66c62ddff6E
                0x0000000000140108        0x0 ./gen/../rust_opt/target/armv7a-none-eabi/release/libitron.a(core-d049573bc16596f9.core.5587a85061e7188a-cgu.0.rcgu.o)
                                          0x8 (size before relaxing)
 .ARM.exidx.text.unlikely._ZN4core9panicking11panic_const24panic_const_shr_overflow17hc596d1ddf3d71019E
                0x0000000000140108        0x0 ./gen/../rust_opt/target/armv7a-none-eabi/release/libitron.a(core-d049573bc16596f9.core.5587a85061e7188a-cgu.0.rcgu.o)
                                          0x8 (size before relaxing)
 .ARM.exidx.text.unlikely._ZN4core9panicking11panic_const24panic_const_shl_overflow17hab60c2de69792ef8E
                0x0000000000140108        0x0 ./gen/../rust_opt/target/armv7a-none-eabi/release/libitron.a(core-d049573bc16596f9.core.5587a85061e7188a-cgu.0.rcgu.o)
                                          0x8 (size before relaxing)
 .ARM.exidx.text.unlikely._ZN4core9panicking11panic_const23panic_const_div_by_zero17h841ebc415392a309E
                0x0000000000140108        0x0 ./gen/../rust_opt/target/armv7a-none-eabi/release/libitron.a(core-d049573bc16596f9.core.5587a85061e7188a-cgu.0.rcgu.o)
                                          0x8 (size before relaxing)
 .ARM.exidx.text.unlikely._ZN4core9panicking11panic_const23panic_const_rem_by_zero17h84c76eadc69bd9a6E
                0x0000000000140108        0x0 ./gen/../rust_opt/target/armv7a-none-eabi/release/libitron.a(core-d049573bc16596f9.core.5587a85061e7188a-cgu.0.rcgu.o)
                                          0x8 (size before relaxing)
 .ARM.exidx.text.unlikely._ZN4core9panicking11panic_const29panic_const_coroutine_resumed17hc1fec1f49fb82aacE
                0x0000000000140108        0x0 ./gen/../rust_opt/target/armv7a-none-eabi/release/libitron.a(core-d049573bc16596f9.core.5587a85061e7188a-cgu.0.rcgu.o)
                                          0x8 (size before relaxing)
 .ARM.exidx.text.unlikely._ZN4core9panicking11panic_const28panic_const_async_fn_resumed17h4c52fb4e1fc04b7eE
                0x0000000000140108        0x0 ./gen/../rust_opt/target/armv7a-none-eabi/release/libitron.a(core-d049573bc16596f9.core.5587a85061e7188a-cgu.0.rcgu.o)
                                          0x8 (size before relaxing)
 .ARM.exidx.text.unlikely._ZN4core9panicking11panic_const32panic_const_async_gen_fn_resumed17hf6dc0ef665815d93E
                0x0000000000140108        0x0 ./gen/../rust_opt/target/armv7a-none-eabi/release/libitron.a(core-d049573bc16596f9.core.5587a85061e7188a-cgu.0.rcgu.o)
                                          0x8 (size before relaxing)
 .ARM.exidx.text.unlikely._ZN4core9panicking11panic_const23panic_const_gen_fn_none17h9943346b0c293476E
                0x0000000000140108        0x0 ./gen/../rust_opt/target/armv7a-none-eabi/release/libitron.a(core-d049573bc16596f9.core.5587a85061e7188a-cgu.0.rcgu.o)
                                          0x8 (size before relaxing)
 .ARM.exidx.text.unlikely._ZN4core9panicking11panic_const35panic_const_coroutine_resumed_panic17ha931fedc2d097cbcE
                0x0000000000140108        0x0 ./gen/../rust_opt/target/armv7a-none-eabi/release/libitron.a(core-d049573bc16596f9.core.5587a85061e7188a-cgu.0.rcgu.o)
                                          0x8 (size before relaxing)
 .ARM.exidx.text.unlikely._ZN4core9panicking11panic_const34panic_const_async_fn_resumed_panic17he3287dd12fe7b10fE
                0x0000000000140108        0x0 ./gen/../rust_opt/target/armv7a-none-eabi/release/libitron.a(core-d049573bc16596f9.core.5587a85061e7188a-cgu.0.rcgu.o)
                                          0x8 (size before relaxing)
 .ARM.exidx.text.unlikely._ZN4core9panicking11panic_const38panic_const_async_gen_fn_resumed_panic17hd2dc1333c03262feE
                0x0000000000140108        0x0 ./gen/../rust_opt/target/armv7a-none-eabi/release/libitron.a(core-d049573bc16596f9.core.5587a85061e7188a-cgu.0.rcgu.o)
                                          0x8 (size before relaxing)
 .ARM.exidx.text.unlikely._ZN4core9panicking11panic_const29panic_const_gen_fn_none_panic17h5c1c229e3a40efecE
                0x0000000000140108        0x0 ./gen/../rust_opt/target/armv7a-none-eabi/release/libitron.a(core-d049573bc16596f9.core.5587a85061e7188a-cgu.0.rcgu.o)
                                          0x8 (size before relaxing)
 .ARM.exidx.text.unlikely._ZN4core9panicking11panic_const34panic_const_coroutine_resumed_drop17h80f9fb05c90896faE
                0x0000000000140108        0x0 ./gen/../rust_opt/target/armv7a-none-eabi/release/libitron.a(core-d049573bc16596f9.core.5587a85061e7188a-cgu.0.rcgu.o)
                                          0x8 (size before relaxing)
 .ARM.exidx.text.unlikely._ZN4core9panicking11panic_const33panic_const_async_fn_resumed_drop17h372a153677563730E
                0x0000000000140108        0x0 ./gen/../rust_opt/target/armv7a-none-eabi/release/libitron.a(core-d049573bc16596f9.core.5587a85061e7188a-cgu.0.rcgu.o)
                                          0x8 (size before relaxing)
 .ARM.exidx.text.unlikely._ZN4core9panicking11panic_const37panic_const_async_gen_fn_resumed_drop17hf44454f4c0322d5eE
                0x0000000000140108        0x0 ./gen/../rust_opt/target/armv7a-none-eabi/release/libitron.a(core-d049573bc16596f9.core.5587a85061e7188a-cgu.0.rcgu.o)
                                          0x8 (size before relaxing)
 .ARM.exidx.text.unlikely._ZN4core9panicking11panic_const28panic_const_gen_fn_none_drop17h79a2beef01222142E
                0x0000000000140108        0x0 ./gen/../rust_opt/target/armv7a-none-eabi/release/libitron.a(core-d049573bc16596f9.core.5587a85061e7188a-cgu.0.rcgu.o)
                                          0x8 (size before relaxing)
 .ARM.exidx.text._ZN46_$LT$i8$u20$as$u20$core..pat..RangePattern$GT$7sub_one17h9c88d58a08cd9976E
                0x0000000000140108        0x0 ./gen/../rust_opt/target/armv7a-none-eabi/release/libitron.a(core-d049573bc16596f9.core.5587a85061e7188a-cgu.0.rcgu.o)
                                          0x8 (size before relaxing)
 .ARM.exidx.text._ZN47_$LT$i16$u20$as$u20$core..pat..RangePattern$GT$7sub_one17h0bea40a7c0a1898dE
                0x0000000000140108        0x0 ./gen/../rust_opt/target/armv7a-none-eabi/release/libitron.a(core-d049573bc16596f9.core.5587a85061e7188a-cgu.0.rcgu.o)
                                          0x8 (size before relaxing)
 .ARM.exidx.text._ZN47_$LT$i32$u20$as$u20$core..pat..RangePattern$GT$7sub_one17hee0294d19fcfed5eE
                0x0000000000140108        0x0 ./gen/../rust_opt/target/armv7a-none-eabi/release/libitron.a(core-d049573bc16596f9.core.5587a85061e7188a-cgu.0.rcgu.o)
                                          0x8 (size before relaxing)
 .ARM.exidx.text._ZN47_$LT$i64$u20$as$u20$core..pat..RangePattern$GT$7sub_one17h7a71a5a054a38f79E
                0x0000000000140108        0x0 ./gen/../rust_opt/target/armv7a-none-eabi/release/libitron.a(core-d049573bc16596f9.core.5587a85061e7188a-cgu.0.rcgu.o)
                                          0x8 (size before relaxing)
 .ARM.exidx.text._ZN48_$LT$i128$u20$as$u20$core..pat..RangePattern$GT$7sub_one17hacd854531e93c0c5E
                0x0000000000140108        0x0 ./gen/../rust_opt/target/armv7a-none-eabi/release/libitron.a(core-d049573bc16596f9.core.5587a85061e7188a-cgu.0.rcgu.o)
                                          0x8 (size before relaxing)
 .ARM.exidx.text._ZN46_$LT$u8$u20$as$u20$core..pat..RangePattern$GT$7sub_one17h15e864f0213c9b05E
                0x0000000000140108        0x0 ./gen/../rust_opt/target/armv7a-none-eabi/release/libitron.a(core-d049573bc16596f9.core.5587a85061e7188a-cgu.0.rcgu.o)
                                          0x8 (size before relaxing)
 .ARM.exidx.text._ZN47_$LT$u16$u20$as$u20$core..pat..RangePattern$GT$7sub_one17h4335f9c9d4df86f6E
                0x0000000000140108        0x0 ./gen/../rust_opt/target/armv7a-none-eabi/release/libitron.a(core-d049573bc16596f9.core.5587a85061e7188a-cgu.0.rcgu.o)
                                          0x8 (size before relaxing)
 .ARM.exidx.text._ZN47_$LT$u32$u20$as$u20$core..pat..RangePattern$GT$7sub_one17h3378d20c1f54e79cE
                0x0000000000140108        0x0 ./gen/../rust_opt/target/armv7a-none-eabi/release/libitron.a(core-d049573bc16596f9.core.5587a85061e7188a-cgu.0.rcgu.o)
                                          0x8 (size before relaxing)
 .ARM.exidx.text._ZN47_$LT$u64$u20$as$u20$core..pat..RangePattern$GT$7sub_one17h6e6e0a2318d9e1f3E
                0x0000000000140108        0x0 ./gen/../rust_opt/target/armv7a-none-eabi/release/libitron.a(core-d049573bc16596f9.core.5587a85061e7188a-cgu.0.rcgu.o)
                                          0x8 (size before relaxing)
 .ARM.exidx.text._ZN48_$LT$u128$u20$as$u20$core..pat..RangePattern$GT$7sub_one17h49e0f9c674b47932E
                0x0000000000140108        0x0 ./gen/../rust_opt/target/armv7a-none-eabi/release/libitron.a(core-d049573bc16596f9.core.5587a85061e7188a-cgu.0.rcgu.o)
                                          0x8 (size before relaxing)
 .ARM.exidx.text._ZN65_$LT$core..sync..atomic..AtomicI8$u20$as$u20$core..fmt..Debug$GT$3fmt17h98530b86a99569a1E
                0x0000000000140108        0x0 ./gen/../rust_opt/target/armv7a-none-eabi/release/libitron.a(core-d049573bc16596f9.core.5587a85061e7188a-cgu.0.rcgu.o)
                                          0x8 (size before relaxing)
 .ARM.exidx.text._ZN65_$LT$core..sync..atomic..AtomicU8$u20$as$u20$core..fmt..Debug$GT$3fmt17h78ea702c9c6bc9f6E
                0x0000000000140108        0x0 ./gen/../rust_opt/target/armv7a-none-eabi/release/libitron.a(core-d049573bc16596f9.core.5587a85061e7188a-cgu.0.rcgu.o)
                                          0x8 (size before relaxing)
 .ARM.exidx.text._ZN66_$LT$core..sync..atomic..AtomicI16$u20$as$u20$core..fmt..Debug$GT$3fmt17h5390cba2b0e4e3dcE
                0x0000000000140108        0x0 ./gen/../rust_opt/target/armv7a-none-eabi/release/libitron.a(core-d049573bc16596f9.core.5587a85061e7188a-cgu.0.rcgu.o)
                                          0x8 (size before relaxing)
 .ARM.exidx.text._ZN66_$LT$core..sync..atomic..AtomicU16$u20$as$u20$core..fmt..Debug$GT$3fmt17h2705d1d8027c0f42E
                0x0000000000140108        0x0 ./gen/../rust_opt/target/armv7a-none-eabi/release/libitron.a(core-d049573bc16596f9.core.5587a85061e7188a-cgu.0.rcgu.o)
                                          0x8 (size before relaxing)
 .ARM.exidx.text._ZN66_$LT$core..sync..atomic..AtomicI32$u20$as$u20$core..fmt..Debug$GT$3fmt17h00f7ed8238e72b79E
                0x0000000000140108        0x0 ./gen/../rust_opt/target/armv7a-none-eabi/release/libitron.a(core-d049573bc16596f9.core.5587a85061e7188a-cgu.0.rcgu.o)
                                          0x8 (size before relaxing)
 .ARM.exidx.text._ZN66_$LT$core..sync..atomic..AtomicU32$u20$as$u20$core..fmt..Debug$GT$3fmt17hf9fe3a6abac6a243E
                0x0000000000140108        0x0 ./gen/../rust_opt/target/armv7a-none-eabi/release/libitron.a(core-d049573bc16596f9.core.5587a85061e7188a-cgu.0.rcgu.o)
                                          0x8 (size before relaxing)
 .ARM.exidx.text._ZN66_$LT$core..sync..atomic..AtomicI64$u20$as$u20$core..fmt..Debug$GT$3fmt17h553003e062ab2aeaE
                0x0000000000140108        0x0 ./gen/../rust_opt/target/armv7a-none-eabi/release/libitron.a(core-d049573bc16596f9.core.5587a85061e7188a-cgu.0.rcgu.o)
                                          0x8 (size before relaxing)
 .ARM.exidx.text._ZN66_$LT$core..sync..atomic..AtomicU64$u20$as$u20$core..fmt..Debug$GT$3fmt17h4837e1a6089e1848E
                0x0000000000140108        0x0 ./gen/../rust_opt/target/armv7a-none-eabi/release/libitron.a(core-d049573bc16596f9.core.5587a85061e7188a-cgu.0.rcgu.o)
                                          0x8 (size before relaxing)
 .ARM.exidx.text._ZN55_$LT$f32$u20$as$u20$core..fmt..float..GeneralFormat$GT$44already_rounded_value_should_use_exponential17hb22121c88fcaa0beE
                0x0000000000140108        0x0 ./gen/../rust_opt/target/armv7a-none-eabi/release/libitron.a(core-d049573bc16596f9.core.5587a85061e7188a-cgu.0.rcgu.o)
                                          0x8 (size before relaxing)
 .ARM.exidx.text._ZN55_$LT$f64$u20$as$u20$core..fmt..float..GeneralFormat$GT$44already_rounded_value_should_use_exponential17h8b724b9904cc9c26E
                0x0000000000140108        0x0 ./gen/../rust_opt/target/armv7a-none-eabi/release/libitron.a(core-d049573bc16596f9.core.5587a85061e7188a-cgu.0.rcgu.o)
                                          0x8 (size before relaxing)
 .ARM.exidx.text._ZN4core3fmt5float50_$LT$impl$u20$core..fmt..Debug$u20$for$u20$f32$GT$3fmt17h36f6f70bc5e41684E
                0x0000000000140108        0x0 ./gen/../rust_opt/target/armv7a-none-eabi/release/libitron.a(core-d049573bc16596f9.core.5587a85061e7188a-cgu.0.rcgu.o)
                                          0x8 (size before relaxing)
 .ARM.exidx.text._ZN4core3fmt5float52_$LT$impl$u20$core..fmt..Display$u20$for$u20$f32$GT$3fmt17h80810e25a018a288E
                0x0000000000140108        0x0 ./gen/../rust_opt/target/armv7a-none-eabi/release/libitron.a(core-d049573bc16596f9.core.5587a85061e7188a-cgu.0.rcgu.o)
                                          0x8 (size before relaxing)
 .ARM.exidx.text._ZN4core3fmt5float53_$LT$impl$u20$core..fmt..LowerExp$u20$for$u20$f32$GT$3fmt17h820dff1b1d643fd6E
                0x0000000000140108        0x0 ./gen/../rust_opt/target/armv7a-none-eabi/release/libitron.a(core-d049573bc16596f9.core.5587a85061e7188a-cgu.0.rcgu.o)
                                          0x8 (size before relaxing)
 .ARM.exidx.text._ZN4core3fmt5float53_$LT$impl$u20$core..fmt..UpperExp$u20$for$u20$f32$GT$3fmt17hdf25f1d7057efea1E
                0x0000000000140108        0x0 ./gen/../rust_opt/target/armv7a-none-eabi/release/libitron.a(core-d049573bc16596f9.core.5587a85061e7188a-cgu.0.rcgu.o)
                                          0x8 (size before relaxing)
 .ARM.exidx.text._ZN4core3fmt5float50_$LT$impl$u20$core..fmt..Debug$u20$for$u20$f64$GT$3fmt17h12b316315661d7a7E
                0x0000000000140108        0x0 ./gen/../rust_opt/target/armv7a-none-eabi/release/libitron.a(core-d049573bc16596f9.core.5587a85061e7188a-cgu.0.rcgu.o)
                                          0x8 (size before relaxing)
 .ARM.exidx.text._ZN4core3fmt5float52_$LT$impl$u20$core..fmt..Display$u20$for$u20$f64$GT$3fmt17h1658c390055e8683E
                0x0000000000140108        0x0 ./gen/../rust_opt/target/armv7a-none-eabi/release/libitron.a(core-d049573bc16596f9.core.5587a85061e7188a-cgu.0.rcgu.o)
                                          0x8 (size before relaxing)
 .ARM.exidx.text._ZN4core3fmt5float53_$LT$impl$u20$core..fmt..LowerExp$u20$for$u20$f64$GT$3fmt17hab161d28c266dbf1E
                0x0000000000140108        0x0 ./gen/../rust_opt/target/armv7a-none-eabi/release/libitron.a(core-d049573bc16596f9.core.5587a85061e7188a-cgu.0.rcgu.o)
                                          0x8 (size before relaxing)
 .ARM.exidx.text._ZN4core3fmt5float53_$LT$impl$u20$core..fmt..UpperExp$u20$for$u20$f64$GT$3fmt17hfdc423d0ad75608dE
                0x0000000000140108        0x0 ./gen/../rust_opt/target/armv7a-none-eabi/release/libitron.a(core-d049573bc16596f9.core.5587a85061e7188a-cgu.0.rcgu.o)
                                          0x8 (size before relaxing)
 .ARM.exidx.text._ZN4core3fmt5float50_$LT$impl$u20$core..fmt..Debug$u20$for$u20$f16$GT$3fmt17h0275f4e20d5ac985E
                0x0000000000140108        0x0 ./gen/../rust_opt/target/armv7a-none-eabi/release/libitron.a(core-d049573bc16596f9.core.5587a85061e7188a-cgu.0.rcgu.o)
                                          0x8 (size before relaxing)
 .ARM.exidx.text._ZN4core3fmt5float52_$LT$impl$u20$core..fmt..Display$u20$for$u20$f16$GT$3fmt17h44d06f4ee009c844E
                0x0000000000140108        0x0 ./gen/../rust_opt/target/armv7a-none-eabi/release/libitron.a(core-d049573bc16596f9.core.5587a85061e7188a-cgu.0.rcgu.o)
                                          0x8 (size before relaxing)
 .ARM.exidx.text._ZN4core3fmt5float53_$LT$impl$u20$core..fmt..LowerExp$u20$for$u20$f16$GT$3fmt17h5cc0551d1f587a8bE
                0x0000000000140108        0x0 ./gen/../rust_opt/target/armv7a-none-eabi/release/libitron.a(core-d049573bc16596f9.core.5587a85061e7188a-cgu.0.rcgu.o)
                                          0x8 (size before relaxing)
 .ARM.exidx.text._ZN4core3fmt5float53_$LT$impl$u20$core..fmt..UpperExp$u20$for$u20$f16$GT$3fmt17h2a0ba872876a6cb1E
                0x0000000000140108        0x0 ./gen/../rust_opt/target/armv7a-none-eabi/release/libitron.a(core-d049573bc16596f9.core.5587a85061e7188a-cgu.0.rcgu.o)
                                          0x8 (size before relaxing)
 .ARM.exidx.text._ZN71_$LT$core..fmt..num..Binary$u20$as$u20$core..fmt..num..GenericRadix$GT$5digit17he4b6c679024b6753E
                0x0000000000140108        0x0 ./gen/../rust_opt/target/armv7a-none-eabi/release/libitron.a(core-d049573bc16596f9.core.5587a85061e7188a-cgu.0.rcgu.o)
                                          0x8 (size before relaxing)
 .ARM.exidx.text._ZN70_$LT$core..fmt..num..Octal$u20$as$u20$core..fmt..num..GenericRadix$GT$5digit17h6d524b5314e7839aE
                0x0000000000140108        0x0 ./gen/../rust_opt/target/armv7a-none-eabi/release/libitron.a(core-d049573bc16596f9.core.5587a85061e7188a-cgu.0.rcgu.o)
                                          0x8 (size before relaxing)
 .ARM.exidx.text._ZN73_$LT$core..fmt..num..LowerHex$u20$as$u20$core..fmt..num..GenericRadix$GT$5digit17h67093c0abfd72a34E
                0x0000000000140108        0x0 ./gen/../rust_opt/target/armv7a-none-eabi/release/libitron.a(core-d049573bc16596f9.core.5587a85061e7188a-cgu.0.rcgu.o)
                                          0x8 (size before relaxing)
 .ARM.exidx.text._ZN73_$LT$core..fmt..num..UpperHex$u20$as$u20$core..fmt..num..GenericRadix$GT$5digit17h2ebf7f3cf75c8942E
                0x0000000000140108        0x0 ./gen/../rust_opt/target/armv7a-none-eabi/release/libitron.a(core-d049573bc16596f9.core.5587a85061e7188a-cgu.0.rcgu.o)
                                          0x8 (size before relaxing)
 .ARM.exidx.text._ZN4core3fmt3num50_$LT$impl$u20$core..fmt..Binary$u20$for$u20$i8$GT$3fmt17hfb8e99514944e386E
                0x0000000000140108        0x0 ./gen/../rust_opt/target/armv7a-none-eabi/release/libitron.a(core-d049573bc16596f9.core.5587a85061e7188a-cgu.0.rcgu.o)
                                          0x8 (size before relaxing)
 .ARM.exidx.text._ZN4core3fmt3num49_$LT$impl$u20$core..fmt..Octal$u20$for$u20$i8$GT$3fmt17h16740b96b647866aE
                0x0000000000140108        0x0 ./gen/../rust_opt/target/armv7a-none-eabi/release/libitron.a(core-d049573bc16596f9.core.5587a85061e7188a-cgu.0.rcgu.o)
                                          0x8 (size before relaxing)
 .ARM.exidx.text._ZN4core3fmt3num52_$LT$impl$u20$core..fmt..LowerHex$u20$for$u20$i8$GT$3fmt17ha38e82f4b36477dfE
                0x0000000000140108        0x0 ./gen/../rust_opt/target/armv7a-none-eabi/release/libitron.a(core-d049573bc16596f9.core.5587a85061e7188a-cgu.0.rcgu.o)
                                          0x8 (size before relaxing)
 .ARM.exidx.text._ZN4core3fmt3num52_$LT$impl$u20$core..fmt..UpperHex$u20$for$u20$i8$GT$3fmt17hdbc78e6d81b9fc73E
                0x0000000000140108        0x0 ./gen/../rust_opt/target/armv7a-none-eabi/release/libitron.a(core-d049573bc16596f9.core.5587a85061e7188a-cgu.0.rcgu.o)
                                          0x8 (size before relaxing)
 .ARM.exidx.text._ZN4core3fmt3num51_$LT$impl$u20$core..fmt..Binary$u20$for$u20$i16$GT$3fmt17hd9dba8c56e1924baE
                0x0000000000140108        0x0 ./gen/../rust_opt/target/armv7a-none-eabi/release/libitron.a(core-d049573bc16596f9.core.5587a85061e7188a-cgu.0.rcgu.o)
                                          0x8 (size before relaxing)
 .ARM.exidx.text._ZN4core3fmt3num50_$LT$impl$u20$core..fmt..Octal$u20$for$u20$i16$GT$3fmt17h673945bd6fb3acfeE
                0x0000000000140108        0x0 ./gen/../rust_opt/target/armv7a-none-eabi/release/libitron.a(core-d049573bc16596f9.core.5587a85061e7188a-cgu.0.rcgu.o)
                                          0x8 (size before relaxing)
 .ARM.exidx.text._ZN4core3fmt3num53_$LT$impl$u20$core..fmt..LowerHex$u20$for$u20$i16$GT$3fmt17hd32e4fcbce79670aE
                0x0000000000140108        0x0 ./gen/../rust_opt/target/armv7a-none-eabi/release/libitron.a(core-d049573bc16596f9.core.5587a85061e7188a-cgu.0.rcgu.o)
                                          0x8 (size before relaxing)
 .ARM.exidx.text._ZN4core3fmt3num53_$LT$impl$u20$core..fmt..UpperHex$u20$for$u20$i16$GT$3fmt17hc507e3445ac18ebeE
                0x0000000000140108        0x0 ./gen/../rust_opt/target/armv7a-none-eabi/release/libitron.a(core-d049573bc16596f9.core.5587a85061e7188a-cgu.0.rcgu.o)
                                          0x8 (size before relaxing)
 .ARM.exidx.text._ZN4core3fmt3num51_$LT$impl$u20$core..fmt..Binary$u20$for$u20$i32$GT$3fmt17hd6aa21fb91002751E
                0x0000000000140108        0x0 ./gen/../rust_opt/target/armv7a-none-eabi/release/libitron.a(core-d049573bc16596f9.core.5587a85061e7188a-cgu.0.rcgu.o)
                                          0x8 (size before relaxing)
 .ARM.exidx.text._ZN4core3fmt3num50_$LT$impl$u20$core..fmt..Octal$u20$for$u20$i32$GT$3fmt17hdfdd079f8dc60dc7E
                0x0000000000140108        0x0 ./gen/../rust_opt/target/armv7a-none-eabi/release/libitron.a(core-d049573bc16596f9.core.5587a85061e7188a-cgu.0.rcgu.o)
                                          0x8 (size before relaxing)
 .ARM.exidx.text._ZN4core3fmt3num53_$LT$impl$u20$core..fmt..LowerHex$u20$for$u20$i32$GT$3fmt17h1bfe37b07cf28800E
                0x0000000000140108        0x0 ./gen/../rust_opt/target/armv7a-none-eabi/release/libitron.a(core-d049573bc16596f9.core.5587a85061e7188a-cgu.0.rcgu.o)
                                          0x8 (size before relaxing)
 .ARM.exidx.text._ZN4core3fmt3num53_$LT$impl$u20$core..fmt..UpperHex$u20$for$u20$i32$GT$3fmt17hf4441f29103186f0E
                0x0000000000140108        0x0 ./gen/../rust_opt/target/armv7a-none-eabi/release/libitron.a(core-d049573bc16596f9.core.5587a85061e7188a-cgu.0.rcgu.o)
                                          0x8 (size before relaxing)
 .ARM.exidx.text._ZN4core3fmt3num51_$LT$impl$u20$core..fmt..Binary$u20$for$u20$i64$GT$3fmt17h2344af75f6c15b7fE
                0x0000000000140108        0x0 ./gen/../rust_opt/target/armv7a-none-eabi/release/libitron.a(core-d049573bc16596f9.core.5587a85061e7188a-cgu.0.rcgu.o)
                                          0x8 (size before relaxing)
 .ARM.exidx.text._ZN4core3fmt3num50_$LT$impl$u20$core..fmt..Octal$u20$for$u20$i64$GT$3fmt17hc6f5294ea5289e43E
                0x0000000000140108        0x0 ./gen/../rust_opt/target/armv7a-none-eabi/release/libitron.a(core-d049573bc16596f9.core.5587a85061e7188a-cgu.0.rcgu.o)
                                          0x8 (size before relaxing)
 .ARM.exidx.text._ZN4core3fmt3num53_$LT$impl$u20$core..fmt..LowerHex$u20$for$u20$i64$GT$3fmt17hac7e501d59390ecfE
                0x0000000000140108        0x0 ./gen/../rust_opt/target/armv7a-none-eabi/release/libitron.a(core-d049573bc16596f9.core.5587a85061e7188a-cgu.0.rcgu.o)
                                          0x8 (size before relaxing)
 .ARM.exidx.text._ZN4core3fmt3num53_$LT$impl$u20$core..fmt..UpperHex$u20$for$u20$i64$GT$3fmt17h51257ca6c0f8239cE
                0x0000000000140108        0x0 ./gen/../rust_opt/target/armv7a-none-eabi/release/libitron.a(core-d049573bc16596f9.core.5587a85061e7188a-cgu.0.rcgu.o)
                                          0x8 (size before relaxing)
 .ARM.exidx.text._ZN4core3fmt3num52_$LT$impl$u20$core..fmt..Binary$u20$for$u20$i128$GT$3fmt17h7be091d3317e0d6cE
                0x0000000000140108        0x0 ./gen/../rust_opt/target/armv7a-none-eabi/release/libitron.a(core-d049573bc16596f9.core.5587a85061e7188a-cgu.0.rcgu.o)
                                          0x8 (size before relaxing)
 .ARM.exidx.text._ZN4core3fmt3num51_$LT$impl$u20$core..fmt..Octal$u20$for$u20$i128$GT$3fmt17h5fb2ef3ead5b0ea5E
                0x0000000000140108        0x0 ./gen/../rust_opt/target/armv7a-none-eabi/release/libitron.a(core-d049573bc16596f9.core.5587a85061e7188a-cgu.0.rcgu.o)
                                          0x8 (size before relaxing)
 .ARM.exidx.text._ZN4core3fmt3num54_$LT$impl$u20$core..fmt..LowerHex$u20$for$u20$i128$GT$3fmt17h4f123a38d1270953E
                0x0000000000140108        0x0 ./gen/../rust_opt/target/armv7a-none-eabi/release/libitron.a(core-d049573bc16596f9.core.5587a85061e7188a-cgu.0.rcgu.o)
                                          0x8 (size before relaxing)
 .ARM.exidx.text._ZN4core3fmt3num54_$LT$impl$u20$core..fmt..UpperHex$u20$for$u20$i128$GT$3fmt17ha49e3851795cfdefE
                0x0000000000140108        0x0 ./gen/../rust_opt/target/armv7a-none-eabi/release/libitron.a(core-d049573bc16596f9.core.5587a85061e7188a-cgu.0.rcgu.o)
                                          0x8 (size before relaxing)
 .ARM.exidx.text._ZN4core3fmt3num49_$LT$impl$u20$core..fmt..Debug$u20$for$u20$i8$GT$3fmt17h34acdd6c4c2b4cccE
                0x0000000000140108        0x0 ./gen/../rust_opt/target/armv7a-none-eabi/release/libitron.a(core-d049573bc16596f9.core.5587a85061e7188a-cgu.0.rcgu.o)
                                          0x8 (size before relaxing)
 .ARM.exidx.text._ZN4core3fmt3num49_$LT$impl$u20$core..fmt..Debug$u20$for$u20$u8$GT$3fmt17h8d8c411144315c72E
                0x0000000000140108        0x0 ./gen/../rust_opt/target/armv7a-none-eabi/release/libitron.a(core-d049573bc16596f9.core.5587a85061e7188a-cgu.0.rcgu.o)
                                          0x8 (size before relaxing)
 .ARM.exidx.text._ZN4core3fmt3num50_$LT$impl$u20$core..fmt..Debug$u20$for$u20$u32$GT$3fmt17h71bef540c929d311E
                0x0000000000140108        0x0 ./gen/../rust_opt/target/armv7a-none-eabi/release/libitron.a(core-d049573bc16596f9.core.5587a85061e7188a-cgu.0.rcgu.o)
                                          0x8 (size before relaxing)
 .ARM.exidx.text._ZN4core3fmt3num3imp51_$LT$impl$u20$core..fmt..Display$u20$for$u20$u8$GT$3fmt17hbcfcd188bf01c23fE
                0x0000000000140108        0x0 ./gen/../rust_opt/target/armv7a-none-eabi/release/libitron.a(core-d049573bc16596f9.core.5587a85061e7188a-cgu.0.rcgu.o)
                                          0x8 (size before relaxing)
 .ARM.exidx.text._ZN4core3fmt3num3imp51_$LT$impl$u20$core..fmt..Display$u20$for$u20$i8$GT$3fmt17hff22c034098846a1E
                0x0000000000140108        0x0 ./gen/../rust_opt/target/armv7a-none-eabi/release/libitron.a(core-d049573bc16596f9.core.5587a85061e7188a-cgu.0.rcgu.o)
                                          0x8 (size before relaxing)
 .ARM.exidx.text._ZN4core3fmt3num3imp20_$LT$impl$u20$u8$GT$4_fmt17hb5a7663e8a0544e3E
                0x0000000000140108        0x0 ./gen/../rust_opt/target/armv7a-none-eabi/release/libitron.a(core-d049573bc16596f9.core.5587a85061e7188a-cgu.0.rcgu.o)
                                          0x8 (size before relaxing)
 .ARM.exidx.text._ZN4core3fmt3num3imp52_$LT$impl$u20$core..fmt..Display$u20$for$u20$u16$GT$3fmt17hb807d5b07197dd3cE
                0x0000000000140108        0x0 ./gen/../rust_opt/target/armv7a-none-eabi/release/libitron.a(core-d049573bc16596f9.core.5587a85061e7188a-cgu.0.rcgu.o)
                                          0x8 (size before relaxing)
 .ARM.exidx.text._ZN4core3fmt3num3imp52_$LT$impl$u20$core..fmt..Display$u20$for$u20$i16$GT$3fmt17hd6d0d2db5935d675E
                0x0000000000140108        0x0 ./gen/../rust_opt/target/armv7a-none-eabi/release/libitron.a(core-d049573bc16596f9.core.5587a85061e7188a-cgu.0.rcgu.o)
                                          0x8 (size before relaxing)
 .ARM.exidx.text._ZN4core3fmt3num3imp21_$LT$impl$u20$u16$GT$4_fmt17h2eab8ac218d2ab0cE
                0x0000000000140108        0x0 ./gen/../rust_opt/target/armv7a-none-eabi/release/libitron.a(core-d049573bc16596f9.core.5587a85061e7188a-cgu.0.rcgu.o)
                                          0x8 (size before relaxing)
 .ARM.exidx.text._ZN4core3fmt3num3imp52_$LT$impl$u20$core..fmt..Display$u20$for$u20$u32$GT$3fmt17hfed0ce75b320fdfeE
                0x0000000000140108        0x0 ./gen/../rust_opt/target/armv7a-none-eabi/release/libitron.a(core-d049573bc16596f9.core.5587a85061e7188a-cgu.0.rcgu.o)
                                          0x8 (size before relaxing)
 .ARM.exidx.text._ZN4core3fmt3num3imp52_$LT$impl$u20$core..fmt..Display$u20$for$u20$i32$GT$3fmt17h6694708af44e6410E
                0x0000000000140108        0x0 ./gen/../rust_opt/target/armv7a-none-eabi/release/libitron.a(core-d049573bc16596f9.core.5587a85061e7188a-cgu.0.rcgu.o)
                                          0x8 (size before relaxing)
 .ARM.exidx.text._ZN4core3fmt3num3imp21_$LT$impl$u20$u32$GT$4_fmt17he3f4180fb8f739b6E
                0x0000000000140108        0x0 ./gen/../rust_opt/target/armv7a-none-eabi/release/libitron.a(core-d049573bc16596f9.core.5587a85061e7188a-cgu.0.rcgu.o)
                                          0x8 (size before relaxing)
 .ARM.exidx.text._ZN4core3fmt3num3imp52_$LT$impl$u20$core..fmt..Display$u20$for$u20$u64$GT$3fmt17hca688f18ea3812f0E
                0x0000000000140108        0x0 ./gen/../rust_opt/target/armv7a-none-eabi/release/libitron.a(core-d049573bc16596f9.core.5587a85061e7188a-cgu.0.rcgu.o)
                                          0x8 (size before relaxing)
 .ARM.exidx.text._ZN4core3fmt3num3imp52_$LT$impl$u20$core..fmt..Display$u20$for$u20$i64$GT$3fmt17h746d5f02f990caf3E
                0x0000000000140108        0x0 ./gen/../rust_opt/target/armv7a-none-eabi/release/libitron.a(core-d049573bc16596f9.core.5587a85061e7188a-cgu.0.rcgu.o)
                                          0x8 (size before relaxing)
 .ARM.exidx.text._ZN4core3fmt3num3imp21_$LT$impl$u20$u64$GT$4_fmt17h5cad236623dacc7fE
                0x0000000000140108        0x0 ./gen/../rust_opt/target/armv7a-none-eabi/release/libitron.a(core-d049573bc16596f9.core.5587a85061e7188a-cgu.0.rcgu.o)
                                          0x8 (size before relaxing)
 .ARM.exidx.text._ZN4core3fmt3num3imp7exp_u3217he01470f61c0319e7E
                0x0000000000140108        0x0 ./gen/../rust_opt/target/armv7a-none-eabi/release/libitron.a(core-d049573bc16596f9.core.5587a85061e7188a-cgu.0.rcgu.o)
                                          0x8 (size before relaxing)
 .ARM.exidx.text._ZN4core3fmt3num3imp52_$LT$impl$u20$core..fmt..LowerExp$u20$for$u20$i8$GT$3fmt17hc0edf995b11d88a4E
                0x0000000000140108        0x0 ./gen/../rust_opt/target/armv7a-none-eabi/release/libitron.a(core-d049573bc16596f9.core.5587a85061e7188a-cgu.0.rcgu.o)
                                          0x8 (size before relaxing)
 .ARM.exidx.text._ZN4core3fmt3num3imp52_$LT$impl$u20$core..fmt..LowerExp$u20$for$u20$u8$GT$3fmt17h9f71b4e1975c97b3E
                0x0000000000140108        0x0 ./gen/../rust_opt/target/armv7a-none-eabi/release/libitron.a(core-d049573bc16596f9.core.5587a85061e7188a-cgu.0.rcgu.o)
                                          0x8 (size before relaxing)
 .ARM.exidx.text._ZN4core3fmt3num3imp53_$LT$impl$u20$core..fmt..LowerExp$u20$for$u20$i16$GT$3fmt17h2ec4792f26758582E
                0x0000000000140108        0x0 ./gen/../rust_opt/target/armv7a-none-eabi/release/libitron.a(core-d049573bc16596f9.core.5587a85061e7188a-cgu.0.rcgu.o)
                                          0x8 (size before relaxing)
 .ARM.exidx.text._ZN4core3fmt3num3imp53_$LT$impl$u20$core..fmt..LowerExp$u20$for$u20$u16$GT$3fmt17he1630ced7897f954E
                0x0000000000140108        0x0 ./gen/../rust_opt/target/armv7a-none-eabi/release/libitron.a(core-d049573bc16596f9.core.5587a85061e7188a-cgu.0.rcgu.o)
                                          0x8 (size before relaxing)
 .ARM.exidx.text._ZN4core3fmt3num3imp53_$LT$impl$u20$core..fmt..LowerExp$u20$for$u20$i32$GT$3fmt17hc830ff5284d762bdE
                0x0000000000140108        0x0 ./gen/../rust_opt/target/armv7a-none-eabi/release/libitron.a(core-d049573bc16596f9.core.5587a85061e7188a-cgu.0.rcgu.o)
                                          0x8 (size before relaxing)
 .ARM.exidx.text._ZN4core3fmt3num3imp53_$LT$impl$u20$core..fmt..LowerExp$u20$for$u20$u32$GT$3fmt17he84cd695e6f75fd8E
                0x0000000000140108        0x0 ./gen/../rust_opt/target/armv7a-none-eabi/release/libitron.a(core-d049573bc16596f9.core.5587a85061e7188a-cgu.0.rcgu.o)
                                          0x8 (size before relaxing)
 .ARM.exidx.text._ZN4core3fmt3num3imp52_$LT$impl$u20$core..fmt..UpperExp$u20$for$u20$i8$GT$3fmt17h3cc98f3a87f4ea66E
                0x0000000000140108        0x0 ./gen/../rust_opt/target/armv7a-none-eabi/release/libitron.a(core-d049573bc16596f9.core.5587a85061e7188a-cgu.0.rcgu.o)
                                          0x8 (size before relaxing)
 .ARM.exidx.text._ZN4core3fmt3num3imp52_$LT$impl$u20$core..fmt..UpperExp$u20$for$u20$u8$GT$3fmt17h04e779386a1b925eE
                0x0000000000140108        0x0 ./gen/../rust_opt/target/armv7a-none-eabi/release/libitron.a(core-d049573bc16596f9.core.5587a85061e7188a-cgu.0.rcgu.o)
                                          0x8 (size before relaxing)
 .ARM.exidx.text._ZN4core3fmt3num3imp53_$LT$impl$u20$core..fmt..UpperExp$u20$for$u20$i16$GT$3fmt17ha0dd815a12b4d383E
                0x0000000000140108        0x0 ./gen/../rust_opt/target/armv7a-none-eabi/release/libitron.a(core-d049573bc16596f9.core.5587a85061e7188a-cgu.0.rcgu.o)
                                          0x8 (size before relaxing)
 .ARM.exidx.text._ZN4core3fmt3num3imp53_$LT$impl$u20$core..fmt..UpperExp$u20$for$u20$u16$GT$3fmt17h07d48ce0e1e749dcE
                0x0000000000140108        0x0 ./gen/../rust_opt/target/armv7a-none-eabi/release/libitron.a(core-d049573bc16596f9.core.5587a85061e7188a-cgu.0.rcgu.o)
                                          0x8 (size before relaxing)
 .ARM.exidx.text._ZN4core3fmt3num3imp53_$LT$impl$u20$core..fmt..UpperExp$u20$for$u20$i32$GT$3fmt17hf0350addfa1667d3E
                0x0000000000140108        0x0 ./gen/../rust_opt/target/armv7a-none-eabi/release/libitron.a(core-d049573bc16596f9.core.5587a85061e7188a-cgu.0.rcgu.o)
                                          0x8 (size before relaxing)
 .ARM.exidx.text._ZN4core3fmt3num3imp53_$LT$impl$u20$core..fmt..UpperExp$u20$for$u20$u32$GT$3fmt17he78d3191f07bcd68E
                0x0000000000140108        0x0 ./gen/../rust_opt/target/armv7a-none-eabi/release/libitron.a(core-d049573bc16596f9.core.5587a85061e7188a-cgu.0.rcgu.o)
                                          0x8 (size before relaxing)
 .ARM.exidx.text._ZN4core3fmt3num3imp7exp_u6417h10bcc1a2e249db0dE
                0x0000000000140108        0x0 ./gen/../rust_opt/target/armv7a-none-eabi/release/libitron.a(core-d049573bc16596f9.core.5587a85061e7188a-cgu.0.rcgu.o)
                                          0x8 (size before relaxing)
 .ARM.exidx.text._ZN4core3fmt3num3imp53_$LT$impl$u20$core..fmt..LowerExp$u20$for$u20$i64$GT$3fmt17hcf4752f526debdaeE
                0x0000000000140108        0x0 ./gen/../rust_opt/target/armv7a-none-eabi/release/libitron.a(core-d049573bc16596f9.core.5587a85061e7188a-cgu.0.rcgu.o)
                                          0x8 (size before relaxing)
 .ARM.exidx.text._ZN4core3fmt3num3imp53_$LT$impl$u20$core..fmt..LowerExp$u20$for$u20$u64$GT$3fmt17h1137bee068b4f16aE
                0x0000000000140108        0x0 ./gen/../rust_opt/target/armv7a-none-eabi/release/libitron.a(core-d049573bc16596f9.core.5587a85061e7188a-cgu.0.rcgu.o)
                                          0x8 (size before relaxing)
 .ARM.exidx.text._ZN4core3fmt3num3imp53_$LT$impl$u20$core..fmt..UpperExp$u20$for$u20$i64$GT$3fmt17hb868ad8f77e533adE
                0x0000000000140108        0x0 ./gen/../rust_opt/target/armv7a-none-eabi/release/libitron.a(core-d049573bc16596f9.core.5587a85061e7188a-cgu.0.rcgu.o)
                                          0x8 (size before relaxing)
 .ARM.exidx.text._ZN4core3fmt3num3imp53_$LT$impl$u20$core..fmt..UpperExp$u20$for$u20$u64$GT$3fmt17h63c965249d38ffaaE
                0x0000000000140108        0x0 ./gen/../rust_opt/target/armv7a-none-eabi/release/libitron.a(core-d049573bc16596f9.core.5587a85061e7188a-cgu.0.rcgu.o)
                                          0x8 (size before relaxing)
 .ARM.exidx.text._ZN4core3fmt3num8exp_u12817hebe915adc93a3f65E
                0x0000000000140108        0x0 ./gen/../rust_opt/target/armv7a-none-eabi/release/libitron.a(core-d049573bc16596f9.core.5587a85061e7188a-cgu.0.rcgu.o)
                                          0x8 (size before relaxing)
 .ARM.exidx.text._ZN4core3fmt3num54_$LT$impl$u20$core..fmt..LowerExp$u20$for$u20$i128$GT$3fmt17h5da6959838468447E
                0x0000000000140108        0x0 ./gen/../rust_opt/target/armv7a-none-eabi/release/libitron.a(core-d049573bc16596f9.core.5587a85061e7188a-cgu.0.rcgu.o)
                                          0x8 (size before relaxing)
 .ARM.exidx.text._ZN4core3fmt3num54_$LT$impl$u20$core..fmt..LowerExp$u20$for$u20$u128$GT$3fmt17h376c18320fa0ab27E
                0x0000000000140108        0x0 ./gen/../rust_opt/target/armv7a-none-eabi/release/libitron.a(core-d049573bc16596f9.core.5587a85061e7188a-cgu.0.rcgu.o)
                                          0x8 (size before relaxing)
 .ARM.exidx.text._ZN4core3fmt3num54_$LT$impl$u20$core..fmt..UpperExp$u20$for$u20$i128$GT$3fmt17h4fa0aa44e9ac138bE
                0x0000000000140108        0x0 ./gen/../rust_opt/target/armv7a-none-eabi/release/libitron.a(core-d049573bc16596f9.core.5587a85061e7188a-cgu.0.rcgu.o)
                                          0x8 (size before relaxing)
 .ARM.exidx.text._ZN4core3fmt3num54_$LT$impl$u20$core..fmt..UpperExp$u20$for$u20$u128$GT$3fmt17h8104a47a73970792E
                0x0000000000140108        0x0 ./gen/../rust_opt/target/armv7a-none-eabi/release/libitron.a(core-d049573bc16596f9.core.5587a85061e7188a-cgu.0.rcgu.o)
                                          0x8 (size before relaxing)
 .ARM.exidx.text._ZN53_$LT$core..fmt..Error$u20$as$u20$core..fmt..Debug$GT$3fmt17h1fc33b0efc6d4457E
                0x0000000000140108        0x0 ./gen/../rust_opt/target/armv7a-none-eabi/release/libitron.a(core-d049573bc16596f9.core.5587a85061e7188a-cgu.0.rcgu.o)
                                          0x8 (size before relaxing)
 .ARM.exidx.text._ZN42_$LT$$RF$T$u20$as$u20$core..fmt..Debug$GT$3fmt17h24b88fa73242f32eE
                0x0000000000140108        0x0 ./gen/../rust_opt/target/armv7a-none-eabi/release/libitron.a(core-d049573bc16596f9.core.5587a85061e7188a-cgu.0.rcgu.o)
                                          0x8 (size before relaxing)
 .ARM.exidx.text._ZN42_$LT$$RF$T$u20$as$u20$core..fmt..Debug$GT$3fmt17h2b8606028715b277E
                0x0000000000140108        0x0 ./gen/../rust_opt/target/armv7a-none-eabi/release/libitron.a(core-d049573bc16596f9.core.5587a85061e7188a-cgu.0.rcgu.o)
                                          0x8 (size before relaxing)
 .ARM.exidx.text._ZN42_$LT$$RF$T$u20$as$u20$core..fmt..Debug$GT$3fmt17h2c94c47449fce077E
                0x0000000000140108        0x0 ./gen/../rust_opt/target/armv7a-none-eabi/release/libitron.a(core-d049573bc16596f9.core.5587a85061e7188a-cgu.0.rcgu.o)
                                          0x8 (size before relaxing)
 .ARM.exidx.text._ZN42_$LT$$RF$T$u20$as$u20$core..fmt..Debug$GT$3fmt17hf161bf64d7c0ef1eE
                0x0000000000140108        0x0 ./gen/../rust_opt/target/armv7a-none-eabi/release/libitron.a(core-d049573bc16596f9.core.5587a85061e7188a-cgu.0.rcgu.o)
                                          0x8 (size before relaxing)
 .ARM.exidx.text._ZN44_$LT$$RF$T$u20$as$u20$core..fmt..Display$GT$3fmt17h61386bb67a2fbd60E
                0x0000000000140108        0x0 ./gen/../rust_opt/target/armv7a-none-eabi/release/libitron.a(core-d049573bc16596f9.core.5587a85061e7188a-cgu.0.rcgu.o)
                                          0x8 (size before relaxing)
 .ARM.exidx.text._ZN44_$LT$$RF$T$u20$as$u20$core..fmt..Display$GT$3fmt17h8f0befc82ddda638E
                0x0000000000140108        0x0 ./gen/../rust_opt/target/armv7a-none-eabi/release/libitron.a(core-d049573bc16596f9.core.5587a85061e7188a-cgu.0.rcgu.o)
                                          0x8 (size before relaxing)
 .ARM.exidx.text._ZN44_$LT$$RF$T$u20$as$u20$core..fmt..Display$GT$3fmt17hfac9eb6f9e514871E
                0x0000000000140108        0x0 ./gen/../rust_opt/target/armv7a-none-eabi/release/libitron.a(core-d049573bc16596f9.core.5587a85061e7188a-cgu.0.rcgu.o)
                                          0x8 (size before relaxing)
 .ARM.exidx.text._ZN44_$LT$$RF$T$u20$as$u20$core..fmt..Display$GT$3fmt17hfcf05cee7c9056f6E
                0x0000000000140108        0x0 ./gen/../rust_opt/target/armv7a-none-eabi/release/libitron.a(core-d049573bc16596f9.core.5587a85061e7188a-cgu.0.rcgu.o)
                                          0x8 (size before relaxing)
 .ARM.exidx.text._ZN45_$LT$$RF$T$u20$as$u20$core..fmt..LowerHex$GT$3fmt17ha26303ddcb46393bE
                0x0000000000140108        0x0 ./gen/../rust_opt/target/armv7a-none-eabi/release/libitron.a(core-d049573bc16596f9.core.5587a85061e7188a-cgu.0.rcgu.o)
                                          0x8 (size before relaxing)
 .ARM.exidx.text.unlikely._ZN4core5slice5index26slice_start_index_len_fail8do_panic7runtime17h6b9a2d72cc528d7dE
                0x0000000000140108        0x0 ./gen/../rust_opt/target/armv7a-none-eabi/release/libitron.a(core-d049573bc16596f9.core.5587a85061e7188a-cgu.0.rcgu.o)
                                          0x8 (size before relaxing)
 .ARM.exidx.text.unlikely._ZN4core5slice5index24slice_end_index_len_fail8do_panic7runtime17h389d609c37b06f43E
                0x0000000000140108        0x0 ./gen/../rust_opt/target/armv7a-none-eabi/release/libitron.a(core-d049573bc16596f9.core.5587a85061e7188a-cgu.0.rcgu.o)
                                          0x8 (size before relaxing)
 .ARM.exidx.text.unlikely._ZN4core5slice5index22slice_index_order_fail8do_panic7runtime17hba4d89077763ab27E
                0x0000000000140108        0x0 ./gen/../rust_opt/target/armv7a-none-eabi/release/libitron.a(core-d049573bc16596f9.core.5587a85061e7188a-cgu.0.rcgu.o)
                                          0x8 (size before relaxing)
 .ARM.exidx.text.unlikely._ZN4core5slice29_$LT$impl$u20$$u5b$T$u5d$$GT$15copy_from_slice17len_mismatch_fail8do_panic7runtime17ha2cc200a2ee383aeE
                0x0000000000140108        0x0 ./gen/../rust_opt/target/armv7a-none-eabi/release/libitron.a(core-d049573bc16596f9.core.5587a85061e7188a-cgu.0.rcgu.o)
                                          0x8 (size before relaxing)
 .ARM.exidx.text._ZN67_$LT$core..str..iter..EscapeDebug$u20$as$u20$core..fmt..Display$GT$3fmt17h2e2431f416ffb01dE
                0x0000000000140108        0x0 ./gen/../rust_opt/target/armv7a-none-eabi/release/libitron.a(core-d049573bc16596f9.core.5587a85061e7188a-cgu.0.rcgu.o)
                                          0x8 (size before relaxing)
 .ARM.exidx.text._ZN69_$LT$core..str..iter..EscapeDefault$u20$as$u20$core..fmt..Display$GT$3fmt17ha94bdd14781dc3d5E
                0x0000000000140108        0x0 ./gen/../rust_opt/target/armv7a-none-eabi/release/libitron.a(core-d049573bc16596f9.core.5587a85061e7188a-cgu.0.rcgu.o)
                                          0x8 (size before relaxing)
 .ARM.exidx.text._ZN69_$LT$core..str..iter..EscapeUnicode$u20$as$u20$core..fmt..Display$GT$3fmt17h5c27075c7f7ee5aeE
                0x0000000000140108        0x0 ./gen/../rust_opt/target/armv7a-none-eabi/release/libitron.a(core-d049573bc16596f9.core.5587a85061e7188a-cgu.0.rcgu.o)
                                          0x8 (size before relaxing)
 .ARM.exidx.text._ZN4core7unicode12unicode_data10alphabetic6lookup17h0425ea10b4aa7bf8E
                0x0000000000140108        0x0 ./gen/../rust_opt/target/armv7a-none-eabi/release/libitron.a(core-d049573bc16596f9.core.5587a85061e7188a-cgu.0.rcgu.o)
                                          0x8 (size before relaxing)
 .ARM.exidx.text._ZN4core7unicode12unicode_data14case_ignorable6lookup17ha88a31073cb4ea00E
                0x0000000000140108        0x0 ./gen/../rust_opt/target/armv7a-none-eabi/release/libitron.a(core-d049573bc16596f9.core.5587a85061e7188a-cgu.0.rcgu.o)
                                          0x8 (size before relaxing)
 .ARM.exidx.text._ZN4core7unicode12unicode_data5cased6lookup17h855070ae3579273aE
                0x0000000000140108        0x0 ./gen/../rust_opt/target/armv7a-none-eabi/release/libitron.a(core-d049573bc16596f9.core.5587a85061e7188a-cgu.0.rcgu.o)
                                          0x8 (size before relaxing)
 .ARM.exidx.text._ZN4core7unicode12unicode_data2cc6lookup17hbd92340422846ed5E
                0x0000000000140108        0x0 ./gen/../rust_opt/target/armv7a-none-eabi/release/libitron.a(core-d049573bc16596f9.core.5587a85061e7188a-cgu.0.rcgu.o)
                                          0x8 (size before relaxing)
 .ARM.exidx.text._ZN4core7unicode12unicode_data15grapheme_extend11lookup_slow17ha0f2bcc528f4b24fE
                0x0000000000140108        0x0 ./gen/../rust_opt/target/armv7a-none-eabi/release/libitron.a(core-d049573bc16596f9.core.5587a85061e7188a-cgu.0.rcgu.o)
                                          0x8 (size before relaxing)
 .ARM.exidx.text._ZN4core7unicode12unicode_data9lowercase6lookup17h25b6cb6d69b065d2E
                0x0000000000140108        0x0 ./gen/../rust_opt/target/armv7a-none-eabi/release/libitron.a(core-d049573bc16596f9.core.5587a85061e7188a-cgu.0.rcgu.o)
                                          0x8 (size before relaxing)
 .ARM.exidx.text._ZN4core7unicode12unicode_data1n6lookup17hab35f8f69f966811E
                0x0000000000140108        0x0 ./gen/../rust_opt/target/armv7a-none-eabi/release/libitron.a(core-d049573bc16596f9.core.5587a85061e7188a-cgu.0.rcgu.o)
                                          0x8 (size before relaxing)
 .ARM.exidx.text._ZN4core7unicode12unicode_data9uppercase6lookup17h93e2abe42af36001E
                0x0000000000140108        0x0 ./gen/../rust_opt/target/armv7a-none-eabi/release/libitron.a(core-d049573bc16596f9.core.5587a85061e7188a-cgu.0.rcgu.o)
                                          0x8 (size before relaxing)
 .ARM.exidx.text._ZN4core7unicode12unicode_data11conversions8to_lower17h8b23e01b2072e971E
                0x0000000000140108        0x0 ./gen/../rust_opt/target/armv7a-none-eabi/release/libitron.a(core-d049573bc16596f9.core.5587a85061e7188a-cgu.0.rcgu.o)
                                          0x8 (size before relaxing)
 .ARM.exidx.text._ZN4core7unicode12unicode_data11conversions8to_upper17hb90ef9b0b7a7f5d4E
                0x0000000000140108        0x0 ./gen/../rust_opt/target/armv7a-none-eabi/release/libitron.a(core-d049573bc16596f9.core.5587a85061e7188a-cgu.0.rcgu.o)
                                          0x8 (size before relaxing)
 .ARM.exidx.text.__aeabi_memset
                0x0000000000140108        0x0 ./gen/../rust_opt/target/armv7a-none-eabi/release/libitron.a(compiler_builtins-70f608aea3cde50d.compiler_builtins.5a681add74c93a61-cgu.162.rcgu.o)
                                          0x8 (size before relaxing)
 .ARM.exidx.text.__aeabi_memcpy4
                0x0000000000140108        0x0 ./gen/../rust_opt/target/armv7a-none-eabi/release/libitron.a(compiler_builtins-70f608aea3cde50d.compiler_builtins.5a681add74c93a61-cgu.174.rcgu.o)
                                          0x8 (size before relaxing)
 .ARM.exidx.text.__aeabi_dmul
                0x0000000000140108        0x0 ./gen/../rust_opt/target/armv7a-none-eabi/release/libitron.a(compiler_builtins-70f608aea3cde50d.compiler_builtins.5a681add74c93a61-cgu.178.rcgu.o)
                                          0x8 (size before relaxing)
 .ARM.exidx.text.__aeabi_fcmplt
                0x0000000000140108        0x0 ./gen/../rust_opt/target/armv7a-none-eabi/release/libitron.a(compiler_builtins-70f608aea3cde50d.compiler_builtins.5a681add74c93a61-cgu.180.rcgu.o)
                                          0x8 (size before relaxing)
 .ARM.exidx.text.__aeabi_memclr4
                0x0000000000140108        0x0 ./gen/../rust_opt/target/armv7a-none-eabi/release/libitron.a(compiler_builtins-70f608aea3cde50d.compiler_builtins.5a681add74c93a61-cgu.201.rcgu.o)
                                          0x8 (size before relaxing)
 .ARM.exidx.text.__aeabi_fcmpge
                0x0000000000140108        0x0 ./gen/../rust_opt/target/armv7a-none-eabi/release/libitron.a(compiler_builtins-70f608aea3cde50d.compiler_builtins.5a681add74c93a61-cgu.206.rcgu.o)
                                          0x8 (size before relaxing)
 .ARM.exidx.text.__aeabi_f2h
                0x0000000000140108        0x0 ./gen/../rust_opt/target/armv7a-none-eabi/release/libitron.a(compiler_builtins-70f608aea3cde50d.compiler_builtins.5a681add74c93a61-cgu.210.rcgu.o)
                                          0x8 (size before relaxing)
 .ARM.exidx.text.__aeabi_memcpy
                0x0000000000140108        0x0 ./gen/../rust_opt/target/armv7a-none-eabi/release/libitron.a(compiler_builtins-70f608aea3cde50d.compiler_builtins.5a681add74c93a61-cgu.223.rcgu.o)
                                          0x8 (size before relaxing)
 .ARM.exidx.text.__aeabi_memcpy8
                0x0000000000140108        0x0 ./gen/../rust_opt/target/armv7a-none-eabi/release/libitron.a(compiler_builtins-70f608aea3cde50d.compiler_builtins.5a681add74c93a61-cgu.253.rcgu.o)
                                          0x8 (size before relaxing)
 .ARM.exidx.text.__aeabi_dcmplt
                0x0000000000140108        0x0 ./gen/../rust_opt/target/armv7a-none-eabi/release/libitron.a(compiler_builtins-70f608aea3cde50d.compiler_builtins.5a681add74c93a61-cgu.261.rcgu.o)
                                          0x8 (size before relaxing)
 .ARM.exidx.text.__aeabi_ddiv
                0x0000000000140108        0x0 ./gen/../rust_opt/target/armv7a-none-eabi/release/libitron.a(compiler_builtins-70f608aea3cde50d.compiler_builtins.5a681add74c93a61-cgu.263.rcgu.o)
                                          0x8 (size before relaxing)
 .ARM.exidx.text.__aeabi_ul2d
                0x0000000000140108        0x0 ./gen/../rust_opt/target/armv7a-none-eabi/release/libitron.a(compiler_builtins-70f608aea3cde50d.compiler_builtins.5a681add74c93a61-cgu.270.rcgu.o)
                                          0x8 (size before relaxing)
 .ARM.exidx.text.__aeabi_fcmpeq
                0x0000000000140108        0x0 ./gen/../rust_opt/target/armv7a-none-eabi/release/libitron.a(compiler_builtins-70f608aea3cde50d.compiler_builtins.5a681add74c93a61-cgu.283.rcgu.o)
                                          0x8 (size before relaxing)
 .ARM.exidx.text.__aeabi_dcmpeq
                0x0000000000140108        0x0 ./gen/../rust_opt/target/armv7a-none-eabi/release/libitron.a(compiler_builtins-70f608aea3cde50d.compiler_builtins.5a681add74c93a61-cgu.287.rcgu.o)
                                          0x8 (size before relaxing)
 .ARM.exidx.text.__aeabi_h2f
                0x0000000000140108        0x0 ./gen/../rust_opt/target/armv7a-none-eabi/release/libitron.a(compiler_builtins-70f608aea3cde50d.compiler_builtins.5a681add74c93a61-cgu.300.rcgu.o)
                                          0x8 (size before relaxing)
 .ARM.exidx.text.memcmp
                0x0000000000140108        0x0 ./gen/../rust_opt/target/armv7a-none-eabi/release/libitron.a(compiler_builtins-70f608aea3cde50d.compiler_builtins.5a681add74c93a61-cgu.310.rcgu.o)
                                          0x8 (size before relaxing)
 .ARM.exidx.text.__aeabi_fdiv
                0x0000000000140108        0x0 ./gen/../rust_opt/target/armv7a-none-eabi/release/libitron.a(compiler_builtins-70f608aea3cde50d.compiler_builtins.5a681add74c93a61-cgu.355.rcgu.o)
                                          0x8 (size before relaxing)
 .ARM.exidx.text.__aeabi_dcmpge
                0x0000000000140108        0x0 ./gen/../rust_opt/target/armv7a-none-eabi/release/libitron.a(compiler_builtins-70f608aea3cde50d.compiler_builtins.5a681add74c93a61-cgu.361.rcgu.o)
                                          0x8 (size before relaxing)
 .ARM.exidx.text.__aeabi_ul2f
                0x0000000000140108        0x0 ./gen/../rust_opt/target/armv7a-none-eabi/release/libitron.a(compiler_builtins-70f608aea3cde50d.compiler_builtins.5a681add74c93a61-cgu.365.rcgu.o)
                                          0x8 (size before relaxing)
 .ARM.exidx.text.__aeabi_memclr8
                0x0000000000140108        0x0 ./gen/../rust_opt/target/armv7a-none-eabi/release/libitron.a(compiler_builtins-70f608aea3cde50d.compiler_builtins.5a681add74c93a61-cgu.375.rcgu.o)
                                          0x8 (size before relaxing)
 .ARM.exidx.text.__aeabi_fmul
                0x0000000000140108        0x0 ./gen/../rust_opt/target/armv7a-none-eabi/release/libitron.a(compiler_builtins-70f608aea3cde50d.compiler_builtins.5a681add74c93a61-cgu.393.rcgu.o)
                                          0x8 (size before relaxing)
 .ARM.exidx.text.__aeabi_memclr
                0x0000000000140108        0x0 ./gen/../rust_opt/target/armv7a-none-eabi/release/libitron.a(compiler_builtins-70f608aea3cde50d.compiler_builtins.5a681add74c93a61-cgu.395.rcgu.o)
                                          0x8 (size before relaxing)
 .ARM.exidx.text._ZN17compiler_builtins5float3div3div17he78d0620a7b75566E
                0x0000000000140108        0x0 ./gen/../rust_opt/target/armv7a-none-eabi/release/libitron.a(compiler_builtins-70f608aea3cde50d.compiler_builtins.5a681add74c93a61-cgu.000.rcgu.o)
                                          0x8 (size before relaxing)
 .ARM.exidx.text._ZN17compiler_builtins5float3div8__divsf317h2b1d2160bcddc788E
                0x0000000000140108        0x0 ./gen/../rust_opt/target/armv7a-none-eabi/release/libitron.a(compiler_builtins-70f608aea3cde50d.compiler_builtins.5a681add74c93a61-cgu.000.rcgu.o)
                                          0x8 (size before relaxing)
 .ARM.exidx.text._ZN17compiler_builtins5float3div8__divdf317hce8b9ad476be59d6E
                0x0000000000140108        0x0 ./gen/../rust_opt/target/armv7a-none-eabi/release/libitron.a(compiler_builtins-70f608aea3cde50d.compiler_builtins.5a681add74c93a61-cgu.000.rcgu.o)
                                          0x8 (size before relaxing)
 .ARM.exidx.text._ZN17compiler_builtins5float3mul3mul17hf2a17768751d3093E
                0x0000000000140108        0x0 ./gen/../rust_opt/target/armv7a-none-eabi/release/libitron.a(compiler_builtins-70f608aea3cde50d.compiler_builtins.5a681add74c93a61-cgu.004.rcgu.o)
                                          0x8 (size before relaxing)
 .ARM.exidx.text._ZN17compiler_builtins5float3mul8__mulsf317h25278f3241c059d4E
                0x0000000000140108        0x0 ./gen/../rust_opt/target/armv7a-none-eabi/release/libitron.a(compiler_builtins-70f608aea3cde50d.compiler_builtins.5a681add74c93a61-cgu.004.rcgu.o)
                                          0x8 (size before relaxing)
 .ARM.exidx.text._ZN17compiler_builtins5float3mul8__muldf317hccb81ca3c0286231E
                0x0000000000140108        0x0 ./gen/../rust_opt/target/armv7a-none-eabi/release/libitron.a(compiler_builtins-70f608aea3cde50d.compiler_builtins.5a681add74c93a61-cgu.004.rcgu.o)
                                          0x8 (size before relaxing)
 .ARM.exidx.text._ZN17compiler_builtins3mem6memcpy17h2e27bf7b653d77b8E
                0x0000000000140108        0x0 ./gen/../rust_opt/target/armv7a-none-eabi/release/libitron.a(compiler_builtins-70f608aea3cde50d.compiler_builtins.5a681add74c93a61-cgu.009.rcgu.o)
                                          0x8 (size before relaxing)
 .ARM.exidx.text._ZN17compiler_builtins3mem7memmove17h5a3e1228d8082146E
                0x0000000000140108        0x0 ./gen/../rust_opt/target/armv7a-none-eabi/release/libitron.a(compiler_builtins-70f608aea3cde50d.compiler_builtins.5a681add74c93a61-cgu.009.rcgu.o)
                                          0x8 (size before relaxing)
 .ARM.exidx.text._ZN17compiler_builtins3mem6memset17h37b1769849978255E
                0x0000000000140108        0x0 ./gen/../rust_opt/target/armv7a-none-eabi/release/libitron.a(compiler_builtins-70f608aea3cde50d.compiler_builtins.5a681add74c93a61-cgu.009.rcgu.o)
                                          0x8 (size before relaxing)
 .ARM.exidx.text._ZN17compiler_builtins3mem4bcmp17h6438afe9a882ff74E
                0x0000000000140108        0x0 ./gen/../rust_opt/target/armv7a-none-eabi/release/libitron.a(compiler_builtins-70f608aea3cde50d.compiler_builtins.5a681add74c93a61-cgu.009.rcgu.o)
                                          0x8 (size before relaxing)
 .ARM.exidx.text._ZN17compiler_builtins3mem6strlen17hdb1c52627ea21c52E
                0x0000000000140108        0x0 ./gen/../rust_opt/target/armv7a-none-eabi/release/libitron.a(compiler_builtins-70f608aea3cde50d.compiler_builtins.5a681add74c93a61-cgu.009.rcgu.o)
                                          0x8 (size before relaxing)
 .ARM.exidx.text._ZN84_$LT$compiler_builtins..int..big..u256$u20$as$u20$core..ops..bit..Shr$LT$u32$GT$$GT$3shr17h700137e2b572ae43E
                0x0000000000140108        0x0 ./gen/../rust_opt/target/armv7a-none-eabi/release/libitron.a(compiler_builtins-70f608aea3cde50d.compiler_builtins.5a681add74c93a61-cgu.019.rcgu.o)
                                          0x8 (size before relaxing)
 .ARM.exidx.text._ZN17compiler_builtins3int3big71_$LT$impl$u20$compiler_builtins..int..traits..HInt$u20$for$u20$u128$GT$14zero_widen_mul17h2a6f60738a72942fE
                0x0000000000140108        0x0 ./gen/../rust_opt/target/armv7a-none-eabi/release/libitron.a(compiler_builtins-70f608aea3cde50d.compiler_builtins.5a681add74c93a61-cgu.019.rcgu.o)
                                          0x8 (size before relaxing)
 .ARM.exidx.text._ZN17compiler_builtins3int3big71_$LT$impl$u20$compiler_builtins..int..traits..HInt$u20$for$u20$i128$GT$14zero_widen_mul17h757cd97f511fe0d1E
                0x0000000000140108        0x0 ./gen/../rust_opt/target/armv7a-none-eabi/release/libitron.a(compiler_builtins-70f608aea3cde50d.compiler_builtins.5a681add74c93a61-cgu.019.rcgu.o)
                                          0x8 (size before relaxing)
 .ARM.exidx.text.unlikely._ZN17compiler_builtins3int3big71_$LT$impl$u20$compiler_builtins..int..traits..HInt$u20$for$u20$i128$GT$9widen_mul17hbe745c677a8cf624E
                0x0000000000140108        0x0 ./gen/../rust_opt/target/armv7a-none-eabi/release/libitron.a(compiler_builtins-70f608aea3cde50d.compiler_builtins.5a681add74c93a61-cgu.019.rcgu.o)
                                          0x8 (size before relaxing)
 .ARM.exidx.text.unlikely._ZN17compiler_builtins3int3big71_$LT$impl$u20$compiler_builtins..int..traits..HInt$u20$for$u20$i128$GT$8widen_hi17hd02f55ec31f3daf8E
                0x0000000000140108        0x0 ./gen/../rust_opt/target/armv7a-none-eabi/release/libitron.a(compiler_builtins-70f608aea3cde50d.compiler_builtins.5a681add74c93a61-cgu.019.rcgu.o)
                                          0x8 (size before relaxing)
 .ARM.exidx.text._ZN90_$LT$compiler_builtins..int..big..i256$u20$as$u20$compiler_builtins..int..traits..DInt$GT$2lo17h7b22363a25d41783E
                0x0000000000140108        0x0 ./gen/../rust_opt/target/armv7a-none-eabi/release/libitron.a(compiler_builtins-70f608aea3cde50d.compiler_builtins.5a681add74c93a61-cgu.019.rcgu.o)
                                          0x8 (size before relaxing)
 .ARM.exidx.text._ZN90_$LT$compiler_builtins..int..big..i256$u20$as$u20$compiler_builtins..int..traits..DInt$GT$2hi17h3540cc33fb75817bE
                0x0000000000140108        0x0 ./gen/../rust_opt/target/armv7a-none-eabi/release/libitron.a(compiler_builtins-70f608aea3cde50d.compiler_builtins.5a681add74c93a61-cgu.019.rcgu.o)
                                          0x8 (size before relaxing)
 .ARM.exidx.text._ZN17compiler_builtins3int6traits4DInt5lo_hi17ha308a58add6cc6a0E
                0x0000000000140108        0x0 ./gen/../rust_opt/target/armv7a-none-eabi/release/libitron.a(compiler_builtins-70f608aea3cde50d.compiler_builtins.5a681add74c93a61-cgu.019.rcgu.o)
                                          0x8 (size before relaxing)
 .ARM.exidx.text.unlikely._ZN84_$LT$compiler_builtins..int..big..i256$u20$as$u20$core..ops..bit..Shl$LT$u32$GT$$GT$3shl17h7aea36307c5c7502E
                0x0000000000140108        0x0 ./gen/../rust_opt/target/armv7a-none-eabi/release/libitron.a(compiler_builtins-70f608aea3cde50d.compiler_builtins.5a681add74c93a61-cgu.019.rcgu.o)
                                          0x8 (size before relaxing)
 .ARM.exidx.text.__udivmoddi4
                0x0000000000140108        0x0 ./gen/../rust_opt/target/armv7a-none-eabi/release/libitron.a(compiler_builtins-70f608aea3cde50d.compiler_builtins.5a681add74c93a61-cgu.347.rcgu.o)
                                          0x8 (size before relaxing)
 .ARM.exidx.text._ZN17compiler_builtins3int19specialized_div_rem12u128_div_rem17h745fc7146425b8c6E
                0x0000000000140108        0x0 ./gen/../rust_opt/target/armv7a-none-eabi/release/libitron.a(compiler_builtins-70f608aea3cde50d.compiler_builtins.5a681add74c93a61-cgu.010.rcgu.o)
                                          0x8 (size before relaxing)
 .ARM.exidx.text._ZN17compiler_builtins3int19specialized_div_rem11u64_div_rem17h1dcded8ad6a6aa41E
                0x0000000000140108        0x0 ./gen/../rust_opt/target/armv7a-none-eabi/release/libitron.a(compiler_builtins-70f608aea3cde50d.compiler_builtins.5a681add74c93a61-cgu.010.rcgu.o)
                                          0x8 (size before relaxing)
                0x0000000000140108                __exidx_end = .

.rel.dyn        0x0000000000140108        0x0
 .rel.iplt      0x0000000000140108        0x0 objs/start.o

.data           0x0000000000140108       0x40
                0x0000000000140108                __start_data = .
 *(.data)
 .data          0x0000000000140108        0x0 objs/start.o
 .data          0x0000000000140108        0x0 objs/log_output.o
 .data          0x0000000000140108        0x0 objs/vasyslog.o
 .data          0x0000000000140108        0x0 objs/t_perror.o
 .data          0x0000000000140108        0x0 objs/strerror.o
 .data          0x0000000000140108        0x0 objs/tTask_rProcessor1Migratable_tecsgen.o
 .data          0x0000000000140108        0x0 objs/tSemaphore_rProcessor1Migratable_tecsgen.o
 .data          0x0000000000140108        0x0 objs/tInterruptRequest_rProcessor1Migratable_tecsgen.o
 .data          0x0000000000140108        0x0 objs/tISR_rProcessor1Migratable_tecsgen.o
 .data          0x0000000000140108        0x0 objs/tTerminateRoutine_rProcessor1Migratable_tecsgen.o
 .data          0x0000000000140108        0x0 objs/tSerialPortMain_rProcessor1Migratable_tecsgen.o
 .data          0x0000000000140108        0x0 objs/tSerialAdapter_rProcessor1Migratable_tecsgen.o
 .data          0x0000000000140108        0x0 objs/tSysLog_rProcessor1Migratable_tecsgen.o
 .data          0x0000000000140108        0x0 objs/tSysLogAdapter_rProcessor1Migratable_tecsgen.o
 .data          0x0000000000140108        0x0 objs/tLogTaskMain_rProcessor1Migratable_tecsgen.o
 .data          0x0000000000140108        0x0 objs/tPutLogZyboZ7_rProcessor1Migratable_tecsgen.o
 .data          0x0000000000140108        0x0 objs/tXUartPs_rProcessor1Migratable_tecsgen.o
 .data          0x0000000000140108        0x0 objs/tSIOPortZyboZ7Main_rProcessor1Migratable_tecsgen.o
 .data          0x0000000000140108        0x0 objs/tTask.o
 .data          0x0000000000140108        0x0 objs/tInterruptRequest.o
 .data          0x0000000000140108        0x0 objs/tISR.o
 .data          0x0000000000140108        0x0 objs/tTerminateRoutine.o
 .data          0x0000000000140108        0x0 objs/tSerialPortMain.o
 .data          0x0000000000140108        0x0 objs/tSerialAdapter.o
 .data          0x0000000000140108        0x0 objs/tSysLog.o
 .data          0x0000000000140108        0x0 objs/tSysLogAdapter.o
 .data          0x0000000000140108        0x0 objs/tLogTaskMain.o
 .data          0x0000000000140108        0x0 objs/tPutLogZyboZ7.o
 .data          0x0000000000140108        0x0 objs/tXUartPs.o
 .data          0x0000000000140108        0x0 objs/init_tecs.o
 .data          0x0000000000140108        0x0 objs/kernel_cfg.o
 .data          0x0000000000140108        0x0 ./gen/../rust_opt/target/armv7a-none-eabi/release/libitron.a(63f8a0b8a638da8c-udivmodsi4.o)
 .data          0x0000000000140108        0x0 ./gen/../rust_opt/target/armv7a-none-eabi/release/libitron.a(63f8a0b8a638da8c-udivsi3.o)
 .data          0x0000000000140108        0x0 ./gen/../rust_opt/target/armv7a-none-eabi/release/libitron.a(63f8a0b8a638da8c-aeabi_div0.o)
 .data          0x0000000000140108       0x40 ./libkernel.a(target_kernel_impl.o)
                0x0000000000140108                arm_memory_area
 .data          0x0000000000140148        0x0 ./libkernel.a(chip_kernel_impl.o)
 .data          0x0000000000140148        0x0 ./libkernel.a(mpcore_kernel_impl.o)
 .data          0x0000000000140148        0x0 ./libkernel.a(gic_kernel_impl.o)
 .data          0x0000000000140148        0x0 ./libkernel.a(pl310.o)
 .data          0x0000000000140148        0x0 ./libkernel.a(mpcore_timer.o)
 .data          0x0000000000140148        0x0 ./libkernel.a(core_kernel_impl.o)
 .data          0x0000000000140148        0x0 ./libkernel.a(arm.o)
 .data          0x0000000000140148        0x0 ./libkernel.a(startup.o)
 .data          0x0000000000140148        0x0 ./libkernel.a(task.o)
 .data          0x0000000000140148        0x0 ./libkernel.a(taskhook.o)
 .data          0x0000000000140148        0x0 ./libkernel.a(wait.o)
 .data          0x0000000000140148        0x0 ./libkernel.a(time_event.o)
 .data          0x0000000000140148        0x0 ./libkernel.a(task_sync.o)
 .data          0x0000000000140148        0x0 ./libkernel.a(semaphore.o)
 .data          0x0000000000140148        0x0 ./libkernel.a(spin_lock.o)
 .data          0x0000000000140148        0x0 ./libkernel.a(sys_manage.o)
 .data          0x0000000000140148        0x0 ./libkernel.a(interrupt.o)
 .data          0x0000000000140148        0x0 ./libkernel.a(core_support.o)
 .data          0x0000000000140148        0x0 ./libkernel.a(task_term.o)
 .data          0x0000000000140148        0x0 ./libkernel.a(gic_support.o)
 .data          0x0000000000140148        0x0 /usr/lib/gcc/arm-none-eabi/10.3.1/../../../arm-none-eabi/lib/thumb/v7-a/nofp/libc.a(lib_a-memset.o)
 *(.data.*)
                0x0000000000140148                __end_data = .
                0x0000000000140108                __start_idata = LOADADDR (.data)

.igot.plt       0x0000000000140148        0x0
 .igot.plt      0x0000000000140148        0x0 objs/start.o
                0x0000000000140148                . = ALIGN (0x4)
                0x0000000000140148                _edata = .
                [!provide]                        PROVIDE (edata = .)

.bss            0x0000000000140148    0x10d68
                0x0000000000140148                __start_bss = .
 *(.bss)
 .bss           0x0000000000140148        0x0 objs/start.o
 .bss           0x0000000000140148        0x0 objs/log_output.o
 .bss           0x0000000000140148        0x0 objs/vasyslog.o
 .bss           0x0000000000140148        0x0 objs/t_perror.o
 .bss           0x0000000000140148        0x0 objs/strerror.o
 .bss           0x0000000000140148        0x0 objs/tTask_rProcessor1Migratable_tecsgen.o
 .bss           0x0000000000140148        0x0 objs/tSemaphore_rProcessor1Migratable_tecsgen.o
 .bss           0x0000000000140148        0x0 objs/tInterruptRequest_rProcessor1Migratable_tecsgen.o
 .bss           0x0000000000140148        0x0 objs/tISR_rProcessor1Migratable_tecsgen.o
 .bss           0x0000000000140148        0x0 objs/tTerminateRoutine_rProcessor1Migratable_tecsgen.o
 .bss           0x0000000000140148      0x234 objs/tSerialPortMain_rProcessor1Migratable_tecsgen.o
                0x0000000000140148                tSerialPortMain_CB_tab
                0x000000000014017c                tSerialPortMain_SerialPort1_SerialPortMain_CB_sendBuffer_INIT
                0x000000000014027c                tSerialPortMain_SerialPort1_SerialPortMain_CB_receiveBuffer_INIT
 .bss           0x000000000014037c        0x0 objs/tSerialAdapter_rProcessor1Migratable_tecsgen.o
 .bss           0x000000000014037c      0x49c objs/tSysLog_rProcessor1Migratable_tecsgen.o
                0x000000000014037c                tSysLog_SINGLE_CELL_CB
                0x0000000000140398                tSysLog_SINGLE_CELL_CB_logBuffer_INIT
 .bss           0x0000000000140818        0x0 objs/tSysLogAdapter_rProcessor1Migratable_tecsgen.o
 .bss           0x0000000000140818        0x0 objs/tLogTaskMain_rProcessor1Migratable_tecsgen.o
 .bss           0x0000000000140818        0x0 objs/tPutLogZyboZ7_rProcessor1Migratable_tecsgen.o
 .bss           0x0000000000140818        0x8 objs/tXUartPs_rProcessor1Migratable_tecsgen.o
                0x0000000000140818                tXUartPs_CB_tab
 .bss           0x0000000000140820        0x0 objs/tSIOPortZyboZ7Main_rProcessor1Migratable_tecsgen.o
 .bss           0x0000000000140820        0x0 objs/tTask.o
 .bss           0x0000000000140820        0x0 objs/tInterruptRequest.o
 .bss           0x0000000000140820        0x0 objs/tISR.o
 .bss           0x0000000000140820        0x0 objs/tTerminateRoutine.o
 .bss           0x0000000000140820        0x0 objs/tSerialPortMain.o
 .bss           0x0000000000140820        0x0 objs/tSerialAdapter.o
 .bss           0x0000000000140820        0x0 objs/tSysLog.o
 .bss           0x0000000000140820        0x0 objs/tSysLogAdapter.o
 .bss           0x0000000000140820        0x0 objs/tLogTaskMain.o
 .bss           0x0000000000140820        0x0 objs/tPutLogZyboZ7.o
 .bss           0x0000000000140820        0x0 objs/tXUartPs.o
 .bss           0x0000000000140820        0x0 objs/init_tecs.o
 .bss           0x0000000000140820       0x18 objs/kernel_cfg.o
                0x0000000000140820                _kernel_tevtcb_prc2
                0x0000000000140828                _kernel_tevtcb_prc1
                0x0000000000140830                _kernel_kerflg_table
 .bss           0x0000000000140838        0x0 ./gen/../rust_opt/target/armv7a-none-eabi/release/libitron.a(63f8a0b8a638da8c-udivmodsi4.o)
 .bss           0x0000000000140838        0x0 ./gen/../rust_opt/target/armv7a-none-eabi/release/libitron.a(63f8a0b8a638da8c-udivsi3.o)
 .bss           0x0000000000140838        0x0 ./gen/../rust_opt/target/armv7a-none-eabi/release/libitron.a(63f8a0b8a638da8c-aeabi_div0.o)
 .bss           0x0000000000140838        0x0 ./libkernel.a(target_kernel_impl.o)
 .bss           0x0000000000140838        0x0 ./libkernel.a(chip_kernel_impl.o)
 .bss           0x0000000000140838        0x0 ./libkernel.a(mpcore_kernel_impl.o)
 .bss           0x0000000000140838        0x0 ./libkernel.a(gic_kernel_impl.o)
 .bss           0x0000000000140838        0x0 ./libkernel.a(pl310.o)
 .bss           0x0000000000140838        0x0 ./libkernel.a(mpcore_timer.o)
 *fill*         0x0000000000140838     0x37c8 
 .bss           0x0000000000144000     0x4010 ./libkernel.a(core_kernel_impl.o)
                0x0000000000148000                _kernel_giant_lock
                0x0000000000148004                TOPPERS_sil_spn_var
                0x0000000000148008                _kernel_start_sync
 .bss           0x0000000000148010        0x0 ./libkernel.a(arm.o)
 .bss           0x0000000000148010        0xc ./libkernel.a(startup.o)
 .bss           0x000000000014801c        0x0 ./libkernel.a(task.o)
 .bss           0x000000000014801c        0xc ./libkernel.a(taskhook.o)
                0x000000000014801c                _kernel_mtxhook_release_all
                0x0000000000148020                _kernel_mtxhook_scan_ceilmtx
                0x0000000000148024                _kernel_mtxhook_check_ceilpri
 .bss           0x0000000000148028        0x0 ./libkernel.a(wait.o)
 .bss           0x0000000000148028       0x1c ./libkernel.a(time_event.o)
                0x0000000000148028                _kernel_current_evttim
                0x000000000014802c                _kernel_boundary_evttim
                0x0000000000148030                _kernel_monotonic_evttim
                0x0000000000148038                _kernel_systim_offset
                0x0000000000148040                _kernel_current_hrtcnt
 .bss           0x0000000000148044        0x0 ./libkernel.a(task_sync.o)
 .bss           0x0000000000148044        0x0 ./libkernel.a(semaphore.o)
 .bss           0x0000000000148044        0x0 ./libkernel.a(spin_lock.o)
 .bss           0x0000000000148044        0x0 ./libkernel.a(sys_manage.o)
 .bss           0x0000000000148044        0x0 ./libkernel.a(interrupt.o)
 .bss           0x0000000000148044        0x0 ./libkernel.a(core_support.o)
 .bss           0x0000000000148044        0x0 ./libkernel.a(task_term.o)
 .bss           0x0000000000148044        0x0 ./libkernel.a(gic_support.o)
 .bss           0x0000000000148044        0x0 /usr/lib/gcc/arm-none-eabi/10.3.1/../../../arm-none-eabi/lib/thumb/v7-a/nofp/libc.a(lib_a-memset.o)
 *(.bss.*)
 .bss._ZN5itron6DUMMY117h224b5aca020e77e0E.0
                0x0000000000148044        0x4 ./gen/../rust_opt/target/armv7a-none-eabi/release/libitron.a(itron-280b1142b498aad8.itron.fbcde098eeebdde0-cgu.0.rcgu.o)
 .bss._ZN5itron6DUMMY217h72df896414c4af0cE.0
                0x0000000000148048        0x4 ./gen/../rust_opt/target/armv7a-none-eabi/release/libitron.a(itron-280b1142b498aad8.itron.fbcde098eeebdde0-cgu.0.rcgu.o)
 .bss._ZN5itron6DUMMY317hdcdef5e892089bb9E.0
                0x000000000014804c        0x4 ./gen/../rust_opt/target/armv7a-none-eabi/release/libitron.a(itron-280b1142b498aad8.itron.fbcde098eeebdde0-cgu.0.rcgu.o)
 .bss._ZN5itron6DUMMY417he9d96a2b4efaecf4E.0
                0x0000000000148050        0x4 ./gen/../rust_opt/target/armv7a-none-eabi/release/libitron.a(itron-280b1142b498aad8.itron.fbcde098eeebdde0-cgu.0.rcgu.o)
 .bss._ZN5itron6DUMMY517h5e53012ece1d3098E.0
                0x0000000000148054        0x4 ./gen/../rust_opt/target/armv7a-none-eabi/release/libitron.a(itron-280b1142b498aad8.itron.fbcde098eeebdde0-cgu.0.rcgu.o)
 .bss._ZN5itron6DUMMY617hacd5e410076222beE.0
                0x0000000000148058        0x4 ./gen/../rust_opt/target/armv7a-none-eabi/release/libitron.a(itron-280b1142b498aad8.itron.fbcde098eeebdde0-cgu.0.rcgu.o)
 *(.kernel_data_*)
 .kernel_data_CLS_ALL_PRC1
                0x000000000014805c      0x19c objs/kernel_cfg.o
 .kernel_data_CLS_ALL_PRC2
                0x00000000001481f8       0xd8 objs/kernel_cfg.o
 .kernel_data_CLS_PRC1
                0x00000000001482d0      0x110 objs/kernel_cfg.o
 .kernel_data_CLS_PRC2
                0x00000000001483e0       0xcc objs/kernel_cfg.o
 *(.stack*)
 *fill*         0x00000000001484ac        0x4 
 .stack_CLS_ALL_PRC1
                0x00000000001484b0     0x3100 objs/kernel_cfg.o
 .stack_CLS_ALL_PRC2
                0x000000000014b5b0     0x2100 objs/kernel_cfg.o
 .stack_CLS_PRC1
                0x000000000014d6b0     0x2000 objs/kernel_cfg.o
 .stack_CLS_PRC2
                0x000000000014f6b0     0x1800 objs/kernel_cfg.o
 *(COMMON)
                0x0000000000150eb0                __end_bss = .
                0x0000000000150eb0                . = ALIGN (0x4)
                0x0000000000150eb0                _end = .
                0x0000000000150eb0                _heap = .
                [!provide]                        PROVIDE (end = .)

.comment        0x0000000000000000       0x67
 *(.comment)
 .comment       0x0000000000000000       0x33 objs/log_output.o
                                         0x34 (size before relaxing)
 .comment       0x0000000000000033       0x34 objs/vasyslog.o
 .comment       0x0000000000000033       0x34 objs/t_perror.o
 .comment       0x0000000000000033       0x34 objs/strerror.o
 .comment       0x0000000000000033       0x34 objs/tTask_rProcessor1Migratable_tecsgen.o
 .comment       0x0000000000000033       0x34 objs/tSemaphore_rProcessor1Migratable_tecsgen.o
 .comment       0x0000000000000033       0x34 objs/tInterruptRequest_rProcessor1Migratable_tecsgen.o
 .comment       0x0000000000000033       0x34 objs/tISR_rProcessor1Migratable_tecsgen.o
 .comment       0x0000000000000033       0x34 objs/tTerminateRoutine_rProcessor1Migratable_tecsgen.o
 .comment       0x0000000000000033       0x34 objs/tSerialPortMain_rProcessor1Migratable_tecsgen.o
 .comment       0x0000000000000033       0x34 objs/tSerialAdapter_rProcessor1Migratable_tecsgen.o
 .comment       0x0000000000000033       0x34 objs/tSysLog_rProcessor1Migratable_tecsgen.o
 .comment       0x0000000000000033       0x34 objs/tSysLogAdapter_rProcessor1Migratable_tecsgen.o
 .comment       0x0000000000000033       0x34 objs/tLogTaskMain_rProcessor1Migratable_tecsgen.o
 .comment       0x0000000000000033       0x34 objs/tPutLogZyboZ7_rProcessor1Migratable_tecsgen.o
 .comment       0x0000000000000033       0x34 objs/tXUartPs_rProcessor1Migratable_tecsgen.o
 .comment       0x0000000000000033       0x34 objs/tSIOPortZyboZ7Main_rProcessor1Migratable_tecsgen.o
 .comment       0x0000000000000033       0x34 objs/tTask.o
 .comment       0x0000000000000033       0x34 objs/tInterruptRequest.o
 .comment       0x0000000000000033       0x34 objs/tISR.o
 .comment       0x0000000000000033       0x34 objs/tTerminateRoutine.o
 .comment       0x0000000000000033       0x34 objs/tSerialPortMain.o
 .comment       0x0000000000000033       0x34 objs/tSerialAdapter.o
 .comment       0x0000000000000033       0x34 objs/tSysLog.o
 .comment       0x0000000000000033       0x34 objs/tSysLogAdapter.o
 .comment       0x0000000000000033       0x34 objs/tLogTaskMain.o
 .comment       0x0000000000000033       0x34 objs/tPutLogZyboZ7.o
 .comment       0x0000000000000033       0x34 objs/tXUartPs.o
 .comment       0x0000000000000033       0x34 objs/init_tecs.o
 .comment       0x0000000000000033       0x34 objs/kernel_cfg.o
 .comment       0x0000000000000033       0x34 ./gen/../rust_opt/target/armv7a-none-eabi/release/libitron.a(itron-280b1142b498aad8.itron.fbcde098eeebdde0-cgu.0.rcgu.o)
                                         0x35 (size before relaxing)
 .comment       0x0000000000000067       0x35 ./gen/../rust_opt/target/armv7a-none-eabi/release/libitron.a(itron-fbcb73bf0b635dd5.itron.68e737fdf62a80e5-cgu.0.rcgu.o)
 .comment       0x0000000000000067       0x35 ./gen/../rust_opt/target/armv7a-none-eabi/release/libitron.a(core-d049573bc16596f9.core.5587a85061e7188a-cgu.0.rcgu.o)
 .comment       0x0000000000000067       0x35 ./gen/../rust_opt/target/armv7a-none-eabi/release/libitron.a(compiler_builtins-70f608aea3cde50d.compiler_builtins.5a681add74c93a61-cgu.162.rcgu.o)
 .comment       0x0000000000000067       0x35 ./gen/../rust_opt/target/armv7a-none-eabi/release/libitron.a(compiler_builtins-70f608aea3cde50d.compiler_builtins.5a681add74c93a61-cgu.174.rcgu.o)
 .comment       0x0000000000000067       0x35 ./gen/../rust_opt/target/armv7a-none-eabi/release/libitron.a(compiler_builtins-70f608aea3cde50d.compiler_builtins.5a681add74c93a61-cgu.178.rcgu.o)
 .comment       0x0000000000000067       0x35 ./gen/../rust_opt/target/armv7a-none-eabi/release/libitron.a(compiler_builtins-70f608aea3cde50d.compiler_builtins.5a681add74c93a61-cgu.180.rcgu.o)
 .comment       0x0000000000000067       0x35 ./gen/../rust_opt/target/armv7a-none-eabi/release/libitron.a(compiler_builtins-70f608aea3cde50d.compiler_builtins.5a681add74c93a61-cgu.201.rcgu.o)
 .comment       0x0000000000000067       0x35 ./gen/../rust_opt/target/armv7a-none-eabi/release/libitron.a(compiler_builtins-70f608aea3cde50d.compiler_builtins.5a681add74c93a61-cgu.206.rcgu.o)
 .comment       0x0000000000000067       0x35 ./gen/../rust_opt/target/armv7a-none-eabi/release/libitron.a(compiler_builtins-70f608aea3cde50d.compiler_builtins.5a681add74c93a61-cgu.210.rcgu.o)
 .comment       0x0000000000000067       0x35 ./gen/../rust_opt/target/armv7a-none-eabi/release/libitron.a(compiler_builtins-70f608aea3cde50d.compiler_builtins.5a681add74c93a61-cgu.223.rcgu.o)
 .comment       0x0000000000000067       0x35 ./gen/../rust_opt/target/armv7a-none-eabi/release/libitron.a(compiler_builtins-70f608aea3cde50d.compiler_builtins.5a681add74c93a61-cgu.253.rcgu.o)
 .comment       0x0000000000000067       0x35 ./gen/../rust_opt/target/armv7a-none-eabi/release/libitron.a(compiler_builtins-70f608aea3cde50d.compiler_builtins.5a681add74c93a61-cgu.261.rcgu.o)
 .comment       0x0000000000000067       0x35 ./gen/../rust_opt/target/armv7a-none-eabi/release/libitron.a(compiler_builtins-70f608aea3cde50d.compiler_builtins.5a681add74c93a61-cgu.263.rcgu.o)
 .comment       0x0000000000000067       0x35 ./gen/../rust_opt/target/armv7a-none-eabi/release/libitron.a(compiler_builtins-70f608aea3cde50d.compiler_builtins.5a681add74c93a61-cgu.270.rcgu.o)
 .comment       0x0000000000000067       0x35 ./gen/../rust_opt/target/armv7a-none-eabi/release/libitron.a(compiler_builtins-70f608aea3cde50d.compiler_builtins.5a681add74c93a61-cgu.283.rcgu.o)
 .comment       0x0000000000000067       0x35 ./gen/../rust_opt/target/armv7a-none-eabi/release/libitron.a(compiler_builtins-70f608aea3cde50d.compiler_builtins.5a681add74c93a61-cgu.287.rcgu.o)
 .comment       0x0000000000000067       0x35 ./gen/../rust_opt/target/armv7a-none-eabi/release/libitron.a(compiler_builtins-70f608aea3cde50d.compiler_builtins.5a681add74c93a61-cgu.300.rcgu.o)
 .comment       0x0000000000000067       0x35 ./gen/../rust_opt/target/armv7a-none-eabi/release/libitron.a(compiler_builtins-70f608aea3cde50d.compiler_builtins.5a681add74c93a61-cgu.310.rcgu.o)
 .comment       0x0000000000000067       0x35 ./gen/../rust_opt/target/armv7a-none-eabi/release/libitron.a(compiler_builtins-70f608aea3cde50d.compiler_builtins.5a681add74c93a61-cgu.355.rcgu.o)
 .comment       0x0000000000000067       0x35 ./gen/../rust_opt/target/armv7a-none-eabi/release/libitron.a(compiler_builtins-70f608aea3cde50d.compiler_builtins.5a681add74c93a61-cgu.361.rcgu.o)
 .comment       0x0000000000000067       0x35 ./gen/../rust_opt/target/armv7a-none-eabi/release/libitron.a(compiler_builtins-70f608aea3cde50d.compiler_builtins.5a681add74c93a61-cgu.365.rcgu.o)
 .comment       0x0000000000000067       0x35 ./gen/../rust_opt/target/armv7a-none-eabi/release/libitron.a(compiler_builtins-70f608aea3cde50d.compiler_builtins.5a681add74c93a61-cgu.375.rcgu.o)
 .comment       0x0000000000000067       0x35 ./gen/../rust_opt/target/armv7a-none-eabi/release/libitron.a(compiler_builtins-70f608aea3cde50d.compiler_builtins.5a681add74c93a61-cgu.393.rcgu.o)
 .comment       0x0000000000000067       0x35 ./gen/../rust_opt/target/armv7a-none-eabi/release/libitron.a(compiler_builtins-70f608aea3cde50d.compiler_builtins.5a681add74c93a61-cgu.395.rcgu.o)
 .comment       0x0000000000000067       0x35 ./gen/../rust_opt/target/armv7a-none-eabi/release/libitron.a(compiler_builtins-70f608aea3cde50d.compiler_builtins.5a681add74c93a61-cgu.410.rcgu.o)
 .comment       0x0000000000000067       0x35 ./gen/../rust_opt/target/armv7a-none-eabi/release/libitron.a(compiler_builtins-70f608aea3cde50d.compiler_builtins.5a681add74c93a61-cgu.411.rcgu.o)
 .comment       0x0000000000000067       0x35 ./gen/../rust_opt/target/armv7a-none-eabi/release/libitron.a(compiler_builtins-70f608aea3cde50d.compiler_builtins.5a681add74c93a61-cgu.000.rcgu.o)
 .comment       0x0000000000000067       0x35 ./gen/../rust_opt/target/armv7a-none-eabi/release/libitron.a(compiler_builtins-70f608aea3cde50d.compiler_builtins.5a681add74c93a61-cgu.004.rcgu.o)
 .comment       0x0000000000000067       0x35 ./gen/../rust_opt/target/armv7a-none-eabi/release/libitron.a(compiler_builtins-70f608aea3cde50d.compiler_builtins.5a681add74c93a61-cgu.009.rcgu.o)
 .comment       0x0000000000000067       0x35 ./gen/../rust_opt/target/armv7a-none-eabi/release/libitron.a(compiler_builtins-70f608aea3cde50d.compiler_builtins.5a681add74c93a61-cgu.019.rcgu.o)
 .comment       0x0000000000000067       0x35 ./gen/../rust_opt/target/armv7a-none-eabi/release/libitron.a(compiler_builtins-70f608aea3cde50d.compiler_builtins.5a681add74c93a61-cgu.347.rcgu.o)
 .comment       0x0000000000000067       0x34 ./gen/../rust_opt/target/armv7a-none-eabi/release/libitron.a(63f8a0b8a638da8c-aeabi_div0.o)
 .comment       0x0000000000000067       0x35 ./gen/../rust_opt/target/armv7a-none-eabi/release/libitron.a(compiler_builtins-70f608aea3cde50d.compiler_builtins.5a681add74c93a61-cgu.010.rcgu.o)
 .comment       0x0000000000000067       0x34 ./libkernel.a(target_kernel_impl.o)
 .comment       0x0000000000000067       0x34 ./libkernel.a(chip_kernel_impl.o)
 .comment       0x0000000000000067       0x34 ./libkernel.a(mpcore_kernel_impl.o)
 .comment       0x0000000000000067       0x34 ./libkernel.a(gic_kernel_impl.o)
 .comment       0x0000000000000067       0x34 ./libkernel.a(pl310.o)
 .comment       0x0000000000000067       0x34 ./libkernel.a(mpcore_timer.o)
 .comment       0x0000000000000067       0x34 ./libkernel.a(core_kernel_impl.o)
 .comment       0x0000000000000067       0x34 ./libkernel.a(arm.o)
 .comment       0x0000000000000067       0x34 ./libkernel.a(startup.o)
 .comment       0x0000000000000067       0x34 ./libkernel.a(task.o)
 .comment       0x0000000000000067       0x34 ./libkernel.a(taskhook.o)
 .comment       0x0000000000000067       0x34 ./libkernel.a(wait.o)
 .comment       0x0000000000000067       0x34 ./libkernel.a(time_event.o)
 .comment       0x0000000000000067       0x34 ./libkernel.a(task_sync.o)
 .comment       0x0000000000000067       0x34 ./libkernel.a(semaphore.o)
 .comment       0x0000000000000067       0x34 ./libkernel.a(spin_lock.o)
 .comment       0x0000000000000067       0x34 ./libkernel.a(sys_manage.o)
 .comment       0x0000000000000067       0x34 ./libkernel.a(interrupt.o)
 .comment       0x0000000000000067       0x34 ./libkernel.a(task_term.o)
 .comment       0x0000000000000067       0x34 /usr/lib/gcc/arm-none-eabi/10.3.1/../../../arm-none-eabi/lib/thumb/v7-a/nofp/libc.a(lib_a-memset.o)
                0x0000000001000000                _heap_size = 0x1000000
                0x0000000001150eb0                _heap_limit = (_heap + _heap_size)

.ARM.attributes
                0x0000000000000000       0x35
 .ARM.attributes
                0x0000000000000000       0x21 objs/start.o
 .ARM.attributes
                0x0000000000000021       0x33 objs/log_output.o
 .ARM.attributes
                0x0000000000000054       0x33 objs/vasyslog.o
 .ARM.attributes
                0x0000000000000087       0x33 objs/t_perror.o
 .ARM.attributes
                0x00000000000000ba       0x33 objs/strerror.o
 .ARM.attributes
                0x00000000000000ed       0x33 objs/tTask_rProcessor1Migratable_tecsgen.o
 .ARM.attributes
                0x0000000000000120       0x33 objs/tSemaphore_rProcessor1Migratable_tecsgen.o
 .ARM.attributes
                0x0000000000000153       0x33 objs/tInterruptRequest_rProcessor1Migratable_tecsgen.o
 .ARM.attributes
                0x0000000000000186       0x33 objs/tISR_rProcessor1Migratable_tecsgen.o
 .ARM.attributes
                0x00000000000001b9       0x33 objs/tTerminateRoutine_rProcessor1Migratable_tecsgen.o
 .ARM.attributes
                0x00000000000001ec       0x33 objs/tSerialPortMain_rProcessor1Migratable_tecsgen.o
 .ARM.attributes
                0x000000000000021f       0x33 objs/tSerialAdapter_rProcessor1Migratable_tecsgen.o
 .ARM.attributes
                0x0000000000000252       0x33 objs/tSysLog_rProcessor1Migratable_tecsgen.o
 .ARM.attributes
                0x0000000000000285       0x33 objs/tSysLogAdapter_rProcessor1Migratable_tecsgen.o
 .ARM.attributes
                0x00000000000002b8       0x33 objs/tLogTaskMain_rProcessor1Migratable_tecsgen.o
 .ARM.attributes
                0x00000000000002eb       0x33 objs/tPutLogZyboZ7_rProcessor1Migratable_tecsgen.o
 .ARM.attributes
                0x000000000000031e       0x33 objs/tXUartPs_rProcessor1Migratable_tecsgen.o
 .ARM.attributes
                0x0000000000000351       0x33 objs/tSIOPortZyboZ7Main_rProcessor1Migratable_tecsgen.o
 .ARM.attributes
                0x0000000000000384       0x33 objs/tTask.o
 .ARM.attributes
                0x00000000000003b7       0x39 objs/tInterruptRequest.o
 .ARM.attributes
                0x00000000000003f0       0x33 objs/tISR.o
 .ARM.attributes
                0x0000000000000423       0x33 objs/tTerminateRoutine.o
 .ARM.attributes
                0x0000000000000456       0x33 objs/tSerialPortMain.o
 .ARM.attributes
                0x0000000000000489       0x33 objs/tSerialAdapter.o
 .ARM.attributes
                0x00000000000004bc       0x33 objs/tSysLog.o
 .ARM.attributes
                0x00000000000004ef       0x33 objs/tSysLogAdapter.o
 .ARM.attributes
                0x0000000000000522       0x33 objs/tLogTaskMain.o
 .ARM.attributes
                0x0000000000000555       0x33 objs/tPutLogZyboZ7.o
 .ARM.attributes
                0x0000000000000588       0x33 objs/tXUartPs.o
 .ARM.attributes
                0x00000000000005bb       0x33 objs/init_tecs.o
 .ARM.attributes
                0x00000000000005ee       0x33 objs/kernel_cfg.o
 .ARM.attributes
                0x0000000000000621       0x34 ./gen/../rust_opt/target/armv7a-none-eabi/release/libitron.a(itron-280b1142b498aad8.itron.fbcde098eeebdde0-cgu.0.rcgu.o)
 .ARM.attributes
                0x0000000000000655       0x34 ./gen/../rust_opt/target/armv7a-none-eabi/release/libitron.a(itron-fbcb73bf0b635dd5.itron.68e737fdf62a80e5-cgu.0.rcgu.o)
 .ARM.attributes
                0x0000000000000689       0x32 ./gen/../rust_opt/target/armv7a-none-eabi/release/libitron.a(core-d049573bc16596f9.core.5587a85061e7188a-cgu.0.rcgu.o)
 .ARM.attributes
                0x00000000000006bb       0x34 ./gen/../rust_opt/target/armv7a-none-eabi/release/libitron.a(compiler_builtins-70f608aea3cde50d.compiler_builtins.5a681add74c93a61-cgu.162.rcgu.o)
 .ARM.attributes
                0x00000000000006ef       0x34 ./gen/../rust_opt/target/armv7a-none-eabi/release/libitron.a(compiler_builtins-70f608aea3cde50d.compiler_builtins.5a681add74c93a61-cgu.174.rcgu.o)
 .ARM.attributes
                0x0000000000000723       0x34 ./gen/../rust_opt/target/armv7a-none-eabi/release/libitron.a(compiler_builtins-70f608aea3cde50d.compiler_builtins.5a681add74c93a61-cgu.178.rcgu.o)
 .ARM.attributes
                0x0000000000000757       0x34 ./gen/../rust_opt/target/armv7a-none-eabi/release/libitron.a(compiler_builtins-70f608aea3cde50d.compiler_builtins.5a681add74c93a61-cgu.180.rcgu.o)
 .ARM.attributes
                0x000000000000078b       0x34 ./gen/../rust_opt/target/armv7a-none-eabi/release/libitron.a(compiler_builtins-70f608aea3cde50d.compiler_builtins.5a681add74c93a61-cgu.201.rcgu.o)
 .ARM.attributes
                0x00000000000007bf       0x34 ./gen/../rust_opt/target/armv7a-none-eabi/release/libitron.a(compiler_builtins-70f608aea3cde50d.compiler_builtins.5a681add74c93a61-cgu.206.rcgu.o)
 .ARM.attributes
                0x00000000000007f3       0x34 ./gen/../rust_opt/target/armv7a-none-eabi/release/libitron.a(compiler_builtins-70f608aea3cde50d.compiler_builtins.5a681add74c93a61-cgu.210.rcgu.o)
 .ARM.attributes
                0x0000000000000827       0x34 ./gen/../rust_opt/target/armv7a-none-eabi/release/libitron.a(compiler_builtins-70f608aea3cde50d.compiler_builtins.5a681add74c93a61-cgu.223.rcgu.o)
 .ARM.attributes
                0x000000000000085b       0x34 ./gen/../rust_opt/target/armv7a-none-eabi/release/libitron.a(compiler_builtins-70f608aea3cde50d.compiler_builtins.5a681add74c93a61-cgu.253.rcgu.o)
 .ARM.attributes
                0x000000000000088f       0x34 ./gen/../rust_opt/target/armv7a-none-eabi/release/libitron.a(compiler_builtins-70f608aea3cde50d.compiler_builtins.5a681add74c93a61-cgu.261.rcgu.o)
 .ARM.attributes
                0x00000000000008c3       0x34 ./gen/../rust_opt/target/armv7a-none-eabi/release/libitron.a(compiler_builtins-70f608aea3cde50d.compiler_builtins.5a681add74c93a61-cgu.263.rcgu.o)
 .ARM.attributes
                0x00000000000008f7       0x34 ./gen/../rust_opt/target/armv7a-none-eabi/release/libitron.a(compiler_builtins-70f608aea3cde50d.compiler_builtins.5a681add74c93a61-cgu.270.rcgu.o)
 .ARM.attributes
                0x000000000000092b       0x34 ./gen/../rust_opt/target/armv7a-none-eabi/release/libitron.a(compiler_builtins-70f608aea3cde50d.compiler_builtins.5a681add74c93a61-cgu.283.rcgu.o)
 .ARM.attributes
                0x000000000000095f       0x34 ./gen/../rust_opt/target/armv7a-none-eabi/release/libitron.a(compiler_builtins-70f608aea3cde50d.compiler_builtins.5a681add74c93a61-cgu.287.rcgu.o)
 .ARM.attributes
                0x0000000000000993       0x34 ./gen/../rust_opt/target/armv7a-none-eabi/release/libitron.a(compiler_builtins-70f608aea3cde50d.compiler_builtins.5a681add74c93a61-cgu.300.rcgu.o)
 .ARM.attributes
                0x00000000000009c7       0x34 ./gen/../rust_opt/target/armv7a-none-eabi/release/libitron.a(compiler_builtins-70f608aea3cde50d.compiler_builtins.5a681add74c93a61-cgu.310.rcgu.o)
 .ARM.attributes
                0x00000000000009fb       0x34 ./gen/../rust_opt/target/armv7a-none-eabi/release/libitron.a(compiler_builtins-70f608aea3cde50d.compiler_builtins.5a681add74c93a61-cgu.355.rcgu.o)
 .ARM.attributes
                0x0000000000000a2f       0x34 ./gen/../rust_opt/target/armv7a-none-eabi/release/libitron.a(compiler_builtins-70f608aea3cde50d.compiler_builtins.5a681add74c93a61-cgu.361.rcgu.o)
 .ARM.attributes
                0x0000000000000a63       0x34 ./gen/../rust_opt/target/armv7a-none-eabi/release/libitron.a(compiler_builtins-70f608aea3cde50d.compiler_builtins.5a681add74c93a61-cgu.365.rcgu.o)
 .ARM.attributes
                0x0000000000000a97       0x34 ./gen/../rust_opt/target/armv7a-none-eabi/release/libitron.a(compiler_builtins-70f608aea3cde50d.compiler_builtins.5a681add74c93a61-cgu.375.rcgu.o)
 .ARM.attributes
                0x0000000000000acb       0x34 ./gen/../rust_opt/target/armv7a-none-eabi/release/libitron.a(compiler_builtins-70f608aea3cde50d.compiler_builtins.5a681add74c93a61-cgu.393.rcgu.o)
 .ARM.attributes
                0x0000000000000aff       0x34 ./gen/../rust_opt/target/armv7a-none-eabi/release/libitron.a(compiler_builtins-70f608aea3cde50d.compiler_builtins.5a681add74c93a61-cgu.395.rcgu.o)
 .ARM.attributes
                0x0000000000000b33       0x32 ./gen/../rust_opt/target/armv7a-none-eabi/release/libitron.a(compiler_builtins-70f608aea3cde50d.compiler_builtins.5a681add74c93a61-cgu.410.rcgu.o)
 .ARM.attributes
                0x0000000000000b65       0x32 ./gen/../rust_opt/target/armv7a-none-eabi/release/libitron.a(compiler_builtins-70f608aea3cde50d.compiler_builtins.5a681add74c93a61-cgu.411.rcgu.o)
 .ARM.attributes
                0x0000000000000b97       0x1d ./gen/../rust_opt/target/armv7a-none-eabi/release/libitron.a(63f8a0b8a638da8c-udivmodsi4.o)
 .ARM.attributes
                0x0000000000000bb4       0x1d ./gen/../rust_opt/target/armv7a-none-eabi/release/libitron.a(63f8a0b8a638da8c-udivsi3.o)
 .ARM.attributes
                0x0000000000000bd1       0x34 ./gen/../rust_opt/target/armv7a-none-eabi/release/libitron.a(compiler_builtins-70f608aea3cde50d.compiler_builtins.5a681add74c93a61-cgu.000.rcgu.o)
 .ARM.attributes
                0x0000000000000c05       0x34 ./gen/../rust_opt/target/armv7a-none-eabi/release/libitron.a(compiler_builtins-70f608aea3cde50d.compiler_builtins.5a681add74c93a61-cgu.004.rcgu.o)
 .ARM.attributes
                0x0000000000000c39       0x34 ./gen/../rust_opt/target/armv7a-none-eabi/release/libitron.a(compiler_builtins-70f608aea3cde50d.compiler_builtins.5a681add74c93a61-cgu.009.rcgu.o)
 .ARM.attributes
                0x0000000000000c6d       0x34 ./gen/../rust_opt/target/armv7a-none-eabi/release/libitron.a(compiler_builtins-70f608aea3cde50d.compiler_builtins.5a681add74c93a61-cgu.019.rcgu.o)
 .ARM.attributes
                0x0000000000000ca1       0x34 ./gen/../rust_opt/target/armv7a-none-eabi/release/libitron.a(compiler_builtins-70f608aea3cde50d.compiler_builtins.5a681add74c93a61-cgu.347.rcgu.o)
 .ARM.attributes
                0x0000000000000cd5       0x2f ./gen/../rust_opt/target/armv7a-none-eabi/release/libitron.a(63f8a0b8a638da8c-aeabi_div0.o)
 .ARM.attributes
                0x0000000000000d04       0x34 ./gen/../rust_opt/target/armv7a-none-eabi/release/libitron.a(compiler_builtins-70f608aea3cde50d.compiler_builtins.5a681add74c93a61-cgu.010.rcgu.o)
 .ARM.attributes
                0x0000000000000d38       0x33 ./libkernel.a(target_kernel_impl.o)
 .ARM.attributes
                0x0000000000000d6b       0x33 ./libkernel.a(chip_kernel_impl.o)
 .ARM.attributes
                0x0000000000000d9e       0x33 ./libkernel.a(mpcore_kernel_impl.o)
 .ARM.attributes
                0x0000000000000dd1       0x33 ./libkernel.a(gic_kernel_impl.o)
 .ARM.attributes
                0x0000000000000e04       0x33 ./libkernel.a(pl310.o)
 .ARM.attributes
                0x0000000000000e37       0x33 ./libkernel.a(mpcore_timer.o)
 .ARM.attributes
                0x0000000000000e6a       0x33 ./libkernel.a(core_kernel_impl.o)
 .ARM.attributes
                0x0000000000000e9d       0x33 ./libkernel.a(arm.o)
 .ARM.attributes
                0x0000000000000ed0       0x33 ./libkernel.a(startup.o)
 .ARM.attributes
                0x0000000000000f03       0x33 ./libkernel.a(task.o)
 .ARM.attributes
                0x0000000000000f36       0x39 ./libkernel.a(taskhook.o)
 .ARM.attributes
                0x0000000000000f6f       0x33 ./libkernel.a(wait.o)
 .ARM.attributes
                0x0000000000000fa2       0x33 ./libkernel.a(time_event.o)
 .ARM.attributes
                0x0000000000000fd5       0x33 ./libkernel.a(task_sync.o)
 .ARM.attributes
                0x0000000000001008       0x33 ./libkernel.a(semaphore.o)
 .ARM.attributes
                0x000000000000103b       0x33 ./libkernel.a(spin_lock.o)
 .ARM.attributes
                0x000000000000106e       0x33 ./libkernel.a(sys_manage.o)
 .ARM.attributes
                0x00000000000010a1       0x33 ./libkernel.a(interrupt.o)
 .ARM.attributes
                0x00000000000010d4       0x21 ./libkernel.a(core_support.o)
 .ARM.attributes
                0x00000000000010f5       0x33 ./libkernel.a(task_term.o)
 .ARM.attributes
                0x0000000000001128       0x21 ./libkernel.a(gic_support.o)
 .ARM.attributes
                0x0000000000001149       0x2f /usr/lib/gcc/arm-none-eabi/10.3.1/../../../arm-none-eabi/lib/thumb/v7-a/nofp/libc.a(lib_a-memset.o)

.note.GNU-stack
                0x0000000000000000        0x0
 .note.GNU-stack
                0x0000000000000000        0x0 ./gen/../rust_opt/target/armv7a-none-eabi/release/libitron.a(itron-280b1142b498aad8.itron.fbcde098eeebdde0-cgu.0.rcgu.o)
 .note.GNU-stack
                0x0000000000000000        0x0 ./gen/../rust_opt/target/armv7a-none-eabi/release/libitron.a(itron-fbcb73bf0b635dd5.itron.68e737fdf62a80e5-cgu.0.rcgu.o)
 .note.GNU-stack
                0x0000000000000000        0x0 ./gen/../rust_opt/target/armv7a-none-eabi/release/libitron.a(core-d049573bc16596f9.core.5587a85061e7188a-cgu.0.rcgu.o)
 .note.GNU-stack
                0x0000000000000000        0x0 ./gen/../rust_opt/target/armv7a-none-eabi/release/libitron.a(compiler_builtins-70f608aea3cde50d.compiler_builtins.5a681add74c93a61-cgu.162.rcgu.o)
 .note.GNU-stack
                0x0000000000000000        0x0 ./gen/../rust_opt/target/armv7a-none-eabi/release/libitron.a(compiler_builtins-70f608aea3cde50d.compiler_builtins.5a681add74c93a61-cgu.174.rcgu.o)
 .note.GNU-stack
                0x0000000000000000        0x0 ./gen/../rust_opt/target/armv7a-none-eabi/release/libitron.a(compiler_builtins-70f608aea3cde50d.compiler_builtins.5a681add74c93a61-cgu.178.rcgu.o)
 .note.GNU-stack
                0x0000000000000000        0x0 ./gen/../rust_opt/target/armv7a-none-eabi/release/libitron.a(compiler_builtins-70f608aea3cde50d.compiler_builtins.5a681add74c93a61-cgu.180.rcgu.o)
 .note.GNU-stack
                0x0000000000000000        0x0 ./gen/../rust_opt/target/armv7a-none-eabi/release/libitron.a(compiler_builtins-70f608aea3cde50d.compiler_builtins.5a681add74c93a61-cgu.201.rcgu.o)
 .note.GNU-stack
                0x0000000000000000        0x0 ./gen/../rust_opt/target/armv7a-none-eabi/release/libitron.a(compiler_builtins-70f608aea3cde50d.compiler_builtins.5a681add74c93a61-cgu.206.rcgu.o)
 .note.GNU-stack
                0x0000000000000000        0x0 ./gen/../rust_opt/target/armv7a-none-eabi/release/libitron.a(compiler_builtins-70f608aea3cde50d.compiler_builtins.5a681add74c93a61-cgu.210.rcgu.o)
 .note.GNU-stack
                0x0000000000000000        0x0 ./gen/../rust_opt/target/armv7a-none-eabi/release/libitron.a(compiler_builtins-70f608aea3cde50d.compiler_builtins.5a681add74c93a61-cgu.223.rcgu.o)
 .note.GNU-stack
                0x0000000000000000        0x0 ./gen/../rust_opt/target/armv7a-none-eabi/release/libitron.a(compiler_builtins-70f608aea3cde50d.compiler_builtins.5a681add74c93a61-cgu.253.rcgu.o)
 .note.GNU-stack
                0x0000000000000000        0x0 ./gen/../rust_opt/target/armv7a-none-eabi/release/libitron.a(compiler_builtins-70f608aea3cde50d.compiler_builtins.5a681add74c93a61-cgu.261.rcgu.o)
 .note.GNU-stack
                0x0000000000000000        0x0 ./gen/../rust_opt/target/armv7a-none-eabi/release/libitron.a(compiler_builtins-70f608aea3cde50d.compiler_builtins.5a681add74c93a61-cgu.263.rcgu.o)
 .note.GNU-stack
                0x0000000000000000        0x0 ./gen/../rust_opt/target/armv7a-none-eabi/release/libitron.a(compiler_builtins-70f608aea3cde50d.compiler_builtins.5a681add74c93a61-cgu.270.rcgu.o)
 .note.GNU-stack
                0x0000000000000000        0x0 ./gen/../rust_opt/target/armv7a-none-eabi/release/libitron.a(compiler_builtins-70f608aea3cde50d.compiler_builtins.5a681add74c93a61-cgu.283.rcgu.o)
 .note.GNU-stack
                0x0000000000000000        0x0 ./gen/../rust_opt/target/armv7a-none-eabi/release/libitron.a(compiler_builtins-70f608aea3cde50d.compiler_builtins.5a681add74c93a61-cgu.287.rcgu.o)
 .note.GNU-stack
                0x0000000000000000        0x0 ./gen/../rust_opt/target/armv7a-none-eabi/release/libitron.a(compiler_builtins-70f608aea3cde50d.compiler_builtins.5a681add74c93a61-cgu.300.rcgu.o)
 .note.GNU-stack
                0x0000000000000000        0x0 ./gen/../rust_opt/target/armv7a-none-eabi/release/libitron.a(compiler_builtins-70f608aea3cde50d.compiler_builtins.5a681add74c93a61-cgu.310.rcgu.o)
 .note.GNU-stack
                0x0000000000000000        0x0 ./gen/../rust_opt/target/armv7a-none-eabi/release/libitron.a(compiler_builtins-70f608aea3cde50d.compiler_builtins.5a681add74c93a61-cgu.355.rcgu.o)
 .note.GNU-stack
                0x0000000000000000        0x0 ./gen/../rust_opt/target/armv7a-none-eabi/release/libitron.a(compiler_builtins-70f608aea3cde50d.compiler_builtins.5a681add74c93a61-cgu.361.rcgu.o)
 .note.GNU-stack
                0x0000000000000000        0x0 ./gen/../rust_opt/target/armv7a-none-eabi/release/libitron.a(compiler_builtins-70f608aea3cde50d.compiler_builtins.5a681add74c93a61-cgu.365.rcgu.o)
 .note.GNU-stack
                0x0000000000000000        0x0 ./gen/../rust_opt/target/armv7a-none-eabi/release/libitron.a(compiler_builtins-70f608aea3cde50d.compiler_builtins.5a681add74c93a61-cgu.375.rcgu.o)
 .note.GNU-stack
                0x0000000000000000        0x0 ./gen/../rust_opt/target/armv7a-none-eabi/release/libitron.a(compiler_builtins-70f608aea3cde50d.compiler_builtins.5a681add74c93a61-cgu.393.rcgu.o)
 .note.GNU-stack
                0x0000000000000000        0x0 ./gen/../rust_opt/target/armv7a-none-eabi/release/libitron.a(compiler_builtins-70f608aea3cde50d.compiler_builtins.5a681add74c93a61-cgu.395.rcgu.o)
 .note.GNU-stack
                0x0000000000000000        0x0 ./gen/../rust_opt/target/armv7a-none-eabi/release/libitron.a(compiler_builtins-70f608aea3cde50d.compiler_builtins.5a681add74c93a61-cgu.410.rcgu.o)
 .note.GNU-stack
                0x0000000000000000        0x0 ./gen/../rust_opt/target/armv7a-none-eabi/release/libitron.a(compiler_builtins-70f608aea3cde50d.compiler_builtins.5a681add74c93a61-cgu.411.rcgu.o)
 .note.GNU-stack
                0x0000000000000000        0x0 ./gen/../rust_opt/target/armv7a-none-eabi/release/libitron.a(compiler_builtins-70f608aea3cde50d.compiler_builtins.5a681add74c93a61-cgu.000.rcgu.o)
 .note.GNU-stack
                0x0000000000000000        0x0 ./gen/../rust_opt/target/armv7a-none-eabi/release/libitron.a(compiler_builtins-70f608aea3cde50d.compiler_builtins.5a681add74c93a61-cgu.004.rcgu.o)
 .note.GNU-stack
                0x0000000000000000        0x0 ./gen/../rust_opt/target/armv7a-none-eabi/release/libitron.a(compiler_builtins-70f608aea3cde50d.compiler_builtins.5a681add74c93a61-cgu.009.rcgu.o)
 .note.GNU-stack
                0x0000000000000000        0x0 ./gen/../rust_opt/target/armv7a-none-eabi/release/libitron.a(compiler_builtins-70f608aea3cde50d.compiler_builtins.5a681add74c93a61-cgu.019.rcgu.o)
 .note.GNU-stack
                0x0000000000000000        0x0 ./gen/../rust_opt/target/armv7a-none-eabi/release/libitron.a(compiler_builtins-70f608aea3cde50d.compiler_builtins.5a681add74c93a61-cgu.347.rcgu.o)
 .note.GNU-stack
                0x0000000000000000        0x0 ./gen/../rust_opt/target/armv7a-none-eabi/release/libitron.a(compiler_builtins-70f608aea3cde50d.compiler_builtins.5a681add74c93a61-cgu.010.rcgu.o)

.debug
 *(.debug)

.line
 *(.line)

.debug_srcinfo
 *(.debug_srcinfo)

.debug_sfnames
 *(.debug_sfnames)

.debug_aranges  0x0000000000000000     0x14d8
 *(.debug_aranges)
 .debug_aranges
                0x0000000000000000     0x1048 ./gen/../rust_opt/target/armv7a-none-eabi/release/libitron.a(core-d049573bc16596f9.core.5587a85061e7188a-cgu.0.rcgu.o)
 .debug_aranges
                0x0000000000001048       0x20 ./gen/../rust_opt/target/armv7a-none-eabi/release/libitron.a(compiler_builtins-70f608aea3cde50d.compiler_builtins.5a681add74c93a61-cgu.162.rcgu.o)
 .debug_aranges
                0x0000000000001068       0x20 ./gen/../rust_opt/target/armv7a-none-eabi/release/libitron.a(compiler_builtins-70f608aea3cde50d.compiler_builtins.5a681add74c93a61-cgu.174.rcgu.o)
 .debug_aranges
                0x0000000000001088       0x20 ./gen/../rust_opt/target/armv7a-none-eabi/release/libitron.a(compiler_builtins-70f608aea3cde50d.compiler_builtins.5a681add74c93a61-cgu.178.rcgu.o)
 .debug_aranges
                0x00000000000010a8       0x20 ./gen/../rust_opt/target/armv7a-none-eabi/release/libitron.a(compiler_builtins-70f608aea3cde50d.compiler_builtins.5a681add74c93a61-cgu.180.rcgu.o)
 .debug_aranges
                0x00000000000010c8       0x20 ./gen/../rust_opt/target/armv7a-none-eabi/release/libitron.a(compiler_builtins-70f608aea3cde50d.compiler_builtins.5a681add74c93a61-cgu.201.rcgu.o)
 .debug_aranges
                0x00000000000010e8       0x20 ./gen/../rust_opt/target/armv7a-none-eabi/release/libitron.a(compiler_builtins-70f608aea3cde50d.compiler_builtins.5a681add74c93a61-cgu.206.rcgu.o)
 .debug_aranges
                0x0000000000001108       0x20 ./gen/../rust_opt/target/armv7a-none-eabi/release/libitron.a(compiler_builtins-70f608aea3cde50d.compiler_builtins.5a681add74c93a61-cgu.210.rcgu.o)
 .debug_aranges
                0x0000000000001128       0x20 ./gen/../rust_opt/target/armv7a-none-eabi/release/libitron.a(compiler_builtins-70f608aea3cde50d.compiler_builtins.5a681add74c93a61-cgu.223.rcgu.o)
 .debug_aranges
                0x0000000000001148       0x20 ./gen/../rust_opt/target/armv7a-none-eabi/release/libitron.a(compiler_builtins-70f608aea3cde50d.compiler_builtins.5a681add74c93a61-cgu.253.rcgu.o)
 .debug_aranges
                0x0000000000001168       0x20 ./gen/../rust_opt/target/armv7a-none-eabi/release/libitron.a(compiler_builtins-70f608aea3cde50d.compiler_builtins.5a681add74c93a61-cgu.261.rcgu.o)
 .debug_aranges
                0x0000000000001188       0x20 ./gen/../rust_opt/target/armv7a-none-eabi/release/libitron.a(compiler_builtins-70f608aea3cde50d.compiler_builtins.5a681add74c93a61-cgu.263.rcgu.o)
 .debug_aranges
                0x00000000000011a8       0x20 ./gen/../rust_opt/target/armv7a-none-eabi/release/libitron.a(compiler_builtins-70f608aea3cde50d.compiler_builtins.5a681add74c93a61-cgu.270.rcgu.o)
 .debug_aranges
                0x00000000000011c8       0x20 ./gen/../rust_opt/target/armv7a-none-eabi/release/libitron.a(compiler_builtins-70f608aea3cde50d.compiler_builtins.5a681add74c93a61-cgu.283.rcgu.o)
 .debug_aranges
                0x00000000000011e8       0x20 ./gen/../rust_opt/target/armv7a-none-eabi/release/libitron.a(compiler_builtins-70f608aea3cde50d.compiler_builtins.5a681add74c93a61-cgu.287.rcgu.o)
 .debug_aranges
                0x0000000000001208       0x20 ./gen/../rust_opt/target/armv7a-none-eabi/release/libitron.a(compiler_builtins-70f608aea3cde50d.compiler_builtins.5a681add74c93a61-cgu.300.rcgu.o)
 .debug_aranges
                0x0000000000001228       0x20 ./gen/../rust_opt/target/armv7a-none-eabi/release/libitron.a(compiler_builtins-70f608aea3cde50d.compiler_builtins.5a681add74c93a61-cgu.310.rcgu.o)
 .debug_aranges
                0x0000000000001248       0x20 ./gen/../rust_opt/target/armv7a-none-eabi/release/libitron.a(compiler_builtins-70f608aea3cde50d.compiler_builtins.5a681add74c93a61-cgu.355.rcgu.o)
 .debug_aranges
                0x0000000000001268       0x20 ./gen/../rust_opt/target/armv7a-none-eabi/release/libitron.a(compiler_builtins-70f608aea3cde50d.compiler_builtins.5a681add74c93a61-cgu.361.rcgu.o)
 .debug_aranges
                0x0000000000001288       0x20 ./gen/../rust_opt/target/armv7a-none-eabi/release/libitron.a(compiler_builtins-70f608aea3cde50d.compiler_builtins.5a681add74c93a61-cgu.365.rcgu.o)
 .debug_aranges
                0x00000000000012a8       0x20 ./gen/../rust_opt/target/armv7a-none-eabi/release/libitron.a(compiler_builtins-70f608aea3cde50d.compiler_builtins.5a681add74c93a61-cgu.375.rcgu.o)
 .debug_aranges
                0x00000000000012c8       0x20 ./gen/../rust_opt/target/armv7a-none-eabi/release/libitron.a(compiler_builtins-70f608aea3cde50d.compiler_builtins.5a681add74c93a61-cgu.393.rcgu.o)
 .debug_aranges
                0x00000000000012e8       0x20 ./gen/../rust_opt/target/armv7a-none-eabi/release/libitron.a(compiler_builtins-70f608aea3cde50d.compiler_builtins.5a681add74c93a61-cgu.395.rcgu.o)
 .debug_aranges
                0x0000000000001308       0x20 ./gen/../rust_opt/target/armv7a-none-eabi/release/libitron.a(63f8a0b8a638da8c-udivmodsi4.o)
 .debug_aranges
                0x0000000000001328       0x20 ./gen/../rust_opt/target/armv7a-none-eabi/release/libitron.a(63f8a0b8a638da8c-udivsi3.o)
 .debug_aranges
                0x0000000000001348       0x30 ./gen/../rust_opt/target/armv7a-none-eabi/release/libitron.a(compiler_builtins-70f608aea3cde50d.compiler_builtins.5a681add74c93a61-cgu.000.rcgu.o)
 .debug_aranges
                0x0000000000001378       0x30 ./gen/../rust_opt/target/armv7a-none-eabi/release/libitron.a(compiler_builtins-70f608aea3cde50d.compiler_builtins.5a681add74c93a61-cgu.004.rcgu.o)
 .debug_aranges
                0x00000000000013a8       0x40 ./gen/../rust_opt/target/armv7a-none-eabi/release/libitron.a(compiler_builtins-70f608aea3cde50d.compiler_builtins.5a681add74c93a61-cgu.009.rcgu.o)
 .debug_aranges
                0x00000000000013e8       0x60 ./gen/../rust_opt/target/armv7a-none-eabi/release/libitron.a(compiler_builtins-70f608aea3cde50d.compiler_builtins.5a681add74c93a61-cgu.019.rcgu.o)
 .debug_aranges
                0x0000000000001448       0x20 ./gen/../rust_opt/target/armv7a-none-eabi/release/libitron.a(compiler_builtins-70f608aea3cde50d.compiler_builtins.5a681add74c93a61-cgu.347.rcgu.o)
 .debug_aranges
                0x0000000000001468       0x28 ./gen/../rust_opt/target/armv7a-none-eabi/release/libitron.a(63f8a0b8a638da8c-aeabi_div0.o)
 .debug_aranges
                0x0000000000001490       0x28 ./gen/../rust_opt/target/armv7a-none-eabi/release/libitron.a(compiler_builtins-70f608aea3cde50d.compiler_builtins.5a681add74c93a61-cgu.010.rcgu.o)
 .debug_aranges
                0x00000000000014b8       0x20 /usr/lib/gcc/arm-none-eabi/10.3.1/../../../arm-none-eabi/lib/thumb/v7-a/nofp/libc.a(lib_a-memset.o)

.debug_pubnames
 *(.debug_pubnames)

.debug_info     0x0000000000000000    0x251cd
 *(.debug_info)
 .debug_info    0x0000000000000000    0x1f3e5 ./gen/../rust_opt/target/armv7a-none-eabi/release/libitron.a(core-d049573bc16596f9.core.5587a85061e7188a-cgu.0.rcgu.o)
 .debug_info    0x000000000001f3e5      0x26d ./gen/../rust_opt/target/armv7a-none-eabi/release/libitron.a(compiler_builtins-70f608aea3cde50d.compiler_builtins.5a681add74c93a61-cgu.162.rcgu.o)
 .debug_info    0x000000000001f652       0xb3 ./gen/../rust_opt/target/armv7a-none-eabi/release/libitron.a(compiler_builtins-70f608aea3cde50d.compiler_builtins.5a681add74c93a61-cgu.174.rcgu.o)
 .debug_info    0x000000000001f705       0x51 ./gen/../rust_opt/target/armv7a-none-eabi/release/libitron.a(compiler_builtins-70f608aea3cde50d.compiler_builtins.5a681add74c93a61-cgu.178.rcgu.o)
 .debug_info    0x000000000001f756      0x173 ./gen/../rust_opt/target/armv7a-none-eabi/release/libitron.a(compiler_builtins-70f608aea3cde50d.compiler_builtins.5a681add74c93a61-cgu.180.rcgu.o)
 .debug_info    0x000000000001f8c9      0x1a4 ./gen/../rust_opt/target/armv7a-none-eabi/release/libitron.a(compiler_builtins-70f608aea3cde50d.compiler_builtins.5a681add74c93a61-cgu.201.rcgu.o)
 .debug_info    0x000000000001fa6d      0x196 ./gen/../rust_opt/target/armv7a-none-eabi/release/libitron.a(compiler_builtins-70f608aea3cde50d.compiler_builtins.5a681add74c93a61-cgu.206.rcgu.o)
 .debug_info    0x000000000001fc03      0x340 ./gen/../rust_opt/target/armv7a-none-eabi/release/libitron.a(compiler_builtins-70f608aea3cde50d.compiler_builtins.5a681add74c93a61-cgu.210.rcgu.o)
 .debug_info    0x000000000001ff43       0x95 ./gen/../rust_opt/target/armv7a-none-eabi/release/libitron.a(compiler_builtins-70f608aea3cde50d.compiler_builtins.5a681add74c93a61-cgu.223.rcgu.o)
 .debug_info    0x000000000001ffd8       0xd1 ./gen/../rust_opt/target/armv7a-none-eabi/release/libitron.a(compiler_builtins-70f608aea3cde50d.compiler_builtins.5a681add74c93a61-cgu.253.rcgu.o)
 .debug_info    0x00000000000200a9      0x1a2 ./gen/../rust_opt/target/armv7a-none-eabi/release/libitron.a(compiler_builtins-70f608aea3cde50d.compiler_builtins.5a681add74c93a61-cgu.261.rcgu.o)
 .debug_info    0x000000000002024b       0x51 ./gen/../rust_opt/target/armv7a-none-eabi/release/libitron.a(compiler_builtins-70f608aea3cde50d.compiler_builtins.5a681add74c93a61-cgu.263.rcgu.o)
 .debug_info    0x000000000002029c      0x244 ./gen/../rust_opt/target/armv7a-none-eabi/release/libitron.a(compiler_builtins-70f608aea3cde50d.compiler_builtins.5a681add74c93a61-cgu.270.rcgu.o)
 .debug_info    0x00000000000204e0      0x157 ./gen/../rust_opt/target/armv7a-none-eabi/release/libitron.a(compiler_builtins-70f608aea3cde50d.compiler_builtins.5a681add74c93a61-cgu.283.rcgu.o)
 .debug_info    0x0000000000020637      0x186 ./gen/../rust_opt/target/armv7a-none-eabi/release/libitron.a(compiler_builtins-70f608aea3cde50d.compiler_builtins.5a681add74c93a61-cgu.287.rcgu.o)
 .debug_info    0x00000000000207bd      0x316 ./gen/../rust_opt/target/armv7a-none-eabi/release/libitron.a(compiler_builtins-70f608aea3cde50d.compiler_builtins.5a681add74c93a61-cgu.300.rcgu.o)
 .debug_info    0x0000000000020ad3       0xb1 ./gen/../rust_opt/target/armv7a-none-eabi/release/libitron.a(compiler_builtins-70f608aea3cde50d.compiler_builtins.5a681add74c93a61-cgu.310.rcgu.o)
 .debug_info    0x0000000000020b84       0x51 ./gen/../rust_opt/target/armv7a-none-eabi/release/libitron.a(compiler_builtins-70f608aea3cde50d.compiler_builtins.5a681add74c93a61-cgu.355.rcgu.o)
 .debug_info    0x0000000000020bd5      0x1dc ./gen/../rust_opt/target/armv7a-none-eabi/release/libitron.a(compiler_builtins-70f608aea3cde50d.compiler_builtins.5a681add74c93a61-cgu.361.rcgu.o)
 .debug_info    0x0000000000020db1      0x242 ./gen/../rust_opt/target/armv7a-none-eabi/release/libitron.a(compiler_builtins-70f608aea3cde50d.compiler_builtins.5a681add74c93a61-cgu.365.rcgu.o)
 .debug_info    0x0000000000020ff3      0x1a4 ./gen/../rust_opt/target/armv7a-none-eabi/release/libitron.a(compiler_builtins-70f608aea3cde50d.compiler_builtins.5a681add74c93a61-cgu.375.rcgu.o)
 .debug_info    0x0000000000021197       0x51 ./gen/../rust_opt/target/armv7a-none-eabi/release/libitron.a(compiler_builtins-70f608aea3cde50d.compiler_builtins.5a681add74c93a61-cgu.393.rcgu.o)
 .debug_info    0x00000000000211e8      0x287 ./gen/../rust_opt/target/armv7a-none-eabi/release/libitron.a(compiler_builtins-70f608aea3cde50d.compiler_builtins.5a681add74c93a61-cgu.395.rcgu.o)
 .debug_info    0x000000000002146f       0x26 ./gen/../rust_opt/target/armv7a-none-eabi/release/libitron.a(63f8a0b8a638da8c-udivmodsi4.o)
 .debug_info    0x0000000000021495       0x26 ./gen/../rust_opt/target/armv7a-none-eabi/release/libitron.a(63f8a0b8a638da8c-udivsi3.o)
 .debug_info    0x00000000000214bb     0x1700 ./gen/../rust_opt/target/armv7a-none-eabi/release/libitron.a(compiler_builtins-70f608aea3cde50d.compiler_builtins.5a681add74c93a61-cgu.000.rcgu.o)
 .debug_info    0x0000000000022bbb      0xf8f ./gen/../rust_opt/target/armv7a-none-eabi/release/libitron.a(compiler_builtins-70f608aea3cde50d.compiler_builtins.5a681add74c93a61-cgu.004.rcgu.o)
 .debug_info    0x0000000000023b4a      0xbd0 ./gen/../rust_opt/target/armv7a-none-eabi/release/libitron.a(compiler_builtins-70f608aea3cde50d.compiler_builtins.5a681add74c93a61-cgu.009.rcgu.o)
 .debug_info    0x000000000002471a      0x364 ./gen/../rust_opt/target/armv7a-none-eabi/release/libitron.a(compiler_builtins-70f608aea3cde50d.compiler_builtins.5a681add74c93a61-cgu.019.rcgu.o)
 .debug_info    0x0000000000024a7e       0xa1 ./gen/../rust_opt/target/armv7a-none-eabi/release/libitron.a(compiler_builtins-70f608aea3cde50d.compiler_builtins.5a681add74c93a61-cgu.347.rcgu.o)
 .debug_info    0x0000000000024b1f       0xe2 ./gen/../rust_opt/target/armv7a-none-eabi/release/libitron.a(63f8a0b8a638da8c-aeabi_div0.o)
 .debug_info    0x0000000000024c01      0x495 ./gen/../rust_opt/target/armv7a-none-eabi/release/libitron.a(compiler_builtins-70f608aea3cde50d.compiler_builtins.5a681add74c93a61-cgu.010.rcgu.o)
 .debug_info    0x0000000000025096      0x137 /usr/lib/gcc/arm-none-eabi/10.3.1/../../../arm-none-eabi/lib/thumb/v7-a/nofp/libc.a(lib_a-memset.o)

.debug_abbrev   0x0000000000000000     0x1716
 *(.debug_abbrev)
 .debug_abbrev  0x0000000000000000      0x2fb ./gen/../rust_opt/target/armv7a-none-eabi/release/libitron.a(core-d049573bc16596f9.core.5587a85061e7188a-cgu.0.rcgu.o)
 .debug_abbrev  0x00000000000002fb       0xc5 ./gen/../rust_opt/target/armv7a-none-eabi/release/libitron.a(compiler_builtins-70f608aea3cde50d.compiler_builtins.5a681add74c93a61-cgu.162.rcgu.o)
 .debug_abbrev  0x00000000000003c0       0x70 ./gen/../rust_opt/target/armv7a-none-eabi/release/libitron.a(compiler_builtins-70f608aea3cde50d.compiler_builtins.5a681add74c93a61-cgu.174.rcgu.o)
 .debug_abbrev  0x0000000000000430       0x2e ./gen/../rust_opt/target/armv7a-none-eabi/release/libitron.a(compiler_builtins-70f608aea3cde50d.compiler_builtins.5a681add74c93a61-cgu.178.rcgu.o)
 .debug_abbrev  0x000000000000045e       0x9b ./gen/../rust_opt/target/armv7a-none-eabi/release/libitron.a(compiler_builtins-70f608aea3cde50d.compiler_builtins.5a681add74c93a61-cgu.180.rcgu.o)
 .debug_abbrev  0x00000000000004f9       0xa3 ./gen/../rust_opt/target/armv7a-none-eabi/release/libitron.a(compiler_builtins-70f608aea3cde50d.compiler_builtins.5a681add74c93a61-cgu.201.rcgu.o)
 .debug_abbrev  0x000000000000059c       0x9b ./gen/../rust_opt/target/armv7a-none-eabi/release/libitron.a(compiler_builtins-70f608aea3cde50d.compiler_builtins.5a681add74c93a61-cgu.206.rcgu.o)
 .debug_abbrev  0x0000000000000637       0xaa ./gen/../rust_opt/target/armv7a-none-eabi/release/libitron.a(compiler_builtins-70f608aea3cde50d.compiler_builtins.5a681add74c93a61-cgu.210.rcgu.o)
 .debug_abbrev  0x00000000000006e1       0x5f ./gen/../rust_opt/target/armv7a-none-eabi/release/libitron.a(compiler_builtins-70f608aea3cde50d.compiler_builtins.5a681add74c93a61-cgu.223.rcgu.o)
 .debug_abbrev  0x0000000000000740       0x81 ./gen/../rust_opt/target/armv7a-none-eabi/release/libitron.a(compiler_builtins-70f608aea3cde50d.compiler_builtins.5a681add74c93a61-cgu.253.rcgu.o)
 .debug_abbrev  0x00000000000007c1       0x9f ./gen/../rust_opt/target/armv7a-none-eabi/release/libitron.a(compiler_builtins-70f608aea3cde50d.compiler_builtins.5a681add74c93a61-cgu.261.rcgu.o)
 .debug_abbrev  0x0000000000000860       0x2e ./gen/../rust_opt/target/armv7a-none-eabi/release/libitron.a(compiler_builtins-70f608aea3cde50d.compiler_builtins.5a681add74c93a61-cgu.263.rcgu.o)
 .debug_abbrev  0x000000000000088e       0xaf ./gen/../rust_opt/target/armv7a-none-eabi/release/libitron.a(compiler_builtins-70f608aea3cde50d.compiler_builtins.5a681add74c93a61-cgu.270.rcgu.o)
 .debug_abbrev  0x000000000000093d       0x9b ./gen/../rust_opt/target/armv7a-none-eabi/release/libitron.a(compiler_builtins-70f608aea3cde50d.compiler_builtins.5a681add74c93a61-cgu.283.rcgu.o)
 .debug_abbrev  0x00000000000009d8       0x9f ./gen/../rust_opt/target/armv7a-none-eabi/release/libitron.a(compiler_builtins-70f608aea3cde50d.compiler_builtins.5a681add74c93a61-cgu.287.rcgu.o)
 .debug_abbrev  0x0000000000000a77       0xcc ./gen/../rust_opt/target/armv7a-none-eabi/release/libitron.a(compiler_builtins-70f608aea3cde50d.compiler_builtins.5a681add74c93a61-cgu.300.rcgu.o)
 .debug_abbrev  0x0000000000000b43       0x7b ./gen/../rust_opt/target/armv7a-none-eabi/release/libitron.a(compiler_builtins-70f608aea3cde50d.compiler_builtins.5a681add74c93a61-cgu.310.rcgu.o)
 .debug_abbrev  0x0000000000000bbe       0x2e ./gen/../rust_opt/target/armv7a-none-eabi/release/libitron.a(compiler_builtins-70f608aea3cde50d.compiler_builtins.5a681add74c93a61-cgu.355.rcgu.o)
 .debug_abbrev  0x0000000000000bec       0x9b ./gen/../rust_opt/target/armv7a-none-eabi/release/libitron.a(compiler_builtins-70f608aea3cde50d.compiler_builtins.5a681add74c93a61-cgu.361.rcgu.o)
 .debug_abbrev  0x0000000000000c87       0xe0 ./gen/../rust_opt/target/armv7a-none-eabi/release/libitron.a(compiler_builtins-70f608aea3cde50d.compiler_builtins.5a681add74c93a61-cgu.365.rcgu.o)
 .debug_abbrev  0x0000000000000d67       0xa3 ./gen/../rust_opt/target/armv7a-none-eabi/release/libitron.a(compiler_builtins-70f608aea3cde50d.compiler_builtins.5a681add74c93a61-cgu.375.rcgu.o)
 .debug_abbrev  0x0000000000000e0a       0x2e ./gen/../rust_opt/target/armv7a-none-eabi/release/libitron.a(compiler_builtins-70f608aea3cde50d.compiler_builtins.5a681add74c93a61-cgu.393.rcgu.o)
 .debug_abbrev  0x0000000000000e38       0xc5 ./gen/../rust_opt/target/armv7a-none-eabi/release/libitron.a(compiler_builtins-70f608aea3cde50d.compiler_builtins.5a681add74c93a61-cgu.395.rcgu.o)
 .debug_abbrev  0x0000000000000efd       0x14 ./gen/../rust_opt/target/armv7a-none-eabi/release/libitron.a(63f8a0b8a638da8c-udivmodsi4.o)
 .debug_abbrev  0x0000000000000f11       0x14 ./gen/../rust_opt/target/armv7a-none-eabi/release/libitron.a(63f8a0b8a638da8c-udivsi3.o)
 .debug_abbrev  0x0000000000000f25      0x19d ./gen/../rust_opt/target/armv7a-none-eabi/release/libitron.a(compiler_builtins-70f608aea3cde50d.compiler_builtins.5a681add74c93a61-cgu.000.rcgu.o)
 .debug_abbrev  0x00000000000010c2      0x18e ./gen/../rust_opt/target/armv7a-none-eabi/release/libitron.a(compiler_builtins-70f608aea3cde50d.compiler_builtins.5a681add74c93a61-cgu.004.rcgu.o)
 .debug_abbrev  0x0000000000001250      0x142 ./gen/../rust_opt/target/armv7a-none-eabi/release/libitron.a(compiler_builtins-70f608aea3cde50d.compiler_builtins.5a681add74c93a61-cgu.009.rcgu.o)
 .debug_abbrev  0x0000000000001392      0x13b ./gen/../rust_opt/target/armv7a-none-eabi/release/libitron.a(compiler_builtins-70f608aea3cde50d.compiler_builtins.5a681add74c93a61-cgu.019.rcgu.o)
 .debug_abbrev  0x00000000000014cd       0x5f ./gen/../rust_opt/target/armv7a-none-eabi/release/libitron.a(compiler_builtins-70f608aea3cde50d.compiler_builtins.5a681add74c93a61-cgu.347.rcgu.o)
 .debug_abbrev  0x000000000000152c       0x75 ./gen/../rust_opt/target/armv7a-none-eabi/release/libitron.a(63f8a0b8a638da8c-aeabi_div0.o)
 .debug_abbrev  0x00000000000015a1       0xc1 ./gen/../rust_opt/target/armv7a-none-eabi/release/libitron.a(compiler_builtins-70f608aea3cde50d.compiler_builtins.5a681add74c93a61-cgu.010.rcgu.o)
 .debug_abbrev  0x0000000000001662       0xb4 /usr/lib/gcc/arm-none-eabi/10.3.1/../../../arm-none-eabi/lib/thumb/v7-a/nofp/libc.a(lib_a-memset.o)

.debug_line     0x0000000000000000    0x1e4f3
 *(.debug_line)
 .debug_line    0x0000000000000000    0x18a11 ./gen/../rust_opt/target/armv7a-none-eabi/release/libitron.a(core-d049573bc16596f9.core.5587a85061e7188a-cgu.0.rcgu.o)
 .debug_line    0x0000000000018a11      0x36a ./gen/../rust_opt/target/armv7a-none-eabi/release/libitron.a(compiler_builtins-70f608aea3cde50d.compiler_builtins.5a681add74c93a61-cgu.162.rcgu.o)
 .debug_line    0x0000000000018d7b       0x97 ./gen/../rust_opt/target/armv7a-none-eabi/release/libitron.a(compiler_builtins-70f608aea3cde50d.compiler_builtins.5a681add74c93a61-cgu.174.rcgu.o)
 .debug_line    0x0000000000018e12       0x44 ./gen/../rust_opt/target/armv7a-none-eabi/release/libitron.a(compiler_builtins-70f608aea3cde50d.compiler_builtins.5a681add74c93a61-cgu.178.rcgu.o)
 .debug_line    0x0000000000018e56      0x22e ./gen/../rust_opt/target/armv7a-none-eabi/release/libitron.a(compiler_builtins-70f608aea3cde50d.compiler_builtins.5a681add74c93a61-cgu.180.rcgu.o)
 .debug_line    0x0000000000019084      0x1cf ./gen/../rust_opt/target/armv7a-none-eabi/release/libitron.a(compiler_builtins-70f608aea3cde50d.compiler_builtins.5a681add74c93a61-cgu.201.rcgu.o)
 .debug_line    0x0000000000019253      0x249 ./gen/../rust_opt/target/armv7a-none-eabi/release/libitron.a(compiler_builtins-70f608aea3cde50d.compiler_builtins.5a681add74c93a61-cgu.206.rcgu.o)
 .debug_line    0x000000000001949c      0x420 ./gen/../rust_opt/target/armv7a-none-eabi/release/libitron.a(compiler_builtins-70f608aea3cde50d.compiler_builtins.5a681add74c93a61-cgu.210.rcgu.o)
 .debug_line    0x00000000000198bc       0x82 ./gen/../rust_opt/target/armv7a-none-eabi/release/libitron.a(compiler_builtins-70f608aea3cde50d.compiler_builtins.5a681add74c93a61-cgu.223.rcgu.o)
 .debug_line    0x000000000001993e       0x97 ./gen/../rust_opt/target/armv7a-none-eabi/release/libitron.a(compiler_builtins-70f608aea3cde50d.compiler_builtins.5a681add74c93a61-cgu.253.rcgu.o)
 .debug_line    0x00000000000199d5      0x21d ./gen/../rust_opt/target/armv7a-none-eabi/release/libitron.a(compiler_builtins-70f608aea3cde50d.compiler_builtins.5a681add74c93a61-cgu.261.rcgu.o)
 .debug_line    0x0000000000019bf2       0x44 ./gen/../rust_opt/target/armv7a-none-eabi/release/libitron.a(compiler_builtins-70f608aea3cde50d.compiler_builtins.5a681add74c93a61-cgu.263.rcgu.o)
 .debug_line    0x0000000000019c36      0x269 ./gen/../rust_opt/target/armv7a-none-eabi/release/libitron.a(compiler_builtins-70f608aea3cde50d.compiler_builtins.5a681add74c93a61-cgu.270.rcgu.o)
 .debug_line    0x0000000000019e9f      0x216 ./gen/../rust_opt/target/armv7a-none-eabi/release/libitron.a(compiler_builtins-70f608aea3cde50d.compiler_builtins.5a681add74c93a61-cgu.283.rcgu.o)
 .debug_line    0x000000000001a0b5      0x213 ./gen/../rust_opt/target/armv7a-none-eabi/release/libitron.a(compiler_builtins-70f608aea3cde50d.compiler_builtins.5a681add74c93a61-cgu.287.rcgu.o)
 .debug_line    0x000000000001a2c8      0x416 ./gen/../rust_opt/target/armv7a-none-eabi/release/libitron.a(compiler_builtins-70f608aea3cde50d.compiler_builtins.5a681add74c93a61-cgu.300.rcgu.o)
 .debug_line    0x000000000001a6de       0xd9 ./gen/../rust_opt/target/armv7a-none-eabi/release/libitron.a(compiler_builtins-70f608aea3cde50d.compiler_builtins.5a681add74c93a61-cgu.310.rcgu.o)
 .debug_line    0x000000000001a7b7       0x44 ./gen/../rust_opt/target/armv7a-none-eabi/release/libitron.a(compiler_builtins-70f608aea3cde50d.compiler_builtins.5a681add74c93a61-cgu.355.rcgu.o)
 .debug_line    0x000000000001a7fb      0x249 ./gen/../rust_opt/target/armv7a-none-eabi/release/libitron.a(compiler_builtins-70f608aea3cde50d.compiler_builtins.5a681add74c93a61-cgu.361.rcgu.o)
 .debug_line    0x000000000001aa44      0x27b ./gen/../rust_opt/target/armv7a-none-eabi/release/libitron.a(compiler_builtins-70f608aea3cde50d.compiler_builtins.5a681add74c93a61-cgu.365.rcgu.o)
 .debug_line    0x000000000001acbf      0x1cf ./gen/../rust_opt/target/armv7a-none-eabi/release/libitron.a(compiler_builtins-70f608aea3cde50d.compiler_builtins.5a681add74c93a61-cgu.375.rcgu.o)
 .debug_line    0x000000000001ae8e       0x44 ./gen/../rust_opt/target/armv7a-none-eabi/release/libitron.a(compiler_builtins-70f608aea3cde50d.compiler_builtins.5a681add74c93a61-cgu.393.rcgu.o)
 .debug_line    0x000000000001aed2      0x370 ./gen/../rust_opt/target/armv7a-none-eabi/release/libitron.a(compiler_builtins-70f608aea3cde50d.compiler_builtins.5a681add74c93a61-cgu.395.rcgu.o)
 .debug_line    0x000000000001b242       0xaf ./gen/../rust_opt/target/armv7a-none-eabi/release/libitron.a(63f8a0b8a638da8c-udivmodsi4.o)
 .debug_line    0x000000000001b2f1       0xab ./gen/../rust_opt/target/armv7a-none-eabi/release/libitron.a(63f8a0b8a638da8c-udivsi3.o)
 .debug_line    0x000000000001b39c      0xf93 ./gen/../rust_opt/target/armv7a-none-eabi/release/libitron.a(compiler_builtins-70f608aea3cde50d.compiler_builtins.5a681add74c93a61-cgu.000.rcgu.o)
 .debug_line    0x000000000001c32f      0xc1b ./gen/../rust_opt/target/armv7a-none-eabi/release/libitron.a(compiler_builtins-70f608aea3cde50d.compiler_builtins.5a681add74c93a61-cgu.004.rcgu.o)
 .debug_line    0x000000000001cf4a      0x7e3 ./gen/../rust_opt/target/armv7a-none-eabi/release/libitron.a(compiler_builtins-70f608aea3cde50d.compiler_builtins.5a681add74c93a61-cgu.009.rcgu.o)
 .debug_line    0x000000000001d72d      0x599 ./gen/../rust_opt/target/armv7a-none-eabi/release/libitron.a(compiler_builtins-70f608aea3cde50d.compiler_builtins.5a681add74c93a61-cgu.019.rcgu.o)
 .debug_line    0x000000000001dcc6       0xad ./gen/../rust_opt/target/armv7a-none-eabi/release/libitron.a(compiler_builtins-70f608aea3cde50d.compiler_builtins.5a681add74c93a61-cgu.347.rcgu.o)
 .debug_line    0x000000000001dd73       0x70 ./gen/../rust_opt/target/armv7a-none-eabi/release/libitron.a(63f8a0b8a638da8c-aeabi_div0.o)
 .debug_line    0x000000000001dde3      0x54f ./gen/../rust_opt/target/armv7a-none-eabi/release/libitron.a(compiler_builtins-70f608aea3cde50d.compiler_builtins.5a681add74c93a61-cgu.010.rcgu.o)
 .debug_line    0x000000000001e332      0x1c1 /usr/lib/gcc/arm-none-eabi/10.3.1/../../../arm-none-eabi/lib/thumb/v7-a/nofp/libc.a(lib_a-memset.o)

.debug_frame    0x0000000000000000     0x4afc
 *(.debug_frame)
 .debug_frame   0x0000000000000000     0x42a8 ./gen/../rust_opt/target/armv7a-none-eabi/release/libitron.a(core-d049573bc16596f9.core.5587a85061e7188a-cgu.0.rcgu.o)
 .debug_frame   0x00000000000042a8       0x30 ./gen/../rust_opt/target/armv7a-none-eabi/release/libitron.a(compiler_builtins-70f608aea3cde50d.compiler_builtins.5a681add74c93a61-cgu.162.rcgu.o)
 .debug_frame   0x00000000000042d8       0x30 ./gen/../rust_opt/target/armv7a-none-eabi/release/libitron.a(compiler_builtins-70f608aea3cde50d.compiler_builtins.5a681add74c93a61-cgu.174.rcgu.o)
 .debug_frame   0x0000000000004308       0x30 ./gen/../rust_opt/target/armv7a-none-eabi/release/libitron.a(compiler_builtins-70f608aea3cde50d.compiler_builtins.5a681add74c93a61-cgu.178.rcgu.o)
 .debug_frame   0x0000000000004338       0x30 ./gen/../rust_opt/target/armv7a-none-eabi/release/libitron.a(compiler_builtins-70f608aea3cde50d.compiler_builtins.5a681add74c93a61-cgu.180.rcgu.o)
 .debug_frame   0x0000000000004368       0x30 ./gen/../rust_opt/target/armv7a-none-eabi/release/libitron.a(compiler_builtins-70f608aea3cde50d.compiler_builtins.5a681add74c93a61-cgu.201.rcgu.o)
 .debug_frame   0x0000000000004398       0x30 ./gen/../rust_opt/target/armv7a-none-eabi/release/libitron.a(compiler_builtins-70f608aea3cde50d.compiler_builtins.5a681add74c93a61-cgu.206.rcgu.o)
 .debug_frame   0x00000000000043c8       0x30 ./gen/../rust_opt/target/armv7a-none-eabi/release/libitron.a(compiler_builtins-70f608aea3cde50d.compiler_builtins.5a681add74c93a61-cgu.210.rcgu.o)
 .debug_frame   0x00000000000043f8       0x30 ./gen/../rust_opt/target/armv7a-none-eabi/release/libitron.a(compiler_builtins-70f608aea3cde50d.compiler_builtins.5a681add74c93a61-cgu.223.rcgu.o)
 .debug_frame   0x0000000000004428       0x30 ./gen/../rust_opt/target/armv7a-none-eabi/release/libitron.a(compiler_builtins-70f608aea3cde50d.compiler_builtins.5a681add74c93a61-cgu.253.rcgu.o)
 .debug_frame   0x0000000000004458       0x38 ./gen/../rust_opt/target/armv7a-none-eabi/release/libitron.a(compiler_builtins-70f608aea3cde50d.compiler_builtins.5a681add74c93a61-cgu.261.rcgu.o)
 .debug_frame   0x0000000000004490       0x30 ./gen/../rust_opt/target/armv7a-none-eabi/release/libitron.a(compiler_builtins-70f608aea3cde50d.compiler_builtins.5a681add74c93a61-cgu.263.rcgu.o)
 .debug_frame   0x00000000000044c0       0x30 ./gen/../rust_opt/target/armv7a-none-eabi/release/libitron.a(compiler_builtins-70f608aea3cde50d.compiler_builtins.5a681add74c93a61-cgu.270.rcgu.o)
 .debug_frame   0x00000000000044f0       0x30 ./gen/../rust_opt/target/armv7a-none-eabi/release/libitron.a(compiler_builtins-70f608aea3cde50d.compiler_builtins.5a681add74c93a61-cgu.283.rcgu.o)
 .debug_frame   0x0000000000004520       0x38 ./gen/../rust_opt/target/armv7a-none-eabi/release/libitron.a(compiler_builtins-70f608aea3cde50d.compiler_builtins.5a681add74c93a61-cgu.287.rcgu.o)
 .debug_frame   0x0000000000004558       0x30 ./gen/../rust_opt/target/armv7a-none-eabi/release/libitron.a(compiler_builtins-70f608aea3cde50d.compiler_builtins.5a681add74c93a61-cgu.300.rcgu.o)
 .debug_frame   0x0000000000004588       0x30 ./gen/../rust_opt/target/armv7a-none-eabi/release/libitron.a(compiler_builtins-70f608aea3cde50d.compiler_builtins.5a681add74c93a61-cgu.310.rcgu.o)
 .debug_frame   0x00000000000045b8       0x30 ./gen/../rust_opt/target/armv7a-none-eabi/release/libitron.a(compiler_builtins-70f608aea3cde50d.compiler_builtins.5a681add74c93a61-cgu.355.rcgu.o)
 .debug_frame   0x00000000000045e8       0x38 ./gen/../rust_opt/target/armv7a-none-eabi/release/libitron.a(compiler_builtins-70f608aea3cde50d.compiler_builtins.5a681add74c93a61-cgu.361.rcgu.o)
 .debug_frame   0x0000000000004620       0x34 ./gen/../rust_opt/target/armv7a-none-eabi/release/libitron.a(compiler_builtins-70f608aea3cde50d.compiler_builtins.5a681add74c93a61-cgu.365.rcgu.o)
 .debug_frame   0x0000000000004654       0x30 ./gen/../rust_opt/target/armv7a-none-eabi/release/libitron.a(compiler_builtins-70f608aea3cde50d.compiler_builtins.5a681add74c93a61-cgu.375.rcgu.o)
 .debug_frame   0x0000000000004684       0x30 ./gen/../rust_opt/target/armv7a-none-eabi/release/libitron.a(compiler_builtins-70f608aea3cde50d.compiler_builtins.5a681add74c93a61-cgu.393.rcgu.o)
 .debug_frame   0x00000000000046b4       0x30 ./gen/../rust_opt/target/armv7a-none-eabi/release/libitron.a(compiler_builtins-70f608aea3cde50d.compiler_builtins.5a681add74c93a61-cgu.395.rcgu.o)
 .debug_frame   0x00000000000046e4       0x90 ./gen/../rust_opt/target/armv7a-none-eabi/release/libitron.a(compiler_builtins-70f608aea3cde50d.compiler_builtins.5a681add74c93a61-cgu.000.rcgu.o)
 .debug_frame   0x0000000000004774       0x90 ./gen/../rust_opt/target/armv7a-none-eabi/release/libitron.a(compiler_builtins-70f608aea3cde50d.compiler_builtins.5a681add74c93a61-cgu.004.rcgu.o)
 .debug_frame   0x0000000000004804       0xc4 ./gen/../rust_opt/target/armv7a-none-eabi/release/libitron.a(compiler_builtins-70f608aea3cde50d.compiler_builtins.5a681add74c93a61-cgu.009.rcgu.o)
 .debug_frame   0x00000000000048c8      0x138 ./gen/../rust_opt/target/armv7a-none-eabi/release/libitron.a(compiler_builtins-70f608aea3cde50d.compiler_builtins.5a681add74c93a61-cgu.019.rcgu.o)
 .debug_frame   0x0000000000004a00       0x34 ./gen/../rust_opt/target/armv7a-none-eabi/release/libitron.a(compiler_builtins-70f608aea3cde50d.compiler_builtins.5a681add74c93a61-cgu.347.rcgu.o)
 .debug_frame   0x0000000000004a34       0x30 ./gen/../rust_opt/target/armv7a-none-eabi/release/libitron.a(63f8a0b8a638da8c-aeabi_div0.o)
 .debug_frame   0x0000000000004a64       0x6c ./gen/../rust_opt/target/armv7a-none-eabi/release/libitron.a(compiler_builtins-70f608aea3cde50d.compiler_builtins.5a681add74c93a61-cgu.010.rcgu.o)
 .debug_frame   0x0000000000004ad0       0x2c /usr/lib/gcc/arm-none-eabi/10.3.1/../../../arm-none-eabi/lib/thumb/v7-a/nofp/libc.a(lib_a-memset.o)

.debug_str      0x0000000000000000    0x3fa1b
 *(.debug_str)
 .debug_str     0x0000000000000000    0x3941a ./gen/../rust_opt/target/armv7a-none-eabi/release/libitron.a(core-d049573bc16596f9.core.5587a85061e7188a-cgu.0.rcgu.o)
                                      0x39839 (size before relaxing)
 .debug_str     0x000000000003941a      0x43c ./gen/../rust_opt/target/armv7a-none-eabi/release/libitron.a(compiler_builtins-70f608aea3cde50d.compiler_builtins.5a681add74c93a61-cgu.162.rcgu.o)
                                        0x51d (size before relaxing)
 .debug_str     0x0000000000039856       0xfb ./gen/../rust_opt/target/armv7a-none-eabi/release/libitron.a(compiler_builtins-70f608aea3cde50d.compiler_builtins.5a681add74c93a61-cgu.174.rcgu.o)
                                        0x1d4 (size before relaxing)
 .debug_str     0x0000000000039951       0x6a ./gen/../rust_opt/target/armv7a-none-eabi/release/libitron.a(compiler_builtins-70f608aea3cde50d.compiler_builtins.5a681add74c93a61-cgu.178.rcgu.o)
                                         0xec (size before relaxing)
 .debug_str     0x00000000000399bb      0x2fc ./gen/../rust_opt/target/armv7a-none-eabi/release/libitron.a(compiler_builtins-70f608aea3cde50d.compiler_builtins.5a681add74c93a61-cgu.180.rcgu.o)
                                        0x3b9 (size before relaxing)
 .debug_str     0x0000000000039cb7       0xfd ./gen/../rust_opt/target/armv7a-none-eabi/release/libitron.a(compiler_builtins-70f608aea3cde50d.compiler_builtins.5a681add74c93a61-cgu.201.rcgu.o)
                                        0x463 (size before relaxing)
 .debug_str     0x0000000000039db4      0x143 ./gen/../rust_opt/target/armv7a-none-eabi/release/libitron.a(compiler_builtins-70f608aea3cde50d.compiler_builtins.5a681add74c93a61-cgu.206.rcgu.o)
                                        0x416 (size before relaxing)
 .debug_str     0x0000000000039ef7      0x506 ./gen/../rust_opt/target/armv7a-none-eabi/release/libitron.a(compiler_builtins-70f608aea3cde50d.compiler_builtins.5a681add74c93a61-cgu.210.rcgu.o)
                                        0x6c8 (size before relaxing)
 .debug_str     0x000000000003a3fd       0x5d ./gen/../rust_opt/target/armv7a-none-eabi/release/libitron.a(compiler_builtins-70f608aea3cde50d.compiler_builtins.5a681add74c93a61-cgu.223.rcgu.o)
                                        0x184 (size before relaxing)
 .debug_str     0x000000000003a45a       0xad ./gen/../rust_opt/target/armv7a-none-eabi/release/libitron.a(compiler_builtins-70f608aea3cde50d.compiler_builtins.5a681add74c93a61-cgu.253.rcgu.o)
                                        0x224 (size before relaxing)
 .debug_str     0x000000000003a507      0x2ba ./gen/../rust_opt/target/armv7a-none-eabi/release/libitron.a(compiler_builtins-70f608aea3cde50d.compiler_builtins.5a681add74c93a61-cgu.261.rcgu.o)
                                        0x426 (size before relaxing)
 .debug_str     0x000000000003a7c1       0x6a ./gen/../rust_opt/target/armv7a-none-eabi/release/libitron.a(compiler_builtins-70f608aea3cde50d.compiler_builtins.5a681add74c93a61-cgu.263.rcgu.o)
                                         0xec (size before relaxing)
 .debug_str     0x000000000003a82b      0x3cb ./gen/../rust_opt/target/armv7a-none-eabi/release/libitron.a(compiler_builtins-70f608aea3cde50d.compiler_builtins.5a681add74c93a61-cgu.270.rcgu.o)
                                        0x5a9 (size before relaxing)
 .debug_str     0x000000000003abf6      0x158 ./gen/../rust_opt/target/armv7a-none-eabi/release/libitron.a(compiler_builtins-70f608aea3cde50d.compiler_builtins.5a681add74c93a61-cgu.283.rcgu.o)
                                        0x356 (size before relaxing)
 .debug_str     0x000000000003ad4e      0x158 ./gen/../rust_opt/target/armv7a-none-eabi/release/libitron.a(compiler_builtins-70f608aea3cde50d.compiler_builtins.5a681add74c93a61-cgu.287.rcgu.o)
                                        0x3c6 (size before relaxing)
 .debug_str     0x000000000003aea6      0x62a ./gen/../rust_opt/target/armv7a-none-eabi/release/libitron.a(compiler_builtins-70f608aea3cde50d.compiler_builtins.5a681add74c93a61-cgu.300.rcgu.o)
                                        0x803 (size before relaxing)
 .debug_str     0x000000000003b4d0       0xec ./gen/../rust_opt/target/armv7a-none-eabi/release/libitron.a(compiler_builtins-70f608aea3cde50d.compiler_builtins.5a681add74c93a61-cgu.310.rcgu.o)
                                        0x1cb (size before relaxing)
 .debug_str     0x000000000003b5bc       0x6a ./gen/../rust_opt/target/armv7a-none-eabi/release/libitron.a(compiler_builtins-70f608aea3cde50d.compiler_builtins.5a681add74c93a61-cgu.355.rcgu.o)
                                         0xec (size before relaxing)
 .debug_str     0x000000000003b626       0xf6 ./gen/../rust_opt/target/armv7a-none-eabi/release/libitron.a(compiler_builtins-70f608aea3cde50d.compiler_builtins.5a681add74c93a61-cgu.361.rcgu.o)
                                        0x4f2 (size before relaxing)
 .debug_str     0x000000000003b71c      0x2ed ./gen/../rust_opt/target/armv7a-none-eabi/release/libitron.a(compiler_builtins-70f608aea3cde50d.compiler_builtins.5a681add74c93a61-cgu.365.rcgu.o)
                                        0x59a (size before relaxing)
 .debug_str     0x000000000003ba09       0xad ./gen/../rust_opt/target/armv7a-none-eabi/release/libitron.a(compiler_builtins-70f608aea3cde50d.compiler_builtins.5a681add74c93a61-cgu.375.rcgu.o)
                                        0x463 (size before relaxing)
 .debug_str     0x000000000003bab6       0x6a ./gen/../rust_opt/target/armv7a-none-eabi/release/libitron.a(compiler_builtins-70f608aea3cde50d.compiler_builtins.5a681add74c93a61-cgu.393.rcgu.o)
                                         0xec (size before relaxing)
 .debug_str     0x000000000003bb20       0xab ./gen/../rust_opt/target/armv7a-none-eabi/release/libitron.a(compiler_builtins-70f608aea3cde50d.compiler_builtins.5a681add74c93a61-cgu.395.rcgu.o)
                                        0x56b (size before relaxing)
 .debug_str     0x000000000003bbcb       0xa0 ./gen/../rust_opt/target/armv7a-none-eabi/release/libitron.a(63f8a0b8a638da8c-udivmodsi4.o)
 .debug_str     0x000000000003bc6b       0x42 ./gen/../rust_opt/target/armv7a-none-eabi/release/libitron.a(63f8a0b8a638da8c-udivsi3.o)
                                         0x9d (size before relaxing)
 .debug_str     0x000000000003bcad     0x1e98 ./gen/../rust_opt/target/armv7a-none-eabi/release/libitron.a(compiler_builtins-70f608aea3cde50d.compiler_builtins.5a681add74c93a61-cgu.000.rcgu.o)
                                       0x28f2 (size before relaxing)
 .debug_str     0x000000000003db45      0x58e ./gen/../rust_opt/target/armv7a-none-eabi/release/libitron.a(compiler_builtins-70f608aea3cde50d.compiler_builtins.5a681add74c93a61-cgu.004.rcgu.o)
                                       0x1c8f (size before relaxing)
 .debug_str     0x000000000003e0d3      0xae5 ./gen/../rust_opt/target/armv7a-none-eabi/release/libitron.a(compiler_builtins-70f608aea3cde50d.compiler_builtins.5a681add74c93a61-cgu.009.rcgu.o)
                                        0xf9f (size before relaxing)
 .debug_str     0x000000000003ebb8      0x6b6 ./gen/../rust_opt/target/armv7a-none-eabi/release/libitron.a(compiler_builtins-70f608aea3cde50d.compiler_builtins.5a681add74c93a61-cgu.019.rcgu.o)
                                        0xad4 (size before relaxing)
 .debug_str     0x000000000003f26e      0x10e ./gen/../rust_opt/target/armv7a-none-eabi/release/libitron.a(compiler_builtins-70f608aea3cde50d.compiler_builtins.5a681add74c93a61-cgu.347.rcgu.o)
                                        0x18a (size before relaxing)
 .debug_str     0x000000000003f37c      0x182 ./gen/../rust_opt/target/armv7a-none-eabi/release/libitron.a(63f8a0b8a638da8c-aeabi_div0.o)
                                        0x212 (size before relaxing)
 .debug_str     0x000000000003f4fe      0x40d ./gen/../rust_opt/target/armv7a-none-eabi/release/libitron.a(compiler_builtins-70f608aea3cde50d.compiler_builtins.5a681add74c93a61-cgu.010.rcgu.o)
                                        0x5f0 (size before relaxing)
 .debug_str     0x000000000003f90b      0x110 /usr/lib/gcc/arm-none-eabi/10.3.1/../../../arm-none-eabi/lib/thumb/v7-a/nofp/libc.a(lib_a-memset.o)
                                        0x1b3 (size before relaxing)

.debug_loc      0x0000000000000000      0x239
 *(.debug_loc)
 .debug_loc     0x0000000000000000      0x239 /usr/lib/gcc/arm-none-eabi/10.3.1/../../../arm-none-eabi/lib/thumb/v7-a/nofp/libc.a(lib_a-memset.o)

.debug_macinfo
 *(.debug_macinfo)

.debug_weaknames
 *(.debug_weaknames)

.debug_funcnames
 *(.debug_funcnames)

.debug_typenames
 *(.debug_typenames)

.debug_varnames
 *(.debug_varnames)
LOAD objs/start.o
LOAD objs/log_output.o
LOAD objs/vasyslog.o
LOAD objs/t_perror.o
LOAD objs/strerror.o
LOAD objs/tTask_rProcessor1Migratable_tecsgen.o
LOAD objs/tSemaphore_rProcessor1Migratable_tecsgen.o
LOAD objs/tInterruptRequest_rProcessor1Migratable_tecsgen.o
LOAD objs/tISR_rProcessor1Migratable_tecsgen.o
LOAD objs/tTerminateRoutine_rProcessor1Migratable_tecsgen.o
LOAD objs/tSerialPortMain_rProcessor1Migratable_tecsgen.o
LOAD objs/tSerialAdapter_rProcessor1Migratable_tecsgen.o
LOAD objs/tSysLog_rProcessor1Migratable_tecsgen.o
LOAD objs/tSysLogAdapter_rProcessor1Migratable_tecsgen.o
LOAD objs/tLogTaskMain_rProcessor1Migratable_tecsgen.o
LOAD objs/tPutLogZyboZ7_rProcessor1Migratable_tecsgen.o
LOAD objs/tXUartPs_rProcessor1Migratable_tecsgen.o
LOAD objs/tSIOPortZyboZ7Main_rProcessor1Migratable_tecsgen.o
LOAD objs/tTask.o
LOAD objs/tInterruptRequest.o
LOAD objs/tISR.o
LOAD objs/tTerminateRoutine.o
LOAD objs/tSerialPortMain.o
LOAD objs/tSerialAdapter.o
LOAD objs/tSysLog.o
LOAD objs/tSysLogAdapter.o
LOAD objs/tLogTaskMain.o
LOAD objs/tPutLogZyboZ7.o
LOAD objs/tXUartPs.o
LOAD objs/init_tecs.o
LOAD objs/kernel_cfg.o
LOAD ./gen/../rust_opt/target/armv7a-none-eabi/release/libitron.a
LOAD ./libkernel.a
LOAD /usr/lib/gcc/arm-none-eabi/10.3.1/../../../arm-none-eabi/lib/thumb/v7-a/nofp/libc.a
LOAD /usr/lib/gcc/arm-none-eabi/10.3.1/thumb/v7-a/nofp/libgcc.a
OUTPUT(fmp.elf elf32-littlearm)
LOAD linker stubs

.debug_ranges   0x0000000000000000     0xe600
 .debug_ranges  0x0000000000000000     0xcae0 ./gen/../rust_opt/target/armv7a-none-eabi/release/libitron.a(core-d049573bc16596f9.core.5587a85061e7188a-cgu.0.rcgu.o)
 .debug_ranges  0x000000000000cae0       0x30 ./gen/../rust_opt/target/armv7a-none-eabi/release/libitron.a(compiler_builtins-70f608aea3cde50d.compiler_builtins.5a681add74c93a61-cgu.162.rcgu.o)
 .debug_ranges  0x000000000000cb10       0x20 ./gen/../rust_opt/target/armv7a-none-eabi/release/libitron.a(compiler_builtins-70f608aea3cde50d.compiler_builtins.5a681add74c93a61-cgu.180.rcgu.o)
 .debug_ranges  0x000000000000cb30       0x30 ./gen/../rust_opt/target/armv7a-none-eabi/release/libitron.a(compiler_builtins-70f608aea3cde50d.compiler_builtins.5a681add74c93a61-cgu.201.rcgu.o)
 .debug_ranges  0x000000000000cb60       0x20 ./gen/../rust_opt/target/armv7a-none-eabi/release/libitron.a(compiler_builtins-70f608aea3cde50d.compiler_builtins.5a681add74c93a61-cgu.206.rcgu.o)
 .debug_ranges  0x000000000000cb80       0xc0 ./gen/../rust_opt/target/armv7a-none-eabi/release/libitron.a(compiler_builtins-70f608aea3cde50d.compiler_builtins.5a681add74c93a61-cgu.210.rcgu.o)
 .debug_ranges  0x000000000000cc40       0x48 ./gen/../rust_opt/target/armv7a-none-eabi/release/libitron.a(compiler_builtins-70f608aea3cde50d.compiler_builtins.5a681add74c93a61-cgu.270.rcgu.o)
 .debug_ranges  0x000000000000cc88       0x18 ./gen/../rust_opt/target/armv7a-none-eabi/release/libitron.a(compiler_builtins-70f608aea3cde50d.compiler_builtins.5a681add74c93a61-cgu.283.rcgu.o)
 .debug_ranges  0x000000000000cca0       0x78 ./gen/../rust_opt/target/armv7a-none-eabi/release/libitron.a(compiler_builtins-70f608aea3cde50d.compiler_builtins.5a681add74c93a61-cgu.300.rcgu.o)
 .debug_ranges  0x000000000000cd18       0x20 ./gen/../rust_opt/target/armv7a-none-eabi/release/libitron.a(compiler_builtins-70f608aea3cde50d.compiler_builtins.5a681add74c93a61-cgu.310.rcgu.o)
 .debug_ranges  0x000000000000cd38       0x18 ./gen/../rust_opt/target/armv7a-none-eabi/release/libitron.a(compiler_builtins-70f608aea3cde50d.compiler_builtins.5a681add74c93a61-cgu.361.rcgu.o)
 .debug_ranges  0x000000000000cd50       0x58 ./gen/../rust_opt/target/armv7a-none-eabi/release/libitron.a(compiler_builtins-70f608aea3cde50d.compiler_builtins.5a681add74c93a61-cgu.365.rcgu.o)
 .debug_ranges  0x000000000000cda8       0x30 ./gen/../rust_opt/target/armv7a-none-eabi/release/libitron.a(compiler_builtins-70f608aea3cde50d.compiler_builtins.5a681add74c93a61-cgu.375.rcgu.o)
 .debug_ranges  0x000000000000cdd8       0x30 ./gen/../rust_opt/target/armv7a-none-eabi/release/libitron.a(compiler_builtins-70f608aea3cde50d.compiler_builtins.5a681add74c93a61-cgu.395.rcgu.o)
 .debug_ranges  0x000000000000ce08      0x9f8 ./gen/../rust_opt/target/armv7a-none-eabi/release/libitron.a(compiler_builtins-70f608aea3cde50d.compiler_builtins.5a681add74c93a61-cgu.000.rcgu.o)
 .debug_ranges  0x000000000000d800      0x588 ./gen/../rust_opt/target/armv7a-none-eabi/release/libitron.a(compiler_builtins-70f608aea3cde50d.compiler_builtins.5a681add74c93a61-cgu.004.rcgu.o)
 .debug_ranges  0x000000000000dd88      0x3a8 ./gen/../rust_opt/target/armv7a-none-eabi/release/libitron.a(compiler_builtins-70f608aea3cde50d.compiler_builtins.5a681add74c93a61-cgu.009.rcgu.o)
 .debug_ranges  0x000000000000e130      0x1e0 ./gen/../rust_opt/target/armv7a-none-eabi/release/libitron.a(compiler_builtins-70f608aea3cde50d.compiler_builtins.5a681add74c93a61-cgu.019.rcgu.o)
 .debug_ranges  0x000000000000e310       0x18 ./gen/../rust_opt/target/armv7a-none-eabi/release/libitron.a(63f8a0b8a638da8c-aeabi_div0.o)
 .debug_ranges  0x000000000000e328      0x2d8 ./gen/../rust_opt/target/armv7a-none-eabi/release/libitron.a(compiler_builtins-70f608aea3cde50d.compiler_builtins.5a681add74c93a61-cgu.010.rcgu.o)
